
Morcom_v1.elf:     file format elf32-littlearm

Sections:
Idx Name          Size      VMA       LMA       File off  Algn
  0 .isr_vector   0000010c  08000000  08000000  00010000  2**0
                  CONTENTS, ALLOC, LOAD, READONLY, DATA
  1 .text         000060b4  08000110  08000110  00010110  2**3
                  CONTENTS, ALLOC, LOAD, READONLY, CODE
  2 .rodata       00000194  080061c4  080061c4  000161c4  2**2
                  CONTENTS, ALLOC, LOAD, READONLY, DATA
  3 .ARM.extab    00000000  08006358  08006358  00020088  2**0
                  CONTENTS
  4 .ARM          00000008  08006358  08006358  00016358  2**2
                  CONTENTS, ALLOC, LOAD, READONLY, DATA
  5 .preinit_array 00000000  08006360  08006360  00020088  2**0
                  CONTENTS, ALLOC, LOAD, DATA
  6 .init_array   00000004  08006360  08006360  00016360  2**2
                  CONTENTS, ALLOC, LOAD, DATA
  7 .fini_array   00000004  08006364  08006364  00016364  2**2
                  CONTENTS, ALLOC, LOAD, DATA
  8 .data         00000088  20000000  08006368  00020000  2**2
                  CONTENTS, ALLOC, LOAD, DATA
  9 .bss          00001248  20000088  080063f0  00020088  2**3
                  ALLOC
 10 ._user_heap_stack 00000600  200012d0  080063f0  000212d0  2**0
                  ALLOC
 11 .ARM.attributes 00000029  00000000  00000000  00020088  2**0
                  CONTENTS, READONLY
 12 .comment      00000050  00000000  00000000  000200b1  2**0
                  CONTENTS, READONLY
 13 .debug_frame  00000c78  00000000  00000000  00020104  2**2
                  CONTENTS, READONLY, DEBUGGING, OCTETS

Disassembly of section .text:

08000110 <__do_global_dtors_aux>:
 8000110:	b510      	push	{r4, lr}
 8000112:	4c05      	ldr	r4, [pc, #20]	; (8000128 <__do_global_dtors_aux+0x18>)
 8000114:	7823      	ldrb	r3, [r4, #0]
 8000116:	b933      	cbnz	r3, 8000126 <__do_global_dtors_aux+0x16>
 8000118:	4b04      	ldr	r3, [pc, #16]	; (800012c <__do_global_dtors_aux+0x1c>)
 800011a:	b113      	cbz	r3, 8000122 <__do_global_dtors_aux+0x12>
 800011c:	4804      	ldr	r0, [pc, #16]	; (8000130 <__do_global_dtors_aux+0x20>)
 800011e:	f3af 8000 	nop.w
 8000122:	2301      	movs	r3, #1
 8000124:	7023      	strb	r3, [r4, #0]
 8000126:	bd10      	pop	{r4, pc}
 8000128:	20000088 	.word	0x20000088
 800012c:	00000000 	.word	0x00000000
 8000130:	080061ac 	.word	0x080061ac

08000134 <frame_dummy>:
 8000134:	b508      	push	{r3, lr}
 8000136:	4b03      	ldr	r3, [pc, #12]	; (8000144 <frame_dummy+0x10>)
 8000138:	b11b      	cbz	r3, 8000142 <frame_dummy+0xe>
 800013a:	4903      	ldr	r1, [pc, #12]	; (8000148 <frame_dummy+0x14>)
 800013c:	4803      	ldr	r0, [pc, #12]	; (800014c <frame_dummy+0x18>)
 800013e:	f3af 8000 	nop.w
 8000142:	bd08      	pop	{r3, pc}
 8000144:	00000000 	.word	0x00000000
 8000148:	2000008c 	.word	0x2000008c
 800014c:	080061ac 	.word	0x080061ac

08000150 <__aeabi_fmul>:
 8000150:	f04f 0cff 	mov.w	ip, #255	; 0xff
 8000154:	ea1c 52d0 	ands.w	r2, ip, r0, lsr #23
 8000158:	bf1e      	ittt	ne
 800015a:	ea1c 53d1 	andsne.w	r3, ip, r1, lsr #23
 800015e:	ea92 0f0c 	teqne	r2, ip
 8000162:	ea93 0f0c 	teqne	r3, ip
 8000166:	d06f      	beq.n	8000248 <__aeabi_fmul+0xf8>
 8000168:	441a      	add	r2, r3
 800016a:	ea80 0c01 	eor.w	ip, r0, r1
 800016e:	0240      	lsls	r0, r0, #9
 8000170:	bf18      	it	ne
 8000172:	ea5f 2141 	movsne.w	r1, r1, lsl #9
 8000176:	d01e      	beq.n	80001b6 <__aeabi_fmul+0x66>
 8000178:	f04f 6300 	mov.w	r3, #134217728	; 0x8000000
 800017c:	ea43 1050 	orr.w	r0, r3, r0, lsr #5
 8000180:	ea43 1151 	orr.w	r1, r3, r1, lsr #5
 8000184:	fba0 3101 	umull	r3, r1, r0, r1
 8000188:	f00c 4000 	and.w	r0, ip, #2147483648	; 0x80000000
 800018c:	f5b1 0f00 	cmp.w	r1, #8388608	; 0x800000
 8000190:	bf3e      	ittt	cc
 8000192:	0049      	lslcc	r1, r1, #1
 8000194:	ea41 71d3 	orrcc.w	r1, r1, r3, lsr #31
 8000198:	005b      	lslcc	r3, r3, #1
 800019a:	ea40 0001 	orr.w	r0, r0, r1
 800019e:	f162 027f 	sbc.w	r2, r2, #127	; 0x7f
 80001a2:	2afd      	cmp	r2, #253	; 0xfd
 80001a4:	d81d      	bhi.n	80001e2 <__aeabi_fmul+0x92>
 80001a6:	f1b3 4f00 	cmp.w	r3, #2147483648	; 0x80000000
 80001aa:	eb40 50c2 	adc.w	r0, r0, r2, lsl #23
 80001ae:	bf08      	it	eq
 80001b0:	f020 0001 	biceq.w	r0, r0, #1
 80001b4:	4770      	bx	lr
 80001b6:	f090 0f00 	teq	r0, #0
 80001ba:	f00c 4c00 	and.w	ip, ip, #2147483648	; 0x80000000
 80001be:	bf08      	it	eq
 80001c0:	0249      	lsleq	r1, r1, #9
 80001c2:	ea4c 2050 	orr.w	r0, ip, r0, lsr #9
 80001c6:	ea40 2051 	orr.w	r0, r0, r1, lsr #9
 80001ca:	3a7f      	subs	r2, #127	; 0x7f
 80001cc:	bfc2      	ittt	gt
 80001ce:	f1d2 03ff 	rsbsgt	r3, r2, #255	; 0xff
 80001d2:	ea40 50c2 	orrgt.w	r0, r0, r2, lsl #23
 80001d6:	4770      	bxgt	lr
 80001d8:	f440 0000 	orr.w	r0, r0, #8388608	; 0x800000
 80001dc:	f04f 0300 	mov.w	r3, #0
 80001e0:	3a01      	subs	r2, #1
 80001e2:	dc5d      	bgt.n	80002a0 <__aeabi_fmul+0x150>
 80001e4:	f112 0f19 	cmn.w	r2, #25
 80001e8:	bfdc      	itt	le
 80001ea:	f000 4000 	andle.w	r0, r0, #2147483648	; 0x80000000
 80001ee:	4770      	bxle	lr
 80001f0:	f1c2 0200 	rsb	r2, r2, #0
 80001f4:	0041      	lsls	r1, r0, #1
 80001f6:	fa21 f102 	lsr.w	r1, r1, r2
 80001fa:	f1c2 0220 	rsb	r2, r2, #32
 80001fe:	fa00 fc02 	lsl.w	ip, r0, r2
 8000202:	ea5f 0031 	movs.w	r0, r1, rrx
 8000206:	f140 0000 	adc.w	r0, r0, #0
 800020a:	ea53 034c 	orrs.w	r3, r3, ip, lsl #1
 800020e:	bf08      	it	eq
 8000210:	ea20 70dc 	biceq.w	r0, r0, ip, lsr #31
 8000214:	4770      	bx	lr
 8000216:	f092 0f00 	teq	r2, #0
 800021a:	f000 4c00 	and.w	ip, r0, #2147483648	; 0x80000000
 800021e:	bf02      	ittt	eq
 8000220:	0040      	lsleq	r0, r0, #1
 8000222:	f410 0f00 	tsteq.w	r0, #8388608	; 0x800000
 8000226:	3a01      	subeq	r2, #1
 8000228:	d0f9      	beq.n	800021e <__aeabi_fmul+0xce>
 800022a:	ea40 000c 	orr.w	r0, r0, ip
 800022e:	f093 0f00 	teq	r3, #0
 8000232:	f001 4c00 	and.w	ip, r1, #2147483648	; 0x80000000
 8000236:	bf02      	ittt	eq
 8000238:	0049      	lsleq	r1, r1, #1
 800023a:	f411 0f00 	tsteq.w	r1, #8388608	; 0x800000
 800023e:	3b01      	subeq	r3, #1
 8000240:	d0f9      	beq.n	8000236 <__aeabi_fmul+0xe6>
 8000242:	ea41 010c 	orr.w	r1, r1, ip
 8000246:	e78f      	b.n	8000168 <__aeabi_fmul+0x18>
 8000248:	ea0c 53d1 	and.w	r3, ip, r1, lsr #23
 800024c:	ea92 0f0c 	teq	r2, ip
 8000250:	bf18      	it	ne
 8000252:	ea93 0f0c 	teqne	r3, ip
 8000256:	d00a      	beq.n	800026e <__aeabi_fmul+0x11e>
 8000258:	f030 4c00 	bics.w	ip, r0, #2147483648	; 0x80000000
 800025c:	bf18      	it	ne
 800025e:	f031 4c00 	bicsne.w	ip, r1, #2147483648	; 0x80000000
 8000262:	d1d8      	bne.n	8000216 <__aeabi_fmul+0xc6>
 8000264:	ea80 0001 	eor.w	r0, r0, r1
 8000268:	f000 4000 	and.w	r0, r0, #2147483648	; 0x80000000
 800026c:	4770      	bx	lr
 800026e:	f090 0f00 	teq	r0, #0
 8000272:	bf17      	itett	ne
 8000274:	f090 4f00 	teqne	r0, #2147483648	; 0x80000000
 8000278:	4608      	moveq	r0, r1
 800027a:	f091 0f00 	teqne	r1, #0
 800027e:	f091 4f00 	teqne	r1, #2147483648	; 0x80000000
 8000282:	d014      	beq.n	80002ae <__aeabi_fmul+0x15e>
 8000284:	ea92 0f0c 	teq	r2, ip
 8000288:	d101      	bne.n	800028e <__aeabi_fmul+0x13e>
 800028a:	0242      	lsls	r2, r0, #9
 800028c:	d10f      	bne.n	80002ae <__aeabi_fmul+0x15e>
 800028e:	ea93 0f0c 	teq	r3, ip
 8000292:	d103      	bne.n	800029c <__aeabi_fmul+0x14c>
 8000294:	024b      	lsls	r3, r1, #9
 8000296:	bf18      	it	ne
 8000298:	4608      	movne	r0, r1
 800029a:	d108      	bne.n	80002ae <__aeabi_fmul+0x15e>
 800029c:	ea80 0001 	eor.w	r0, r0, r1
 80002a0:	f000 4000 	and.w	r0, r0, #2147483648	; 0x80000000
 80002a4:	f040 40fe 	orr.w	r0, r0, #2130706432	; 0x7f000000
 80002a8:	f440 0000 	orr.w	r0, r0, #8388608	; 0x800000
 80002ac:	4770      	bx	lr
 80002ae:	f040 40fe 	orr.w	r0, r0, #2130706432	; 0x7f000000
 80002b2:	f440 0040 	orr.w	r0, r0, #12582912	; 0xc00000
 80002b6:	4770      	bx	lr

080002b8 <__aeabi_drsub>:
 80002b8:	f081 4100 	eor.w	r1, r1, #2147483648	; 0x80000000
 80002bc:	e002      	b.n	80002c4 <__adddf3>
 80002be:	bf00      	nop

080002c0 <__aeabi_dsub>:
 80002c0:	f083 4300 	eor.w	r3, r3, #2147483648	; 0x80000000

080002c4 <__adddf3>:
 80002c4:	b530      	push	{r4, r5, lr}
 80002c6:	ea4f 0441 	mov.w	r4, r1, lsl #1
 80002ca:	ea4f 0543 	mov.w	r5, r3, lsl #1
 80002ce:	ea94 0f05 	teq	r4, r5
 80002d2:	bf08      	it	eq
 80002d4:	ea90 0f02 	teqeq	r0, r2
 80002d8:	bf1f      	itttt	ne
 80002da:	ea54 0c00 	orrsne.w	ip, r4, r0
 80002de:	ea55 0c02 	orrsne.w	ip, r5, r2
 80002e2:	ea7f 5c64 	mvnsne.w	ip, r4, asr #21
 80002e6:	ea7f 5c65 	mvnsne.w	ip, r5, asr #21
 80002ea:	f000 80e2 	beq.w	80004b2 <__adddf3+0x1ee>
 80002ee:	ea4f 5454 	mov.w	r4, r4, lsr #21
 80002f2:	ebd4 5555 	rsbs	r5, r4, r5, lsr #21
 80002f6:	bfb8      	it	lt
 80002f8:	426d      	neglt	r5, r5
 80002fa:	dd0c      	ble.n	8000316 <__adddf3+0x52>
 80002fc:	442c      	add	r4, r5
 80002fe:	ea80 0202 	eor.w	r2, r0, r2
 8000302:	ea81 0303 	eor.w	r3, r1, r3
 8000306:	ea82 0000 	eor.w	r0, r2, r0
 800030a:	ea83 0101 	eor.w	r1, r3, r1
 800030e:	ea80 0202 	eor.w	r2, r0, r2
 8000312:	ea81 0303 	eor.w	r3, r1, r3
 8000316:	2d36      	cmp	r5, #54	; 0x36
 8000318:	bf88      	it	hi
 800031a:	bd30      	pophi	{r4, r5, pc}
 800031c:	f011 4f00 	tst.w	r1, #2147483648	; 0x80000000
 8000320:	ea4f 3101 	mov.w	r1, r1, lsl #12
 8000324:	f44f 1c80 	mov.w	ip, #1048576	; 0x100000
 8000328:	ea4c 3111 	orr.w	r1, ip, r1, lsr #12
 800032c:	d002      	beq.n	8000334 <__adddf3+0x70>
 800032e:	4240      	negs	r0, r0
 8000330:	eb61 0141 	sbc.w	r1, r1, r1, lsl #1
 8000334:	f013 4f00 	tst.w	r3, #2147483648	; 0x80000000
 8000338:	ea4f 3303 	mov.w	r3, r3, lsl #12
 800033c:	ea4c 3313 	orr.w	r3, ip, r3, lsr #12
 8000340:	d002      	beq.n	8000348 <__adddf3+0x84>
 8000342:	4252      	negs	r2, r2
 8000344:	eb63 0343 	sbc.w	r3, r3, r3, lsl #1
 8000348:	ea94 0f05 	teq	r4, r5
 800034c:	f000 80a7 	beq.w	800049e <__adddf3+0x1da>
 8000350:	f1a4 0401 	sub.w	r4, r4, #1
 8000354:	f1d5 0e20 	rsbs	lr, r5, #32
 8000358:	db0d      	blt.n	8000376 <__adddf3+0xb2>
 800035a:	fa02 fc0e 	lsl.w	ip, r2, lr
 800035e:	fa22 f205 	lsr.w	r2, r2, r5
 8000362:	1880      	adds	r0, r0, r2
 8000364:	f141 0100 	adc.w	r1, r1, #0
 8000368:	fa03 f20e 	lsl.w	r2, r3, lr
 800036c:	1880      	adds	r0, r0, r2
 800036e:	fa43 f305 	asr.w	r3, r3, r5
 8000372:	4159      	adcs	r1, r3
 8000374:	e00e      	b.n	8000394 <__adddf3+0xd0>
 8000376:	f1a5 0520 	sub.w	r5, r5, #32
 800037a:	f10e 0e20 	add.w	lr, lr, #32
 800037e:	2a01      	cmp	r2, #1
 8000380:	fa03 fc0e 	lsl.w	ip, r3, lr
 8000384:	bf28      	it	cs
 8000386:	f04c 0c02 	orrcs.w	ip, ip, #2
 800038a:	fa43 f305 	asr.w	r3, r3, r5
 800038e:	18c0      	adds	r0, r0, r3
 8000390:	eb51 71e3 	adcs.w	r1, r1, r3, asr #31
 8000394:	f001 4500 	and.w	r5, r1, #2147483648	; 0x80000000
 8000398:	d507      	bpl.n	80003aa <__adddf3+0xe6>
 800039a:	f04f 0e00 	mov.w	lr, #0
 800039e:	f1dc 0c00 	rsbs	ip, ip, #0
 80003a2:	eb7e 0000 	sbcs.w	r0, lr, r0
 80003a6:	eb6e 0101 	sbc.w	r1, lr, r1
 80003aa:	f5b1 1f80 	cmp.w	r1, #1048576	; 0x100000
 80003ae:	d31b      	bcc.n	80003e8 <__adddf3+0x124>
 80003b0:	f5b1 1f00 	cmp.w	r1, #2097152	; 0x200000
 80003b4:	d30c      	bcc.n	80003d0 <__adddf3+0x10c>
 80003b6:	0849      	lsrs	r1, r1, #1
 80003b8:	ea5f 0030 	movs.w	r0, r0, rrx
 80003bc:	ea4f 0c3c 	mov.w	ip, ip, rrx
 80003c0:	f104 0401 	add.w	r4, r4, #1
 80003c4:	ea4f 5244 	mov.w	r2, r4, lsl #21
 80003c8:	f512 0f80 	cmn.w	r2, #4194304	; 0x400000
 80003cc:	f080 809a 	bcs.w	8000504 <__adddf3+0x240>
 80003d0:	f1bc 4f00 	cmp.w	ip, #2147483648	; 0x80000000
 80003d4:	bf08      	it	eq
 80003d6:	ea5f 0c50 	movseq.w	ip, r0, lsr #1
 80003da:	f150 0000 	adcs.w	r0, r0, #0
 80003de:	eb41 5104 	adc.w	r1, r1, r4, lsl #20
 80003e2:	ea41 0105 	orr.w	r1, r1, r5
 80003e6:	bd30      	pop	{r4, r5, pc}
 80003e8:	ea5f 0c4c 	movs.w	ip, ip, lsl #1
 80003ec:	4140      	adcs	r0, r0
 80003ee:	eb41 0101 	adc.w	r1, r1, r1
 80003f2:	3c01      	subs	r4, #1
 80003f4:	bf28      	it	cs
 80003f6:	f5b1 1f80 	cmpcs.w	r1, #1048576	; 0x100000
 80003fa:	d2e9      	bcs.n	80003d0 <__adddf3+0x10c>
 80003fc:	f091 0f00 	teq	r1, #0
 8000400:	bf04      	itt	eq
 8000402:	4601      	moveq	r1, r0
 8000404:	2000      	moveq	r0, #0
 8000406:	fab1 f381 	clz	r3, r1
 800040a:	bf08      	it	eq
 800040c:	3320      	addeq	r3, #32
 800040e:	f1a3 030b 	sub.w	r3, r3, #11
 8000412:	f1b3 0220 	subs.w	r2, r3, #32
 8000416:	da0c      	bge.n	8000432 <__adddf3+0x16e>
 8000418:	320c      	adds	r2, #12
 800041a:	dd08      	ble.n	800042e <__adddf3+0x16a>
 800041c:	f102 0c14 	add.w	ip, r2, #20
 8000420:	f1c2 020c 	rsb	r2, r2, #12
 8000424:	fa01 f00c 	lsl.w	r0, r1, ip
 8000428:	fa21 f102 	lsr.w	r1, r1, r2
 800042c:	e00c      	b.n	8000448 <__adddf3+0x184>
 800042e:	f102 0214 	add.w	r2, r2, #20
 8000432:	bfd8      	it	le
 8000434:	f1c2 0c20 	rsble	ip, r2, #32
 8000438:	fa01 f102 	lsl.w	r1, r1, r2
 800043c:	fa20 fc0c 	lsr.w	ip, r0, ip
 8000440:	bfdc      	itt	le
 8000442:	ea41 010c 	orrle.w	r1, r1, ip
 8000446:	4090      	lslle	r0, r2
 8000448:	1ae4      	subs	r4, r4, r3
 800044a:	bfa2      	ittt	ge
 800044c:	eb01 5104 	addge.w	r1, r1, r4, lsl #20
 8000450:	4329      	orrge	r1, r5
 8000452:	bd30      	popge	{r4, r5, pc}
 8000454:	ea6f 0404 	mvn.w	r4, r4
 8000458:	3c1f      	subs	r4, #31
 800045a:	da1c      	bge.n	8000496 <__adddf3+0x1d2>
 800045c:	340c      	adds	r4, #12
 800045e:	dc0e      	bgt.n	800047e <__adddf3+0x1ba>
 8000460:	f104 0414 	add.w	r4, r4, #20
 8000464:	f1c4 0220 	rsb	r2, r4, #32
 8000468:	fa20 f004 	lsr.w	r0, r0, r4
 800046c:	fa01 f302 	lsl.w	r3, r1, r2
 8000470:	ea40 0003 	orr.w	r0, r0, r3
 8000474:	fa21 f304 	lsr.w	r3, r1, r4
 8000478:	ea45 0103 	orr.w	r1, r5, r3
 800047c:	bd30      	pop	{r4, r5, pc}
 800047e:	f1c4 040c 	rsb	r4, r4, #12
 8000482:	f1c4 0220 	rsb	r2, r4, #32
 8000486:	fa20 f002 	lsr.w	r0, r0, r2
 800048a:	fa01 f304 	lsl.w	r3, r1, r4
 800048e:	ea40 0003 	orr.w	r0, r0, r3
 8000492:	4629      	mov	r1, r5
 8000494:	bd30      	pop	{r4, r5, pc}
 8000496:	fa21 f004 	lsr.w	r0, r1, r4
 800049a:	4629      	mov	r1, r5
 800049c:	bd30      	pop	{r4, r5, pc}
 800049e:	f094 0f00 	teq	r4, #0
 80004a2:	f483 1380 	eor.w	r3, r3, #1048576	; 0x100000
 80004a6:	bf06      	itte	eq
 80004a8:	f481 1180 	eoreq.w	r1, r1, #1048576	; 0x100000
 80004ac:	3401      	addeq	r4, #1
 80004ae:	3d01      	subne	r5, #1
 80004b0:	e74e      	b.n	8000350 <__adddf3+0x8c>
 80004b2:	ea7f 5c64 	mvns.w	ip, r4, asr #21
 80004b6:	bf18      	it	ne
 80004b8:	ea7f 5c65 	mvnsne.w	ip, r5, asr #21
 80004bc:	d029      	beq.n	8000512 <__adddf3+0x24e>
 80004be:	ea94 0f05 	teq	r4, r5
 80004c2:	bf08      	it	eq
 80004c4:	ea90 0f02 	teqeq	r0, r2
 80004c8:	d005      	beq.n	80004d6 <__adddf3+0x212>
 80004ca:	ea54 0c00 	orrs.w	ip, r4, r0
 80004ce:	bf04      	itt	eq
 80004d0:	4619      	moveq	r1, r3
 80004d2:	4610      	moveq	r0, r2
 80004d4:	bd30      	pop	{r4, r5, pc}
 80004d6:	ea91 0f03 	teq	r1, r3
 80004da:	bf1e      	ittt	ne
 80004dc:	2100      	movne	r1, #0
 80004de:	2000      	movne	r0, #0
 80004e0:	bd30      	popne	{r4, r5, pc}
 80004e2:	ea5f 5c54 	movs.w	ip, r4, lsr #21
 80004e6:	d105      	bne.n	80004f4 <__adddf3+0x230>
 80004e8:	0040      	lsls	r0, r0, #1
 80004ea:	4149      	adcs	r1, r1
 80004ec:	bf28      	it	cs
 80004ee:	f041 4100 	orrcs.w	r1, r1, #2147483648	; 0x80000000
 80004f2:	bd30      	pop	{r4, r5, pc}
 80004f4:	f514 0480 	adds.w	r4, r4, #4194304	; 0x400000
 80004f8:	bf3c      	itt	cc
 80004fa:	f501 1180 	addcc.w	r1, r1, #1048576	; 0x100000
 80004fe:	bd30      	popcc	{r4, r5, pc}
 8000500:	f001 4500 	and.w	r5, r1, #2147483648	; 0x80000000
 8000504:	f045 41fe 	orr.w	r1, r5, #2130706432	; 0x7f000000
 8000508:	f441 0170 	orr.w	r1, r1, #15728640	; 0xf00000
 800050c:	f04f 0000 	mov.w	r0, #0
 8000510:	bd30      	pop	{r4, r5, pc}
 8000512:	ea7f 5c64 	mvns.w	ip, r4, asr #21
 8000516:	bf1a      	itte	ne
 8000518:	4619      	movne	r1, r3
 800051a:	4610      	movne	r0, r2
 800051c:	ea7f 5c65 	mvnseq.w	ip, r5, asr #21
 8000520:	bf1c      	itt	ne
 8000522:	460b      	movne	r3, r1
 8000524:	4602      	movne	r2, r0
 8000526:	ea50 3401 	orrs.w	r4, r0, r1, lsl #12
 800052a:	bf06      	itte	eq
 800052c:	ea52 3503 	orrseq.w	r5, r2, r3, lsl #12
 8000530:	ea91 0f03 	teqeq	r1, r3
 8000534:	f441 2100 	orrne.w	r1, r1, #524288	; 0x80000
 8000538:	bd30      	pop	{r4, r5, pc}
 800053a:	bf00      	nop

0800053c <__aeabi_ui2d>:
 800053c:	f090 0f00 	teq	r0, #0
 8000540:	bf04      	itt	eq
 8000542:	2100      	moveq	r1, #0
 8000544:	4770      	bxeq	lr
 8000546:	b530      	push	{r4, r5, lr}
 8000548:	f44f 6480 	mov.w	r4, #1024	; 0x400
 800054c:	f104 0432 	add.w	r4, r4, #50	; 0x32
 8000550:	f04f 0500 	mov.w	r5, #0
 8000554:	f04f 0100 	mov.w	r1, #0
 8000558:	e750      	b.n	80003fc <__adddf3+0x138>
 800055a:	bf00      	nop

0800055c <__aeabi_i2d>:
 800055c:	f090 0f00 	teq	r0, #0
 8000560:	bf04      	itt	eq
 8000562:	2100      	moveq	r1, #0
 8000564:	4770      	bxeq	lr
 8000566:	b530      	push	{r4, r5, lr}
 8000568:	f44f 6480 	mov.w	r4, #1024	; 0x400
 800056c:	f104 0432 	add.w	r4, r4, #50	; 0x32
 8000570:	f010 4500 	ands.w	r5, r0, #2147483648	; 0x80000000
 8000574:	bf48      	it	mi
 8000576:	4240      	negmi	r0, r0
 8000578:	f04f 0100 	mov.w	r1, #0
 800057c:	e73e      	b.n	80003fc <__adddf3+0x138>
 800057e:	bf00      	nop

08000580 <__aeabi_f2d>:
 8000580:	0042      	lsls	r2, r0, #1
 8000582:	ea4f 01e2 	mov.w	r1, r2, asr #3
 8000586:	ea4f 0131 	mov.w	r1, r1, rrx
 800058a:	ea4f 7002 	mov.w	r0, r2, lsl #28
 800058e:	bf1f      	itttt	ne
 8000590:	f012 437f 	andsne.w	r3, r2, #4278190080	; 0xff000000
 8000594:	f093 4f7f 	teqne	r3, #4278190080	; 0xff000000
 8000598:	f081 5160 	eorne.w	r1, r1, #939524096	; 0x38000000
 800059c:	4770      	bxne	lr
 800059e:	f032 427f 	bics.w	r2, r2, #4278190080	; 0xff000000
 80005a2:	bf08      	it	eq
 80005a4:	4770      	bxeq	lr
 80005a6:	f093 4f7f 	teq	r3, #4278190080	; 0xff000000
 80005aa:	bf04      	itt	eq
 80005ac:	f441 2100 	orreq.w	r1, r1, #524288	; 0x80000
 80005b0:	4770      	bxeq	lr
 80005b2:	b530      	push	{r4, r5, lr}
 80005b4:	f44f 7460 	mov.w	r4, #896	; 0x380
 80005b8:	f001 4500 	and.w	r5, r1, #2147483648	; 0x80000000
 80005bc:	f021 4100 	bic.w	r1, r1, #2147483648	; 0x80000000
 80005c0:	e71c      	b.n	80003fc <__adddf3+0x138>
 80005c2:	bf00      	nop

080005c4 <__aeabi_ul2d>:
 80005c4:	ea50 0201 	orrs.w	r2, r0, r1
 80005c8:	bf08      	it	eq
 80005ca:	4770      	bxeq	lr
 80005cc:	b530      	push	{r4, r5, lr}
 80005ce:	f04f 0500 	mov.w	r5, #0
 80005d2:	e00a      	b.n	80005ea <__aeabi_l2d+0x16>

080005d4 <__aeabi_l2d>:
 80005d4:	ea50 0201 	orrs.w	r2, r0, r1
 80005d8:	bf08      	it	eq
 80005da:	4770      	bxeq	lr
 80005dc:	b530      	push	{r4, r5, lr}
 80005de:	f011 4500 	ands.w	r5, r1, #2147483648	; 0x80000000
 80005e2:	d502      	bpl.n	80005ea <__aeabi_l2d+0x16>
 80005e4:	4240      	negs	r0, r0
 80005e6:	eb61 0141 	sbc.w	r1, r1, r1, lsl #1
 80005ea:	f44f 6480 	mov.w	r4, #1024	; 0x400
 80005ee:	f104 0432 	add.w	r4, r4, #50	; 0x32
 80005f2:	ea5f 5c91 	movs.w	ip, r1, lsr #22
 80005f6:	f43f aed8 	beq.w	80003aa <__adddf3+0xe6>
 80005fa:	f04f 0203 	mov.w	r2, #3
 80005fe:	ea5f 0cdc 	movs.w	ip, ip, lsr #3
 8000602:	bf18      	it	ne
 8000604:	3203      	addne	r2, #3
 8000606:	ea5f 0cdc 	movs.w	ip, ip, lsr #3
 800060a:	bf18      	it	ne
 800060c:	3203      	addne	r2, #3
 800060e:	eb02 02dc 	add.w	r2, r2, ip, lsr #3
 8000612:	f1c2 0320 	rsb	r3, r2, #32
 8000616:	fa00 fc03 	lsl.w	ip, r0, r3
 800061a:	fa20 f002 	lsr.w	r0, r0, r2
 800061e:	fa01 fe03 	lsl.w	lr, r1, r3
 8000622:	ea40 000e 	orr.w	r0, r0, lr
 8000626:	fa21 f102 	lsr.w	r1, r1, r2
 800062a:	4414      	add	r4, r2
 800062c:	e6bd      	b.n	80003aa <__adddf3+0xe6>
 800062e:	bf00      	nop

08000630 <__aeabi_dmul>:
 8000630:	b570      	push	{r4, r5, r6, lr}
 8000632:	f04f 0cff 	mov.w	ip, #255	; 0xff
 8000636:	f44c 6ce0 	orr.w	ip, ip, #1792	; 0x700
 800063a:	ea1c 5411 	ands.w	r4, ip, r1, lsr #20
 800063e:	bf1d      	ittte	ne
 8000640:	ea1c 5513 	andsne.w	r5, ip, r3, lsr #20
 8000644:	ea94 0f0c 	teqne	r4, ip
 8000648:	ea95 0f0c 	teqne	r5, ip
 800064c:	f000 f8de 	bleq	800080c <__aeabi_dmul+0x1dc>
 8000650:	442c      	add	r4, r5
 8000652:	ea81 0603 	eor.w	r6, r1, r3
 8000656:	ea21 514c 	bic.w	r1, r1, ip, lsl #21
 800065a:	ea23 534c 	bic.w	r3, r3, ip, lsl #21
 800065e:	ea50 3501 	orrs.w	r5, r0, r1, lsl #12
 8000662:	bf18      	it	ne
 8000664:	ea52 3503 	orrsne.w	r5, r2, r3, lsl #12
 8000668:	f441 1180 	orr.w	r1, r1, #1048576	; 0x100000
 800066c:	f443 1380 	orr.w	r3, r3, #1048576	; 0x100000
 8000670:	d038      	beq.n	80006e4 <__aeabi_dmul+0xb4>
 8000672:	fba0 ce02 	umull	ip, lr, r0, r2
 8000676:	f04f 0500 	mov.w	r5, #0
 800067a:	fbe1 e502 	umlal	lr, r5, r1, r2
 800067e:	f006 4200 	and.w	r2, r6, #2147483648	; 0x80000000
 8000682:	fbe0 e503 	umlal	lr, r5, r0, r3
 8000686:	f04f 0600 	mov.w	r6, #0
 800068a:	fbe1 5603 	umlal	r5, r6, r1, r3
 800068e:	f09c 0f00 	teq	ip, #0
 8000692:	bf18      	it	ne
 8000694:	f04e 0e01 	orrne.w	lr, lr, #1
 8000698:	f1a4 04ff 	sub.w	r4, r4, #255	; 0xff
 800069c:	f5b6 7f00 	cmp.w	r6, #512	; 0x200
 80006a0:	f564 7440 	sbc.w	r4, r4, #768	; 0x300
 80006a4:	d204      	bcs.n	80006b0 <__aeabi_dmul+0x80>
 80006a6:	ea5f 0e4e 	movs.w	lr, lr, lsl #1
 80006aa:	416d      	adcs	r5, r5
 80006ac:	eb46 0606 	adc.w	r6, r6, r6
 80006b0:	ea42 21c6 	orr.w	r1, r2, r6, lsl #11
 80006b4:	ea41 5155 	orr.w	r1, r1, r5, lsr #21
 80006b8:	ea4f 20c5 	mov.w	r0, r5, lsl #11
 80006bc:	ea40 505e 	orr.w	r0, r0, lr, lsr #21
 80006c0:	ea4f 2ece 	mov.w	lr, lr, lsl #11
 80006c4:	f1b4 0cfd 	subs.w	ip, r4, #253	; 0xfd
 80006c8:	bf88      	it	hi
 80006ca:	f5bc 6fe0 	cmphi.w	ip, #1792	; 0x700
 80006ce:	d81e      	bhi.n	800070e <__aeabi_dmul+0xde>
 80006d0:	f1be 4f00 	cmp.w	lr, #2147483648	; 0x80000000
 80006d4:	bf08      	it	eq
 80006d6:	ea5f 0e50 	movseq.w	lr, r0, lsr #1
 80006da:	f150 0000 	adcs.w	r0, r0, #0
 80006de:	eb41 5104 	adc.w	r1, r1, r4, lsl #20
 80006e2:	bd70      	pop	{r4, r5, r6, pc}
 80006e4:	f006 4600 	and.w	r6, r6, #2147483648	; 0x80000000
 80006e8:	ea46 0101 	orr.w	r1, r6, r1
 80006ec:	ea40 0002 	orr.w	r0, r0, r2
 80006f0:	ea81 0103 	eor.w	r1, r1, r3
 80006f4:	ebb4 045c 	subs.w	r4, r4, ip, lsr #1
 80006f8:	bfc2      	ittt	gt
 80006fa:	ebd4 050c 	rsbsgt	r5, r4, ip
 80006fe:	ea41 5104 	orrgt.w	r1, r1, r4, lsl #20
 8000702:	bd70      	popgt	{r4, r5, r6, pc}
 8000704:	f441 1180 	orr.w	r1, r1, #1048576	; 0x100000
 8000708:	f04f 0e00 	mov.w	lr, #0
 800070c:	3c01      	subs	r4, #1
 800070e:	f300 80ab 	bgt.w	8000868 <__aeabi_dmul+0x238>
 8000712:	f114 0f36 	cmn.w	r4, #54	; 0x36
 8000716:	bfde      	ittt	le
 8000718:	2000      	movle	r0, #0
 800071a:	f001 4100 	andle.w	r1, r1, #2147483648	; 0x80000000
 800071e:	bd70      	pople	{r4, r5, r6, pc}
 8000720:	f1c4 0400 	rsb	r4, r4, #0
 8000724:	3c20      	subs	r4, #32
 8000726:	da35      	bge.n	8000794 <__aeabi_dmul+0x164>
 8000728:	340c      	adds	r4, #12
 800072a:	dc1b      	bgt.n	8000764 <__aeabi_dmul+0x134>
 800072c:	f104 0414 	add.w	r4, r4, #20
 8000730:	f1c4 0520 	rsb	r5, r4, #32
 8000734:	fa00 f305 	lsl.w	r3, r0, r5
 8000738:	fa20 f004 	lsr.w	r0, r0, r4
 800073c:	fa01 f205 	lsl.w	r2, r1, r5
 8000740:	ea40 0002 	orr.w	r0, r0, r2
 8000744:	f001 4200 	and.w	r2, r1, #2147483648	; 0x80000000
 8000748:	f021 4100 	bic.w	r1, r1, #2147483648	; 0x80000000
 800074c:	eb10 70d3 	adds.w	r0, r0, r3, lsr #31
 8000750:	fa21 f604 	lsr.w	r6, r1, r4
 8000754:	eb42 0106 	adc.w	r1, r2, r6
 8000758:	ea5e 0e43 	orrs.w	lr, lr, r3, lsl #1
 800075c:	bf08      	it	eq
 800075e:	ea20 70d3 	biceq.w	r0, r0, r3, lsr #31
 8000762:	bd70      	pop	{r4, r5, r6, pc}
 8000764:	f1c4 040c 	rsb	r4, r4, #12
 8000768:	f1c4 0520 	rsb	r5, r4, #32
 800076c:	fa00 f304 	lsl.w	r3, r0, r4
 8000770:	fa20 f005 	lsr.w	r0, r0, r5
 8000774:	fa01 f204 	lsl.w	r2, r1, r4
 8000778:	ea40 0002 	orr.w	r0, r0, r2
 800077c:	f001 4100 	and.w	r1, r1, #2147483648	; 0x80000000
 8000780:	eb10 70d3 	adds.w	r0, r0, r3, lsr #31
 8000784:	f141 0100 	adc.w	r1, r1, #0
 8000788:	ea5e 0e43 	orrs.w	lr, lr, r3, lsl #1
 800078c:	bf08      	it	eq
 800078e:	ea20 70d3 	biceq.w	r0, r0, r3, lsr #31
 8000792:	bd70      	pop	{r4, r5, r6, pc}
 8000794:	f1c4 0520 	rsb	r5, r4, #32
 8000798:	fa00 f205 	lsl.w	r2, r0, r5
 800079c:	ea4e 0e02 	orr.w	lr, lr, r2
 80007a0:	fa20 f304 	lsr.w	r3, r0, r4
 80007a4:	fa01 f205 	lsl.w	r2, r1, r5
 80007a8:	ea43 0302 	orr.w	r3, r3, r2
 80007ac:	fa21 f004 	lsr.w	r0, r1, r4
 80007b0:	f001 4100 	and.w	r1, r1, #2147483648	; 0x80000000
 80007b4:	fa21 f204 	lsr.w	r2, r1, r4
 80007b8:	ea20 0002 	bic.w	r0, r0, r2
 80007bc:	eb00 70d3 	add.w	r0, r0, r3, lsr #31
 80007c0:	ea5e 0e43 	orrs.w	lr, lr, r3, lsl #1
 80007c4:	bf08      	it	eq
 80007c6:	ea20 70d3 	biceq.w	r0, r0, r3, lsr #31
 80007ca:	bd70      	pop	{r4, r5, r6, pc}
 80007cc:	f094 0f00 	teq	r4, #0
 80007d0:	d10f      	bne.n	80007f2 <__aeabi_dmul+0x1c2>
 80007d2:	f001 4600 	and.w	r6, r1, #2147483648	; 0x80000000
 80007d6:	0040      	lsls	r0, r0, #1
 80007d8:	eb41 0101 	adc.w	r1, r1, r1
 80007dc:	f411 1f80 	tst.w	r1, #1048576	; 0x100000
 80007e0:	bf08      	it	eq
 80007e2:	3c01      	subeq	r4, #1
 80007e4:	d0f7      	beq.n	80007d6 <__aeabi_dmul+0x1a6>
 80007e6:	ea41 0106 	orr.w	r1, r1, r6
 80007ea:	f095 0f00 	teq	r5, #0
 80007ee:	bf18      	it	ne
 80007f0:	4770      	bxne	lr
 80007f2:	f003 4600 	and.w	r6, r3, #2147483648	; 0x80000000
 80007f6:	0052      	lsls	r2, r2, #1
 80007f8:	eb43 0303 	adc.w	r3, r3, r3
 80007fc:	f413 1f80 	tst.w	r3, #1048576	; 0x100000
 8000800:	bf08      	it	eq
 8000802:	3d01      	subeq	r5, #1
 8000804:	d0f7      	beq.n	80007f6 <__aeabi_dmul+0x1c6>
 8000806:	ea43 0306 	orr.w	r3, r3, r6
 800080a:	4770      	bx	lr
 800080c:	ea94 0f0c 	teq	r4, ip
 8000810:	ea0c 5513 	and.w	r5, ip, r3, lsr #20
 8000814:	bf18      	it	ne
 8000816:	ea95 0f0c 	teqne	r5, ip
 800081a:	d00c      	beq.n	8000836 <__aeabi_dmul+0x206>
 800081c:	ea50 0641 	orrs.w	r6, r0, r1, lsl #1
 8000820:	bf18      	it	ne
 8000822:	ea52 0643 	orrsne.w	r6, r2, r3, lsl #1
 8000826:	d1d1      	bne.n	80007cc <__aeabi_dmul+0x19c>
 8000828:	ea81 0103 	eor.w	r1, r1, r3
 800082c:	f001 4100 	and.w	r1, r1, #2147483648	; 0x80000000
 8000830:	f04f 0000 	mov.w	r0, #0
 8000834:	bd70      	pop	{r4, r5, r6, pc}
 8000836:	ea50 0641 	orrs.w	r6, r0, r1, lsl #1
 800083a:	bf06      	itte	eq
 800083c:	4610      	moveq	r0, r2
 800083e:	4619      	moveq	r1, r3
 8000840:	ea52 0643 	orrsne.w	r6, r2, r3, lsl #1
 8000844:	d019      	beq.n	800087a <__aeabi_dmul+0x24a>
 8000846:	ea94 0f0c 	teq	r4, ip
 800084a:	d102      	bne.n	8000852 <__aeabi_dmul+0x222>
 800084c:	ea50 3601 	orrs.w	r6, r0, r1, lsl #12
 8000850:	d113      	bne.n	800087a <__aeabi_dmul+0x24a>
 8000852:	ea95 0f0c 	teq	r5, ip
 8000856:	d105      	bne.n	8000864 <__aeabi_dmul+0x234>
 8000858:	ea52 3603 	orrs.w	r6, r2, r3, lsl #12
 800085c:	bf1c      	itt	ne
 800085e:	4610      	movne	r0, r2
 8000860:	4619      	movne	r1, r3
 8000862:	d10a      	bne.n	800087a <__aeabi_dmul+0x24a>
 8000864:	ea81 0103 	eor.w	r1, r1, r3
 8000868:	f001 4100 	and.w	r1, r1, #2147483648	; 0x80000000
 800086c:	f041 41fe 	orr.w	r1, r1, #2130706432	; 0x7f000000
 8000870:	f441 0170 	orr.w	r1, r1, #15728640	; 0xf00000
 8000874:	f04f 0000 	mov.w	r0, #0
 8000878:	bd70      	pop	{r4, r5, r6, pc}
 800087a:	f041 41fe 	orr.w	r1, r1, #2130706432	; 0x7f000000
 800087e:	f441 0178 	orr.w	r1, r1, #16252928	; 0xf80000
 8000882:	bd70      	pop	{r4, r5, r6, pc}

08000884 <__aeabi_ddiv>:
 8000884:	b570      	push	{r4, r5, r6, lr}
 8000886:	f04f 0cff 	mov.w	ip, #255	; 0xff
 800088a:	f44c 6ce0 	orr.w	ip, ip, #1792	; 0x700
 800088e:	ea1c 5411 	ands.w	r4, ip, r1, lsr #20
 8000892:	bf1d      	ittte	ne
 8000894:	ea1c 5513 	andsne.w	r5, ip, r3, lsr #20
 8000898:	ea94 0f0c 	teqne	r4, ip
 800089c:	ea95 0f0c 	teqne	r5, ip
 80008a0:	f000 f8a7 	bleq	80009f2 <__aeabi_ddiv+0x16e>
 80008a4:	eba4 0405 	sub.w	r4, r4, r5
 80008a8:	ea81 0e03 	eor.w	lr, r1, r3
 80008ac:	ea52 3503 	orrs.w	r5, r2, r3, lsl #12
 80008b0:	ea4f 3101 	mov.w	r1, r1, lsl #12
 80008b4:	f000 8088 	beq.w	80009c8 <__aeabi_ddiv+0x144>
 80008b8:	ea4f 3303 	mov.w	r3, r3, lsl #12
 80008bc:	f04f 5580 	mov.w	r5, #268435456	; 0x10000000
 80008c0:	ea45 1313 	orr.w	r3, r5, r3, lsr #4
 80008c4:	ea43 6312 	orr.w	r3, r3, r2, lsr #24
 80008c8:	ea4f 2202 	mov.w	r2, r2, lsl #8
 80008cc:	ea45 1511 	orr.w	r5, r5, r1, lsr #4
 80008d0:	ea45 6510 	orr.w	r5, r5, r0, lsr #24
 80008d4:	ea4f 2600 	mov.w	r6, r0, lsl #8
 80008d8:	f00e 4100 	and.w	r1, lr, #2147483648	; 0x80000000
 80008dc:	429d      	cmp	r5, r3
 80008de:	bf08      	it	eq
 80008e0:	4296      	cmpeq	r6, r2
 80008e2:	f144 04fd 	adc.w	r4, r4, #253	; 0xfd
 80008e6:	f504 7440 	add.w	r4, r4, #768	; 0x300
 80008ea:	d202      	bcs.n	80008f2 <__aeabi_ddiv+0x6e>
 80008ec:	085b      	lsrs	r3, r3, #1
 80008ee:	ea4f 0232 	mov.w	r2, r2, rrx
 80008f2:	1ab6      	subs	r6, r6, r2
 80008f4:	eb65 0503 	sbc.w	r5, r5, r3
 80008f8:	085b      	lsrs	r3, r3, #1
 80008fa:	ea4f 0232 	mov.w	r2, r2, rrx
 80008fe:	f44f 1080 	mov.w	r0, #1048576	; 0x100000
 8000902:	f44f 2c00 	mov.w	ip, #524288	; 0x80000
 8000906:	ebb6 0e02 	subs.w	lr, r6, r2
 800090a:	eb75 0e03 	sbcs.w	lr, r5, r3
 800090e:	bf22      	ittt	cs
 8000910:	1ab6      	subcs	r6, r6, r2
 8000912:	4675      	movcs	r5, lr
 8000914:	ea40 000c 	orrcs.w	r0, r0, ip
 8000918:	085b      	lsrs	r3, r3, #1
 800091a:	ea4f 0232 	mov.w	r2, r2, rrx
 800091e:	ebb6 0e02 	subs.w	lr, r6, r2
 8000922:	eb75 0e03 	sbcs.w	lr, r5, r3
 8000926:	bf22      	ittt	cs
 8000928:	1ab6      	subcs	r6, r6, r2
 800092a:	4675      	movcs	r5, lr
 800092c:	ea40 005c 	orrcs.w	r0, r0, ip, lsr #1
 8000930:	085b      	lsrs	r3, r3, #1
 8000932:	ea4f 0232 	mov.w	r2, r2, rrx
 8000936:	ebb6 0e02 	subs.w	lr, r6, r2
 800093a:	eb75 0e03 	sbcs.w	lr, r5, r3
 800093e:	bf22      	ittt	cs
 8000940:	1ab6      	subcs	r6, r6, r2
 8000942:	4675      	movcs	r5, lr
 8000944:	ea40 009c 	orrcs.w	r0, r0, ip, lsr #2
 8000948:	085b      	lsrs	r3, r3, #1
 800094a:	ea4f 0232 	mov.w	r2, r2, rrx
 800094e:	ebb6 0e02 	subs.w	lr, r6, r2
 8000952:	eb75 0e03 	sbcs.w	lr, r5, r3
 8000956:	bf22      	ittt	cs
 8000958:	1ab6      	subcs	r6, r6, r2
 800095a:	4675      	movcs	r5, lr
 800095c:	ea40 00dc 	orrcs.w	r0, r0, ip, lsr #3
 8000960:	ea55 0e06 	orrs.w	lr, r5, r6
 8000964:	d018      	beq.n	8000998 <__aeabi_ddiv+0x114>
 8000966:	ea4f 1505 	mov.w	r5, r5, lsl #4
 800096a:	ea45 7516 	orr.w	r5, r5, r6, lsr #28
 800096e:	ea4f 1606 	mov.w	r6, r6, lsl #4
 8000972:	ea4f 03c3 	mov.w	r3, r3, lsl #3
 8000976:	ea43 7352 	orr.w	r3, r3, r2, lsr #29
 800097a:	ea4f 02c2 	mov.w	r2, r2, lsl #3
 800097e:	ea5f 1c1c 	movs.w	ip, ip, lsr #4
 8000982:	d1c0      	bne.n	8000906 <__aeabi_ddiv+0x82>
 8000984:	f411 1f80 	tst.w	r1, #1048576	; 0x100000
 8000988:	d10b      	bne.n	80009a2 <__aeabi_ddiv+0x11e>
 800098a:	ea41 0100 	orr.w	r1, r1, r0
 800098e:	f04f 0000 	mov.w	r0, #0
 8000992:	f04f 4c00 	mov.w	ip, #2147483648	; 0x80000000
 8000996:	e7b6      	b.n	8000906 <__aeabi_ddiv+0x82>
 8000998:	f411 1f80 	tst.w	r1, #1048576	; 0x100000
 800099c:	bf04      	itt	eq
 800099e:	4301      	orreq	r1, r0
 80009a0:	2000      	moveq	r0, #0
 80009a2:	f1b4 0cfd 	subs.w	ip, r4, #253	; 0xfd
 80009a6:	bf88      	it	hi
 80009a8:	f5bc 6fe0 	cmphi.w	ip, #1792	; 0x700
 80009ac:	f63f aeaf 	bhi.w	800070e <__aeabi_dmul+0xde>
 80009b0:	ebb5 0c03 	subs.w	ip, r5, r3
 80009b4:	bf04      	itt	eq
 80009b6:	ebb6 0c02 	subseq.w	ip, r6, r2
 80009ba:	ea5f 0c50 	movseq.w	ip, r0, lsr #1
 80009be:	f150 0000 	adcs.w	r0, r0, #0
 80009c2:	eb41 5104 	adc.w	r1, r1, r4, lsl #20
 80009c6:	bd70      	pop	{r4, r5, r6, pc}
 80009c8:	f00e 4e00 	and.w	lr, lr, #2147483648	; 0x80000000
 80009cc:	ea4e 3111 	orr.w	r1, lr, r1, lsr #12
 80009d0:	eb14 045c 	adds.w	r4, r4, ip, lsr #1
 80009d4:	bfc2      	ittt	gt
 80009d6:	ebd4 050c 	rsbsgt	r5, r4, ip
 80009da:	ea41 5104 	orrgt.w	r1, r1, r4, lsl #20
 80009de:	bd70      	popgt	{r4, r5, r6, pc}
 80009e0:	f441 1180 	orr.w	r1, r1, #1048576	; 0x100000
 80009e4:	f04f 0e00 	mov.w	lr, #0
 80009e8:	3c01      	subs	r4, #1
 80009ea:	e690      	b.n	800070e <__aeabi_dmul+0xde>
 80009ec:	ea45 0e06 	orr.w	lr, r5, r6
 80009f0:	e68d      	b.n	800070e <__aeabi_dmul+0xde>
 80009f2:	ea0c 5513 	and.w	r5, ip, r3, lsr #20
 80009f6:	ea94 0f0c 	teq	r4, ip
 80009fa:	bf08      	it	eq
 80009fc:	ea95 0f0c 	teqeq	r5, ip
 8000a00:	f43f af3b 	beq.w	800087a <__aeabi_dmul+0x24a>
 8000a04:	ea94 0f0c 	teq	r4, ip
 8000a08:	d10a      	bne.n	8000a20 <__aeabi_ddiv+0x19c>
 8000a0a:	ea50 3401 	orrs.w	r4, r0, r1, lsl #12
 8000a0e:	f47f af34 	bne.w	800087a <__aeabi_dmul+0x24a>
 8000a12:	ea95 0f0c 	teq	r5, ip
 8000a16:	f47f af25 	bne.w	8000864 <__aeabi_dmul+0x234>
 8000a1a:	4610      	mov	r0, r2
 8000a1c:	4619      	mov	r1, r3
 8000a1e:	e72c      	b.n	800087a <__aeabi_dmul+0x24a>
 8000a20:	ea95 0f0c 	teq	r5, ip
 8000a24:	d106      	bne.n	8000a34 <__aeabi_ddiv+0x1b0>
 8000a26:	ea52 3503 	orrs.w	r5, r2, r3, lsl #12
 8000a2a:	f43f aefd 	beq.w	8000828 <__aeabi_dmul+0x1f8>
 8000a2e:	4610      	mov	r0, r2
 8000a30:	4619      	mov	r1, r3
 8000a32:	e722      	b.n	800087a <__aeabi_dmul+0x24a>
 8000a34:	ea50 0641 	orrs.w	r6, r0, r1, lsl #1
 8000a38:	bf18      	it	ne
 8000a3a:	ea52 0643 	orrsne.w	r6, r2, r3, lsl #1
 8000a3e:	f47f aec5 	bne.w	80007cc <__aeabi_dmul+0x19c>
 8000a42:	ea50 0441 	orrs.w	r4, r0, r1, lsl #1
 8000a46:	f47f af0d 	bne.w	8000864 <__aeabi_dmul+0x234>
 8000a4a:	ea52 0543 	orrs.w	r5, r2, r3, lsl #1
 8000a4e:	f47f aeeb 	bne.w	8000828 <__aeabi_dmul+0x1f8>
 8000a52:	e712      	b.n	800087a <__aeabi_dmul+0x24a>

08000a54 <__gedf2>:
 8000a54:	f04f 3cff 	mov.w	ip, #4294967295
 8000a58:	e006      	b.n	8000a68 <__cmpdf2+0x4>
 8000a5a:	bf00      	nop

08000a5c <__ledf2>:
 8000a5c:	f04f 0c01 	mov.w	ip, #1
 8000a60:	e002      	b.n	8000a68 <__cmpdf2+0x4>
 8000a62:	bf00      	nop

08000a64 <__cmpdf2>:
 8000a64:	f04f 0c01 	mov.w	ip, #1
 8000a68:	f84d cd04 	str.w	ip, [sp, #-4]!
 8000a6c:	ea4f 0c41 	mov.w	ip, r1, lsl #1
 8000a70:	ea7f 5c6c 	mvns.w	ip, ip, asr #21
 8000a74:	ea4f 0c43 	mov.w	ip, r3, lsl #1
 8000a78:	bf18      	it	ne
 8000a7a:	ea7f 5c6c 	mvnsne.w	ip, ip, asr #21
 8000a7e:	d01b      	beq.n	8000ab8 <__cmpdf2+0x54>
 8000a80:	b001      	add	sp, #4
 8000a82:	ea50 0c41 	orrs.w	ip, r0, r1, lsl #1
 8000a86:	bf0c      	ite	eq
 8000a88:	ea52 0c43 	orrseq.w	ip, r2, r3, lsl #1
 8000a8c:	ea91 0f03 	teqne	r1, r3
 8000a90:	bf02      	ittt	eq
 8000a92:	ea90 0f02 	teqeq	r0, r2
 8000a96:	2000      	moveq	r0, #0
 8000a98:	4770      	bxeq	lr
 8000a9a:	f110 0f00 	cmn.w	r0, #0
 8000a9e:	ea91 0f03 	teq	r1, r3
 8000aa2:	bf58      	it	pl
 8000aa4:	4299      	cmppl	r1, r3
 8000aa6:	bf08      	it	eq
 8000aa8:	4290      	cmpeq	r0, r2
 8000aaa:	bf2c      	ite	cs
 8000aac:	17d8      	asrcs	r0, r3, #31
 8000aae:	ea6f 70e3 	mvncc.w	r0, r3, asr #31
 8000ab2:	f040 0001 	orr.w	r0, r0, #1
 8000ab6:	4770      	bx	lr
 8000ab8:	ea4f 0c41 	mov.w	ip, r1, lsl #1
 8000abc:	ea7f 5c6c 	mvns.w	ip, ip, asr #21
 8000ac0:	d102      	bne.n	8000ac8 <__cmpdf2+0x64>
 8000ac2:	ea50 3c01 	orrs.w	ip, r0, r1, lsl #12
 8000ac6:	d107      	bne.n	8000ad8 <__cmpdf2+0x74>
 8000ac8:	ea4f 0c43 	mov.w	ip, r3, lsl #1
 8000acc:	ea7f 5c6c 	mvns.w	ip, ip, asr #21
 8000ad0:	d1d6      	bne.n	8000a80 <__cmpdf2+0x1c>
 8000ad2:	ea52 3c03 	orrs.w	ip, r2, r3, lsl #12
 8000ad6:	d0d3      	beq.n	8000a80 <__cmpdf2+0x1c>
 8000ad8:	f85d 0b04 	ldr.w	r0, [sp], #4
 8000adc:	4770      	bx	lr
 8000ade:	bf00      	nop

08000ae0 <__aeabi_cdrcmple>:
 8000ae0:	4684      	mov	ip, r0
 8000ae2:	4610      	mov	r0, r2
 8000ae4:	4662      	mov	r2, ip
 8000ae6:	468c      	mov	ip, r1
 8000ae8:	4619      	mov	r1, r3
 8000aea:	4663      	mov	r3, ip
 8000aec:	e000      	b.n	8000af0 <__aeabi_cdcmpeq>
 8000aee:	bf00      	nop

08000af0 <__aeabi_cdcmpeq>:
 8000af0:	b501      	push	{r0, lr}
 8000af2:	f7ff ffb7 	bl	8000a64 <__cmpdf2>
 8000af6:	2800      	cmp	r0, #0
 8000af8:	bf48      	it	mi
 8000afa:	f110 0f00 	cmnmi.w	r0, #0
 8000afe:	bd01      	pop	{r0, pc}

08000b00 <__aeabi_dcmpeq>:
 8000b00:	f84d ed08 	str.w	lr, [sp, #-8]!
 8000b04:	f7ff fff4 	bl	8000af0 <__aeabi_cdcmpeq>
 8000b08:	bf0c      	ite	eq
 8000b0a:	2001      	moveq	r0, #1
 8000b0c:	2000      	movne	r0, #0
 8000b0e:	f85d fb08 	ldr.w	pc, [sp], #8
 8000b12:	bf00      	nop

08000b14 <__aeabi_dcmplt>:
 8000b14:	f84d ed08 	str.w	lr, [sp, #-8]!
 8000b18:	f7ff ffea 	bl	8000af0 <__aeabi_cdcmpeq>
 8000b1c:	bf34      	ite	cc
 8000b1e:	2001      	movcc	r0, #1
 8000b20:	2000      	movcs	r0, #0
 8000b22:	f85d fb08 	ldr.w	pc, [sp], #8
 8000b26:	bf00      	nop

08000b28 <__aeabi_dcmple>:
 8000b28:	f84d ed08 	str.w	lr, [sp, #-8]!
 8000b2c:	f7ff ffe0 	bl	8000af0 <__aeabi_cdcmpeq>
 8000b30:	bf94      	ite	ls
 8000b32:	2001      	movls	r0, #1
 8000b34:	2000      	movhi	r0, #0
 8000b36:	f85d fb08 	ldr.w	pc, [sp], #8
 8000b3a:	bf00      	nop

08000b3c <__aeabi_dcmpge>:
 8000b3c:	f84d ed08 	str.w	lr, [sp, #-8]!
 8000b40:	f7ff ffce 	bl	8000ae0 <__aeabi_cdrcmple>
 8000b44:	bf94      	ite	ls
 8000b46:	2001      	movls	r0, #1
 8000b48:	2000      	movhi	r0, #0
 8000b4a:	f85d fb08 	ldr.w	pc, [sp], #8
 8000b4e:	bf00      	nop

08000b50 <__aeabi_dcmpgt>:
 8000b50:	f84d ed08 	str.w	lr, [sp, #-8]!
 8000b54:	f7ff ffc4 	bl	8000ae0 <__aeabi_cdrcmple>
 8000b58:	bf34      	ite	cc
 8000b5a:	2001      	movcc	r0, #1
 8000b5c:	2000      	movcs	r0, #0
 8000b5e:	f85d fb08 	ldr.w	pc, [sp], #8
 8000b62:	bf00      	nop

08000b64 <__aeabi_d2iz>:
 8000b64:	ea4f 0241 	mov.w	r2, r1, lsl #1
 8000b68:	f512 1200 	adds.w	r2, r2, #2097152	; 0x200000
 8000b6c:	d215      	bcs.n	8000b9a <__aeabi_d2iz+0x36>
 8000b6e:	d511      	bpl.n	8000b94 <__aeabi_d2iz+0x30>
 8000b70:	f46f 7378 	mvn.w	r3, #992	; 0x3e0
 8000b74:	ebb3 5262 	subs.w	r2, r3, r2, asr #21
 8000b78:	d912      	bls.n	8000ba0 <__aeabi_d2iz+0x3c>
 8000b7a:	ea4f 23c1 	mov.w	r3, r1, lsl #11
 8000b7e:	f043 4300 	orr.w	r3, r3, #2147483648	; 0x80000000
 8000b82:	ea43 5350 	orr.w	r3, r3, r0, lsr #21
 8000b86:	f011 4f00 	tst.w	r1, #2147483648	; 0x80000000
 8000b8a:	fa23 f002 	lsr.w	r0, r3, r2
 8000b8e:	bf18      	it	ne
 8000b90:	4240      	negne	r0, r0
 8000b92:	4770      	bx	lr
 8000b94:	f04f 0000 	mov.w	r0, #0
 8000b98:	4770      	bx	lr
 8000b9a:	ea50 3001 	orrs.w	r0, r0, r1, lsl #12
 8000b9e:	d105      	bne.n	8000bac <__aeabi_d2iz+0x48>
 8000ba0:	f011 4000 	ands.w	r0, r1, #2147483648	; 0x80000000
 8000ba4:	bf08      	it	eq
 8000ba6:	f06f 4000 	mvneq.w	r0, #2147483648	; 0x80000000
 8000baa:	4770      	bx	lr
 8000bac:	f04f 0000 	mov.w	r0, #0
 8000bb0:	4770      	bx	lr
 8000bb2:	bf00      	nop

08000bb4 <__aeabi_d2uiz>:
 8000bb4:	004a      	lsls	r2, r1, #1
 8000bb6:	d211      	bcs.n	8000bdc <__aeabi_d2uiz+0x28>
 8000bb8:	f512 1200 	adds.w	r2, r2, #2097152	; 0x200000
 8000bbc:	d211      	bcs.n	8000be2 <__aeabi_d2uiz+0x2e>
 8000bbe:	d50d      	bpl.n	8000bdc <__aeabi_d2uiz+0x28>
 8000bc0:	f46f 7378 	mvn.w	r3, #992	; 0x3e0
 8000bc4:	ebb3 5262 	subs.w	r2, r3, r2, asr #21
 8000bc8:	d40e      	bmi.n	8000be8 <__aeabi_d2uiz+0x34>
 8000bca:	ea4f 23c1 	mov.w	r3, r1, lsl #11
 8000bce:	f043 4300 	orr.w	r3, r3, #2147483648	; 0x80000000
 8000bd2:	ea43 5350 	orr.w	r3, r3, r0, lsr #21
 8000bd6:	fa23 f002 	lsr.w	r0, r3, r2
 8000bda:	4770      	bx	lr
 8000bdc:	f04f 0000 	mov.w	r0, #0
 8000be0:	4770      	bx	lr
 8000be2:	ea50 3001 	orrs.w	r0, r0, r1, lsl #12
 8000be6:	d102      	bne.n	8000bee <__aeabi_d2uiz+0x3a>
 8000be8:	f04f 30ff 	mov.w	r0, #4294967295
 8000bec:	4770      	bx	lr
 8000bee:	f04f 0000 	mov.w	r0, #0
 8000bf2:	4770      	bx	lr

08000bf4 <__aeabi_f2uiz>:
 8000bf4:	0042      	lsls	r2, r0, #1
 8000bf6:	d20e      	bcs.n	8000c16 <__aeabi_f2uiz+0x22>
 8000bf8:	f1b2 4ffe 	cmp.w	r2, #2130706432	; 0x7f000000
 8000bfc:	d30b      	bcc.n	8000c16 <__aeabi_f2uiz+0x22>
 8000bfe:	f04f 039e 	mov.w	r3, #158	; 0x9e
 8000c02:	ebb3 6212 	subs.w	r2, r3, r2, lsr #24
 8000c06:	d409      	bmi.n	8000c1c <__aeabi_f2uiz+0x28>
 8000c08:	ea4f 2300 	mov.w	r3, r0, lsl #8
 8000c0c:	f043 4300 	orr.w	r3, r3, #2147483648	; 0x80000000
 8000c10:	fa23 f002 	lsr.w	r0, r3, r2
 8000c14:	4770      	bx	lr
 8000c16:	f04f 0000 	mov.w	r0, #0
 8000c1a:	4770      	bx	lr
 8000c1c:	f112 0f61 	cmn.w	r2, #97	; 0x61
 8000c20:	d101      	bne.n	8000c26 <__aeabi_f2uiz+0x32>
 8000c22:	0242      	lsls	r2, r0, #9
 8000c24:	d102      	bne.n	8000c2c <__aeabi_f2uiz+0x38>
 8000c26:	f04f 30ff 	mov.w	r0, #4294967295
 8000c2a:	4770      	bx	lr
 8000c2c:	f04f 0000 	mov.w	r0, #0
 8000c30:	4770      	bx	lr
 8000c32:	bf00      	nop

08000c34 <__aeabi_ldivmod>:
 8000c34:	b97b      	cbnz	r3, 8000c56 <__aeabi_ldivmod+0x22>
 8000c36:	b972      	cbnz	r2, 8000c56 <__aeabi_ldivmod+0x22>
 8000c38:	2900      	cmp	r1, #0
 8000c3a:	bfbe      	ittt	lt
 8000c3c:	2000      	movlt	r0, #0
 8000c3e:	f04f 4100 	movlt.w	r1, #2147483648	; 0x80000000
 8000c42:	e006      	blt.n	8000c52 <__aeabi_ldivmod+0x1e>
 8000c44:	bf08      	it	eq
 8000c46:	2800      	cmpeq	r0, #0
 8000c48:	bf1c      	itt	ne
 8000c4a:	f06f 4100 	mvnne.w	r1, #2147483648	; 0x80000000
 8000c4e:	f04f 30ff 	movne.w	r0, #4294967295
 8000c52:	f000 b9f9 	b.w	8001048 <__aeabi_idiv0>
 8000c56:	f1ad 0c08 	sub.w	ip, sp, #8
 8000c5a:	e96d ce04 	strd	ip, lr, [sp, #-16]!
 8000c5e:	2900      	cmp	r1, #0
 8000c60:	db09      	blt.n	8000c76 <__aeabi_ldivmod+0x42>
 8000c62:	2b00      	cmp	r3, #0
 8000c64:	db1a      	blt.n	8000c9c <__aeabi_ldivmod+0x68>
 8000c66:	f000 f885 	bl	8000d74 <__udivmoddi4>
 8000c6a:	f8dd e004 	ldr.w	lr, [sp, #4]
 8000c6e:	e9dd 2302 	ldrd	r2, r3, [sp, #8]
 8000c72:	b004      	add	sp, #16
 8000c74:	4770      	bx	lr
 8000c76:	4240      	negs	r0, r0
 8000c78:	eb61 0141 	sbc.w	r1, r1, r1, lsl #1
 8000c7c:	2b00      	cmp	r3, #0
 8000c7e:	db1b      	blt.n	8000cb8 <__aeabi_ldivmod+0x84>
 8000c80:	f000 f878 	bl	8000d74 <__udivmoddi4>
 8000c84:	f8dd e004 	ldr.w	lr, [sp, #4]
 8000c88:	e9dd 2302 	ldrd	r2, r3, [sp, #8]
 8000c8c:	b004      	add	sp, #16
 8000c8e:	4240      	negs	r0, r0
 8000c90:	eb61 0141 	sbc.w	r1, r1, r1, lsl #1
 8000c94:	4252      	negs	r2, r2
 8000c96:	eb63 0343 	sbc.w	r3, r3, r3, lsl #1
 8000c9a:	4770      	bx	lr
 8000c9c:	4252      	negs	r2, r2
 8000c9e:	eb63 0343 	sbc.w	r3, r3, r3, lsl #1
 8000ca2:	f000 f867 	bl	8000d74 <__udivmoddi4>
 8000ca6:	f8dd e004 	ldr.w	lr, [sp, #4]
 8000caa:	e9dd 2302 	ldrd	r2, r3, [sp, #8]
 8000cae:	b004      	add	sp, #16
 8000cb0:	4240      	negs	r0, r0
 8000cb2:	eb61 0141 	sbc.w	r1, r1, r1, lsl #1
 8000cb6:	4770      	bx	lr
 8000cb8:	4252      	negs	r2, r2
 8000cba:	eb63 0343 	sbc.w	r3, r3, r3, lsl #1
 8000cbe:	f000 f859 	bl	8000d74 <__udivmoddi4>
 8000cc2:	f8dd e004 	ldr.w	lr, [sp, #4]
 8000cc6:	e9dd 2302 	ldrd	r2, r3, [sp, #8]
 8000cca:	b004      	add	sp, #16
 8000ccc:	4252      	negs	r2, r2
 8000cce:	eb63 0343 	sbc.w	r3, r3, r3, lsl #1
 8000cd2:	4770      	bx	lr

08000cd4 <__aeabi_uldivmod>:
 8000cd4:	b953      	cbnz	r3, 8000cec <__aeabi_uldivmod+0x18>
 8000cd6:	b94a      	cbnz	r2, 8000cec <__aeabi_uldivmod+0x18>
 8000cd8:	2900      	cmp	r1, #0
 8000cda:	bf08      	it	eq
 8000cdc:	2800      	cmpeq	r0, #0
 8000cde:	bf1c      	itt	ne
 8000ce0:	f04f 31ff 	movne.w	r1, #4294967295
 8000ce4:	f04f 30ff 	movne.w	r0, #4294967295
 8000ce8:	f000 b9ae 	b.w	8001048 <__aeabi_idiv0>
 8000cec:	f1ad 0c08 	sub.w	ip, sp, #8
 8000cf0:	e96d ce04 	strd	ip, lr, [sp, #-16]!
 8000cf4:	f000 f83e 	bl	8000d74 <__udivmoddi4>
 8000cf8:	f8dd e004 	ldr.w	lr, [sp, #4]
 8000cfc:	e9dd 2302 	ldrd	r2, r3, [sp, #8]
 8000d00:	b004      	add	sp, #16
 8000d02:	4770      	bx	lr

08000d04 <__aeabi_d2lz>:
 8000d04:	b538      	push	{r3, r4, r5, lr}
 8000d06:	4605      	mov	r5, r0
 8000d08:	460c      	mov	r4, r1
 8000d0a:	2200      	movs	r2, #0
 8000d0c:	2300      	movs	r3, #0
 8000d0e:	4628      	mov	r0, r5
 8000d10:	4621      	mov	r1, r4
 8000d12:	f7ff feff 	bl	8000b14 <__aeabi_dcmplt>
 8000d16:	b928      	cbnz	r0, 8000d24 <__aeabi_d2lz+0x20>
 8000d18:	4628      	mov	r0, r5
 8000d1a:	4621      	mov	r1, r4
 8000d1c:	e8bd 4038 	ldmia.w	sp!, {r3, r4, r5, lr}
 8000d20:	f000 b80a 	b.w	8000d38 <__aeabi_d2ulz>
 8000d24:	4628      	mov	r0, r5
 8000d26:	f104 4100 	add.w	r1, r4, #2147483648	; 0x80000000
 8000d2a:	f000 f805 	bl	8000d38 <__aeabi_d2ulz>
 8000d2e:	4240      	negs	r0, r0
 8000d30:	eb61 0141 	sbc.w	r1, r1, r1, lsl #1
 8000d34:	bd38      	pop	{r3, r4, r5, pc}
 8000d36:	bf00      	nop

08000d38 <__aeabi_d2ulz>:
 8000d38:	b5d0      	push	{r4, r6, r7, lr}
 8000d3a:	2200      	movs	r2, #0
 8000d3c:	4b0b      	ldr	r3, [pc, #44]	; (8000d6c <__aeabi_d2ulz+0x34>)
 8000d3e:	4606      	mov	r6, r0
 8000d40:	460f      	mov	r7, r1
 8000d42:	f7ff fc75 	bl	8000630 <__aeabi_dmul>
 8000d46:	f7ff ff35 	bl	8000bb4 <__aeabi_d2uiz>
 8000d4a:	4604      	mov	r4, r0
 8000d4c:	f7ff fbf6 	bl	800053c <__aeabi_ui2d>
 8000d50:	2200      	movs	r2, #0
 8000d52:	4b07      	ldr	r3, [pc, #28]	; (8000d70 <__aeabi_d2ulz+0x38>)
 8000d54:	f7ff fc6c 	bl	8000630 <__aeabi_dmul>
 8000d58:	4602      	mov	r2, r0
 8000d5a:	460b      	mov	r3, r1
 8000d5c:	4630      	mov	r0, r6
 8000d5e:	4639      	mov	r1, r7
 8000d60:	f7ff faae 	bl	80002c0 <__aeabi_dsub>
 8000d64:	f7ff ff26 	bl	8000bb4 <__aeabi_d2uiz>
 8000d68:	4621      	mov	r1, r4
 8000d6a:	bdd0      	pop	{r4, r6, r7, pc}
 8000d6c:	3df00000 	.word	0x3df00000
 8000d70:	41f00000 	.word	0x41f00000

08000d74 <__udivmoddi4>:
 8000d74:	e92d 47f0 	stmdb	sp!, {r4, r5, r6, r7, r8, r9, sl, lr}
 8000d78:	9e08      	ldr	r6, [sp, #32]
 8000d7a:	460d      	mov	r5, r1
 8000d7c:	4604      	mov	r4, r0
 8000d7e:	4688      	mov	r8, r1
 8000d80:	2b00      	cmp	r3, #0
 8000d82:	d14d      	bne.n	8000e20 <__udivmoddi4+0xac>
 8000d84:	428a      	cmp	r2, r1
 8000d86:	4694      	mov	ip, r2
 8000d88:	d968      	bls.n	8000e5c <__udivmoddi4+0xe8>
 8000d8a:	fab2 f282 	clz	r2, r2
 8000d8e:	b152      	cbz	r2, 8000da6 <__udivmoddi4+0x32>
 8000d90:	fa01 f302 	lsl.w	r3, r1, r2
 8000d94:	f1c2 0120 	rsb	r1, r2, #32
 8000d98:	fa20 f101 	lsr.w	r1, r0, r1
 8000d9c:	fa0c fc02 	lsl.w	ip, ip, r2
 8000da0:	ea41 0803 	orr.w	r8, r1, r3
 8000da4:	4094      	lsls	r4, r2
 8000da6:	ea4f 411c 	mov.w	r1, ip, lsr #16
 8000daa:	fbb8 f7f1 	udiv	r7, r8, r1
 8000dae:	fa1f fe8c 	uxth.w	lr, ip
 8000db2:	fb01 8817 	mls	r8, r1, r7, r8
 8000db6:	fb07 f00e 	mul.w	r0, r7, lr
 8000dba:	0c23      	lsrs	r3, r4, #16
 8000dbc:	ea43 4308 	orr.w	r3, r3, r8, lsl #16
 8000dc0:	4298      	cmp	r0, r3
 8000dc2:	d90a      	bls.n	8000dda <__udivmoddi4+0x66>
 8000dc4:	eb1c 0303 	adds.w	r3, ip, r3
 8000dc8:	f107 35ff 	add.w	r5, r7, #4294967295
 8000dcc:	f080 811e 	bcs.w	800100c <__udivmoddi4+0x298>
 8000dd0:	4298      	cmp	r0, r3
 8000dd2:	f240 811b 	bls.w	800100c <__udivmoddi4+0x298>
 8000dd6:	3f02      	subs	r7, #2
 8000dd8:	4463      	add	r3, ip
 8000dda:	1a1b      	subs	r3, r3, r0
 8000ddc:	fbb3 f0f1 	udiv	r0, r3, r1
 8000de0:	fb01 3310 	mls	r3, r1, r0, r3
 8000de4:	fb00 fe0e 	mul.w	lr, r0, lr
 8000de8:	b2a4      	uxth	r4, r4
 8000dea:	ea44 4403 	orr.w	r4, r4, r3, lsl #16
 8000dee:	45a6      	cmp	lr, r4
 8000df0:	d90a      	bls.n	8000e08 <__udivmoddi4+0x94>
 8000df2:	eb1c 0404 	adds.w	r4, ip, r4
 8000df6:	f100 33ff 	add.w	r3, r0, #4294967295
 8000dfa:	f080 8109 	bcs.w	8001010 <__udivmoddi4+0x29c>
 8000dfe:	45a6      	cmp	lr, r4
 8000e00:	f240 8106 	bls.w	8001010 <__udivmoddi4+0x29c>
 8000e04:	4464      	add	r4, ip
 8000e06:	3802      	subs	r0, #2
 8000e08:	2100      	movs	r1, #0
 8000e0a:	eba4 040e 	sub.w	r4, r4, lr
 8000e0e:	ea40 4007 	orr.w	r0, r0, r7, lsl #16
 8000e12:	b11e      	cbz	r6, 8000e1c <__udivmoddi4+0xa8>
 8000e14:	2300      	movs	r3, #0
 8000e16:	40d4      	lsrs	r4, r2
 8000e18:	e9c6 4300 	strd	r4, r3, [r6]
 8000e1c:	e8bd 87f0 	ldmia.w	sp!, {r4, r5, r6, r7, r8, r9, sl, pc}
 8000e20:	428b      	cmp	r3, r1
 8000e22:	d908      	bls.n	8000e36 <__udivmoddi4+0xc2>
 8000e24:	2e00      	cmp	r6, #0
 8000e26:	f000 80ee 	beq.w	8001006 <__udivmoddi4+0x292>
 8000e2a:	2100      	movs	r1, #0
 8000e2c:	e9c6 0500 	strd	r0, r5, [r6]
 8000e30:	4608      	mov	r0, r1
 8000e32:	e8bd 87f0 	ldmia.w	sp!, {r4, r5, r6, r7, r8, r9, sl, pc}
 8000e36:	fab3 f183 	clz	r1, r3
 8000e3a:	2900      	cmp	r1, #0
 8000e3c:	d14a      	bne.n	8000ed4 <__udivmoddi4+0x160>
 8000e3e:	42ab      	cmp	r3, r5
 8000e40:	d302      	bcc.n	8000e48 <__udivmoddi4+0xd4>
 8000e42:	4282      	cmp	r2, r0
 8000e44:	f200 80fc 	bhi.w	8001040 <__udivmoddi4+0x2cc>
 8000e48:	1a84      	subs	r4, r0, r2
 8000e4a:	eb65 0303 	sbc.w	r3, r5, r3
 8000e4e:	2001      	movs	r0, #1
 8000e50:	4698      	mov	r8, r3
 8000e52:	2e00      	cmp	r6, #0
 8000e54:	d0e2      	beq.n	8000e1c <__udivmoddi4+0xa8>
 8000e56:	e9c6 4800 	strd	r4, r8, [r6]
 8000e5a:	e7df      	b.n	8000e1c <__udivmoddi4+0xa8>
 8000e5c:	b902      	cbnz	r2, 8000e60 <__udivmoddi4+0xec>
 8000e5e:	deff      	udf	#255	; 0xff
 8000e60:	fab2 f282 	clz	r2, r2
 8000e64:	2a00      	cmp	r2, #0
 8000e66:	f040 8091 	bne.w	8000f8c <__udivmoddi4+0x218>
 8000e6a:	eba1 000c 	sub.w	r0, r1, ip
 8000e6e:	2101      	movs	r1, #1
 8000e70:	ea4f 471c 	mov.w	r7, ip, lsr #16
 8000e74:	fa1f fe8c 	uxth.w	lr, ip
 8000e78:	fbb0 f3f7 	udiv	r3, r0, r7
 8000e7c:	fb07 0013 	mls	r0, r7, r3, r0
 8000e80:	0c25      	lsrs	r5, r4, #16
 8000e82:	ea45 4500 	orr.w	r5, r5, r0, lsl #16
 8000e86:	fb0e f003 	mul.w	r0, lr, r3
 8000e8a:	42a8      	cmp	r0, r5
 8000e8c:	d908      	bls.n	8000ea0 <__udivmoddi4+0x12c>
 8000e8e:	eb1c 0505 	adds.w	r5, ip, r5
 8000e92:	f103 38ff 	add.w	r8, r3, #4294967295
 8000e96:	d202      	bcs.n	8000e9e <__udivmoddi4+0x12a>
 8000e98:	42a8      	cmp	r0, r5
 8000e9a:	f200 80ce 	bhi.w	800103a <__udivmoddi4+0x2c6>
 8000e9e:	4643      	mov	r3, r8
 8000ea0:	1a2d      	subs	r5, r5, r0
 8000ea2:	fbb5 f0f7 	udiv	r0, r5, r7
 8000ea6:	fb07 5510 	mls	r5, r7, r0, r5
 8000eaa:	fb0e fe00 	mul.w	lr, lr, r0
 8000eae:	b2a4      	uxth	r4, r4
 8000eb0:	ea44 4405 	orr.w	r4, r4, r5, lsl #16
 8000eb4:	45a6      	cmp	lr, r4
 8000eb6:	d908      	bls.n	8000eca <__udivmoddi4+0x156>
 8000eb8:	eb1c 0404 	adds.w	r4, ip, r4
 8000ebc:	f100 35ff 	add.w	r5, r0, #4294967295
 8000ec0:	d202      	bcs.n	8000ec8 <__udivmoddi4+0x154>
 8000ec2:	45a6      	cmp	lr, r4
 8000ec4:	f200 80b6 	bhi.w	8001034 <__udivmoddi4+0x2c0>
 8000ec8:	4628      	mov	r0, r5
 8000eca:	eba4 040e 	sub.w	r4, r4, lr
 8000ece:	ea40 4003 	orr.w	r0, r0, r3, lsl #16
 8000ed2:	e79e      	b.n	8000e12 <__udivmoddi4+0x9e>
 8000ed4:	f1c1 0720 	rsb	r7, r1, #32
 8000ed8:	408b      	lsls	r3, r1
 8000eda:	fa22 fc07 	lsr.w	ip, r2, r7
 8000ede:	ea4c 0c03 	orr.w	ip, ip, r3
 8000ee2:	fa25 fa07 	lsr.w	sl, r5, r7
 8000ee6:	ea4f 491c 	mov.w	r9, ip, lsr #16
 8000eea:	fbba f8f9 	udiv	r8, sl, r9
 8000eee:	fa20 f307 	lsr.w	r3, r0, r7
 8000ef2:	fb09 aa18 	mls	sl, r9, r8, sl
 8000ef6:	408d      	lsls	r5, r1
 8000ef8:	fa1f fe8c 	uxth.w	lr, ip
 8000efc:	431d      	orrs	r5, r3
 8000efe:	fa00 f301 	lsl.w	r3, r0, r1
 8000f02:	fb08 f00e 	mul.w	r0, r8, lr
 8000f06:	0c2c      	lsrs	r4, r5, #16
 8000f08:	ea44 440a 	orr.w	r4, r4, sl, lsl #16
 8000f0c:	42a0      	cmp	r0, r4
 8000f0e:	fa02 f201 	lsl.w	r2, r2, r1
 8000f12:	d90b      	bls.n	8000f2c <__udivmoddi4+0x1b8>
 8000f14:	eb1c 0404 	adds.w	r4, ip, r4
 8000f18:	f108 3aff 	add.w	sl, r8, #4294967295
 8000f1c:	f080 8088 	bcs.w	8001030 <__udivmoddi4+0x2bc>
 8000f20:	42a0      	cmp	r0, r4
 8000f22:	f240 8085 	bls.w	8001030 <__udivmoddi4+0x2bc>
 8000f26:	f1a8 0802 	sub.w	r8, r8, #2
 8000f2a:	4464      	add	r4, ip
 8000f2c:	1a24      	subs	r4, r4, r0
 8000f2e:	fbb4 f0f9 	udiv	r0, r4, r9
 8000f32:	fb09 4410 	mls	r4, r9, r0, r4
 8000f36:	fb00 fe0e 	mul.w	lr, r0, lr
 8000f3a:	b2ad      	uxth	r5, r5
 8000f3c:	ea45 4404 	orr.w	r4, r5, r4, lsl #16
 8000f40:	45a6      	cmp	lr, r4
 8000f42:	d908      	bls.n	8000f56 <__udivmoddi4+0x1e2>
 8000f44:	eb1c 0404 	adds.w	r4, ip, r4
 8000f48:	f100 35ff 	add.w	r5, r0, #4294967295
 8000f4c:	d26c      	bcs.n	8001028 <__udivmoddi4+0x2b4>
 8000f4e:	45a6      	cmp	lr, r4
 8000f50:	d96a      	bls.n	8001028 <__udivmoddi4+0x2b4>
 8000f52:	3802      	subs	r0, #2
 8000f54:	4464      	add	r4, ip
 8000f56:	ea40 4008 	orr.w	r0, r0, r8, lsl #16
 8000f5a:	fba0 9502 	umull	r9, r5, r0, r2
 8000f5e:	eba4 040e 	sub.w	r4, r4, lr
 8000f62:	42ac      	cmp	r4, r5
 8000f64:	46c8      	mov	r8, r9
 8000f66:	46ae      	mov	lr, r5
 8000f68:	d356      	bcc.n	8001018 <__udivmoddi4+0x2a4>
 8000f6a:	d053      	beq.n	8001014 <__udivmoddi4+0x2a0>
 8000f6c:	2e00      	cmp	r6, #0
 8000f6e:	d069      	beq.n	8001044 <__udivmoddi4+0x2d0>
 8000f70:	ebb3 0208 	subs.w	r2, r3, r8
 8000f74:	eb64 040e 	sbc.w	r4, r4, lr
 8000f78:	fa22 f301 	lsr.w	r3, r2, r1
 8000f7c:	fa04 f707 	lsl.w	r7, r4, r7
 8000f80:	431f      	orrs	r7, r3
 8000f82:	40cc      	lsrs	r4, r1
 8000f84:	e9c6 7400 	strd	r7, r4, [r6]
 8000f88:	2100      	movs	r1, #0
 8000f8a:	e747      	b.n	8000e1c <__udivmoddi4+0xa8>
 8000f8c:	fa0c fc02 	lsl.w	ip, ip, r2
 8000f90:	f1c2 0120 	rsb	r1, r2, #32
 8000f94:	fa25 f301 	lsr.w	r3, r5, r1
 8000f98:	ea4f 471c 	mov.w	r7, ip, lsr #16
 8000f9c:	fa20 f101 	lsr.w	r1, r0, r1
 8000fa0:	4095      	lsls	r5, r2
 8000fa2:	430d      	orrs	r5, r1
 8000fa4:	fbb3 f1f7 	udiv	r1, r3, r7
 8000fa8:	fb07 3311 	mls	r3, r7, r1, r3
 8000fac:	fa1f fe8c 	uxth.w	lr, ip
 8000fb0:	0c28      	lsrs	r0, r5, #16
 8000fb2:	ea40 4003 	orr.w	r0, r0, r3, lsl #16
 8000fb6:	fb01 f30e 	mul.w	r3, r1, lr
 8000fba:	4283      	cmp	r3, r0
 8000fbc:	fa04 f402 	lsl.w	r4, r4, r2
 8000fc0:	d908      	bls.n	8000fd4 <__udivmoddi4+0x260>
 8000fc2:	eb1c 0000 	adds.w	r0, ip, r0
 8000fc6:	f101 38ff 	add.w	r8, r1, #4294967295
 8000fca:	d22f      	bcs.n	800102c <__udivmoddi4+0x2b8>
 8000fcc:	4283      	cmp	r3, r0
 8000fce:	d92d      	bls.n	800102c <__udivmoddi4+0x2b8>
 8000fd0:	3902      	subs	r1, #2
 8000fd2:	4460      	add	r0, ip
 8000fd4:	1ac0      	subs	r0, r0, r3
 8000fd6:	fbb0 f3f7 	udiv	r3, r0, r7
 8000fda:	fb07 0013 	mls	r0, r7, r3, r0
 8000fde:	b2ad      	uxth	r5, r5
 8000fe0:	ea45 4500 	orr.w	r5, r5, r0, lsl #16
 8000fe4:	fb03 f00e 	mul.w	r0, r3, lr
 8000fe8:	42a8      	cmp	r0, r5
 8000fea:	d908      	bls.n	8000ffe <__udivmoddi4+0x28a>
 8000fec:	eb1c 0505 	adds.w	r5, ip, r5
 8000ff0:	f103 38ff 	add.w	r8, r3, #4294967295
 8000ff4:	d216      	bcs.n	8001024 <__udivmoddi4+0x2b0>
 8000ff6:	42a8      	cmp	r0, r5
 8000ff8:	d914      	bls.n	8001024 <__udivmoddi4+0x2b0>
 8000ffa:	3b02      	subs	r3, #2
 8000ffc:	4465      	add	r5, ip
 8000ffe:	1a28      	subs	r0, r5, r0
 8001000:	ea43 4101 	orr.w	r1, r3, r1, lsl #16
 8001004:	e738      	b.n	8000e78 <__udivmoddi4+0x104>
 8001006:	4631      	mov	r1, r6
 8001008:	4630      	mov	r0, r6
 800100a:	e707      	b.n	8000e1c <__udivmoddi4+0xa8>
 800100c:	462f      	mov	r7, r5
 800100e:	e6e4      	b.n	8000dda <__udivmoddi4+0x66>
 8001010:	4618      	mov	r0, r3
 8001012:	e6f9      	b.n	8000e08 <__udivmoddi4+0x94>
 8001014:	454b      	cmp	r3, r9
 8001016:	d2a9      	bcs.n	8000f6c <__udivmoddi4+0x1f8>
 8001018:	ebb9 0802 	subs.w	r8, r9, r2
 800101c:	eb65 0e0c 	sbc.w	lr, r5, ip
 8001020:	3801      	subs	r0, #1
 8001022:	e7a3      	b.n	8000f6c <__udivmoddi4+0x1f8>
 8001024:	4643      	mov	r3, r8
 8001026:	e7ea      	b.n	8000ffe <__udivmoddi4+0x28a>
 8001028:	4628      	mov	r0, r5
 800102a:	e794      	b.n	8000f56 <__udivmoddi4+0x1e2>
 800102c:	4641      	mov	r1, r8
 800102e:	e7d1      	b.n	8000fd4 <__udivmoddi4+0x260>
 8001030:	46d0      	mov	r8, sl
 8001032:	e77b      	b.n	8000f2c <__udivmoddi4+0x1b8>
 8001034:	4464      	add	r4, ip
 8001036:	3802      	subs	r0, #2
 8001038:	e747      	b.n	8000eca <__udivmoddi4+0x156>
 800103a:	3b02      	subs	r3, #2
 800103c:	4465      	add	r5, ip
 800103e:	e72f      	b.n	8000ea0 <__udivmoddi4+0x12c>
 8001040:	4608      	mov	r0, r1
 8001042:	e706      	b.n	8000e52 <__udivmoddi4+0xde>
 8001044:	4631      	mov	r1, r6
 8001046:	e6e9      	b.n	8000e1c <__udivmoddi4+0xa8>

08001048 <__aeabi_idiv0>:
 8001048:	4770      	bx	lr
 800104a:	bf00      	nop

0800104c <homing_eje>:
 800104c:	e92d 4ff1 	stmdb	sp!, {r0, r4, r5, r6, r7, r8, r9, sl, fp, lr}
 8001050:	4604      	mov	r4, r0
 8001052:	8e03      	ldrh	r3, [r0, #48]	; 0x30
 8001054:	6900      	ldr	r0, [r0, #16]
 8001056:	460f      	mov	r7, r1
 8001058:	4358      	muls	r0, r3
 800105a:	f7ff fa6f 	bl	800053c <__aeabi_ui2d>
 800105e:	e9d4 2308 	ldrd	r2, r3, [r4, #32]
 8001062:	f7ff fae5 	bl	8000630 <__aeabi_dmul>
 8001066:	4b52      	ldr	r3, [pc, #328]	; (80011b0 <homing_eje+0x164>)
 8001068:	2200      	movs	r2, #0
 800106a:	f7ff fc0b 	bl	8000884 <__aeabi_ddiv>
 800106e:	f7ff fda1 	bl	8000bb4 <__aeabi_d2uiz>
 8001072:	2804      	cmp	r0, #4
 8001074:	bf88      	it	hi
 8001076:	2605      	movhi	r6, #5
 8001078:	f894 3029 	ldrb.w	r3, [r4, #41]	; 0x29
 800107c:	4605      	mov	r5, r0
 800107e:	bf8c      	ite	hi
 8001080:	fbb0 f6f6 	udivhi	r6, r0, r6
 8001084:	2601      	movls	r6, #1
 8001086:	2b00      	cmp	r3, #0
 8001088:	f000 808e 	beq.w	80011a8 <homing_eje+0x15c>
 800108c:	f894 202a 	ldrb.w	r2, [r4, #42]	; 0x2a
 8001090:	f8b4 1040 	ldrh.w	r1, [r4, #64]	; 0x40
 8001094:	f1c2 0201 	rsb	r2, r2, #1
 8001098:	4846      	ldr	r0, [pc, #280]	; (80011b4 <homing_eje+0x168>)
 800109a:	b2d2      	uxtb	r2, r2
 800109c:	f003 f806 	bl	80040ac <HAL_GPIO_WritePin>
 80010a0:	f894 3028 	ldrb.w	r3, [r4, #40]	; 0x28
 80010a4:	b123      	cbz	r3, 80010b0 <homing_eje+0x64>
 80010a6:	f8b4 1040 	ldrh.w	r1, [r4, #64]	; 0x40
 80010aa:	4842      	ldr	r0, [pc, #264]	; (80011b4 <homing_eje+0x168>)
 80010ac:	f003 f803 	bl	80040b6 <HAL_GPIO_TogglePin>
 80010b0:	f04f 0800 	mov.w	r8, #0
 80010b4:	f24c 3b50 	movw	fp, #50000	; 0xc350
 80010b8:	f8df a0fc 	ldr.w	sl, [pc, #252]	; 80011b8 <homing_eje+0x16c>
 80010bc:	f8df 90f4 	ldr.w	r9, [pc, #244]	; 80011b4 <homing_eje+0x168>
 80010c0:	4650      	mov	r0, sl
 80010c2:	f8b4 1044 	ldrh.w	r1, [r4, #68]	; 0x44
 80010c6:	f002 ffeb 	bl	80040a0 <HAL_GPIO_ReadPin>
 80010ca:	2800      	cmp	r0, #0
 80010cc:	d03b      	beq.n	8001146 <homing_eje+0xfa>
 80010ce:	4d3b      	ldr	r5, [pc, #236]	; (80011bc <homing_eje+0x170>)
 80010d0:	bf00      	nop
 80010d2:	bf00      	nop
 80010d4:	3d01      	subs	r5, #1
 80010d6:	d1fb      	bne.n	80010d0 <homing_eje+0x84>
 80010d8:	f8b4 1040 	ldrh.w	r1, [r4, #64]	; 0x40
 80010dc:	4835      	ldr	r0, [pc, #212]	; (80011b4 <homing_eje+0x168>)
 80010de:	f002 ffea 	bl	80040b6 <HAL_GPIO_TogglePin>
 80010e2:	f24c 3a50 	movw	sl, #50000	; 0xc350
 80010e6:	f8df 90d0 	ldr.w	r9, [pc, #208]	; 80011b8 <homing_eje+0x16c>
 80010ea:	f8df 80c8 	ldr.w	r8, [pc, #200]	; 80011b4 <homing_eje+0x168>
 80010ee:	4648      	mov	r0, r9
 80010f0:	f8b4 1044 	ldrh.w	r1, [r4, #68]	; 0x44
 80010f4:	f002 ffd4 	bl	80040a0 <HAL_GPIO_ReadPin>
 80010f8:	2800      	cmp	r0, #0
 80010fa:	d13f      	bne.n	800117c <homing_eje+0x130>
 80010fc:	4b2f      	ldr	r3, [pc, #188]	; (80011bc <homing_eje+0x170>)
 80010fe:	bf00      	nop
 8001100:	bf00      	nop
 8001102:	3b01      	subs	r3, #1
 8001104:	d1fb      	bne.n	80010fe <homing_eje+0xb2>
 8001106:	8de0      	ldrh	r0, [r4, #46]	; 0x2e
 8001108:	f7ff fa28 	bl	800055c <__aeabi_i2d>
 800110c:	e9d4 2308 	ldrd	r2, r3, [r4, #32]
 8001110:	f7ff fa8e 	bl	8000630 <__aeabi_dmul>
 8001114:	f7ff fdf6 	bl	8000d04 <__aeabi_d2lz>
 8001118:	f894 302a 	ldrb.w	r3, [r4, #42]	; 0x2a
 800111c:	e9c4 0102 	strd	r0, r1, [r4, #8]
 8001120:	b923      	cbnz	r3, 800112c <homing_eje+0xe0>
 8001122:	4240      	negs	r0, r0
 8001124:	eb61 0141 	sbc.w	r1, r1, r1, lsl #1
 8001128:	e9c4 0102 	strd	r0, r1, [r4, #8]
 800112c:	2200      	movs	r2, #0
 800112e:	2300      	movs	r3, #0
 8001130:	e9c4 2300 	strd	r2, r3, [r4]
 8001134:	2200      	movs	r2, #0
 8001136:	2300      	movs	r3, #0
 8001138:	4610      	mov	r0, r2
 800113a:	4619      	mov	r1, r3
 800113c:	b001      	add	sp, #4
 800113e:	e8bd 4ff0 	ldmia.w	sp!, {r4, r5, r6, r7, r8, r9, sl, fp, lr}
 8001142:	f001 bd61 	b.w	8002c08 <run_motores>
 8001146:	fb05 f308 	mul.w	r3, r5, r8
 800114a:	455b      	cmp	r3, fp
 800114c:	d907      	bls.n	800115e <homing_eje+0x112>
 800114e:	4680      	mov	r8, r0
 8001150:	f8d9 200c 	ldr.w	r2, [r9, #12]
 8001154:	f8b4 3042 	ldrh.w	r3, [r4, #66]	; 0x42
 8001158:	4313      	orrs	r3, r2
 800115a:	f8c9 300c 	str.w	r3, [r9, #12]
 800115e:	2364      	movs	r3, #100	; 0x64
 8001160:	f108 0801 	add.w	r8, r8, #1
 8001164:	bf00      	nop
 8001166:	3b01      	subs	r3, #1
 8001168:	d1fc      	bne.n	8001164 <homing_eje+0x118>
 800116a:	f8d9 300c 	ldr.w	r3, [r9, #12]
 800116e:	f8b4 2042 	ldrh.w	r2, [r4, #66]	; 0x42
 8001172:	ea23 0302 	bic.w	r3, r3, r2
 8001176:	f8c9 300c 	str.w	r3, [r9, #12]
 800117a:	e7a1      	b.n	80010c0 <homing_eje+0x74>
 800117c:	fb05 f306 	mul.w	r3, r5, r6
 8001180:	4553      	cmp	r3, sl
 8001182:	bf81      	itttt	hi
 8001184:	f8d8 300c 	ldrhi.w	r3, [r8, #12]
 8001188:	2500      	movhi	r5, #0
 800118a:	433b      	orrhi	r3, r7
 800118c:	f8c8 300c 	strhi.w	r3, [r8, #12]
 8001190:	2364      	movs	r3, #100	; 0x64
 8001192:	3501      	adds	r5, #1
 8001194:	bf00      	nop
 8001196:	3b01      	subs	r3, #1
 8001198:	d1fc      	bne.n	8001194 <homing_eje+0x148>
 800119a:	f8d8 300c 	ldr.w	r3, [r8, #12]
 800119e:	ea23 0307 	bic.w	r3, r3, r7
 80011a2:	f8c8 300c 	str.w	r3, [r8, #12]
 80011a6:	e7a2      	b.n	80010ee <homing_eje+0xa2>
 80011a8:	b001      	add	sp, #4
 80011aa:	e8bd 8ff0 	ldmia.w	sp!, {r4, r5, r6, r7, r8, r9, sl, fp, pc}
 80011ae:	bf00      	nop
 80011b0:	40590000 	.word	0x40590000
 80011b4:	40010c00 	.word	0x40010c00
 80011b8:	40010800 	.word	0x40010800
 80011bc:	0016e360 	.word	0x0016e360

080011c0 <home_selec_eje>:
 80011c0:	b510      	push	{r4, lr}
 80011c2:	4604      	mov	r4, r0
 80011c4:	4601      	mov	r1, r0
 80011c6:	4816      	ldr	r0, [pc, #88]	; (8001220 <home_selec_eje+0x60>)
 80011c8:	f003 ff8a 	bl	80050e0 <iprintf>
 80011cc:	2c04      	cmp	r4, #4
 80011ce:	d826      	bhi.n	800121e <home_selec_eje+0x5e>
 80011d0:	e8df f004 	tbb	[pc, r4]
 80011d4:	19120b03 	.word	0x19120b03
 80011d8:	1e          	.byte	0x1e
 80011d9:	00          	.byte	0x00
 80011da:	2310      	movs	r3, #16
 80011dc:	2202      	movs	r2, #2
 80011de:	2101      	movs	r1, #1
 80011e0:	4810      	ldr	r0, [pc, #64]	; (8001224 <home_selec_eje+0x64>)
 80011e2:	e8bd 4010 	ldmia.w	sp!, {r4, lr}
 80011e6:	f7ff bf31 	b.w	800104c <homing_eje>
 80011ea:	2308      	movs	r3, #8
 80011ec:	f44f 6200 	mov.w	r2, #2048	; 0x800
 80011f0:	f44f 6180 	mov.w	r1, #1024	; 0x400
 80011f4:	480c      	ldr	r0, [pc, #48]	; (8001228 <home_selec_eje+0x68>)
 80011f6:	e7f4      	b.n	80011e2 <home_selec_eje+0x22>
 80011f8:	2304      	movs	r3, #4
 80011fa:	f44f 5200 	mov.w	r2, #8192	; 0x2000
 80011fe:	f44f 5180 	mov.w	r1, #4096	; 0x1000
 8001202:	480a      	ldr	r0, [pc, #40]	; (800122c <home_selec_eje+0x6c>)
 8001204:	e7ed      	b.n	80011e2 <home_selec_eje+0x22>
 8001206:	2302      	movs	r3, #2
 8001208:	2210      	movs	r2, #16
 800120a:	2108      	movs	r1, #8
 800120c:	4808      	ldr	r0, [pc, #32]	; (8001230 <home_selec_eje+0x70>)
 800120e:	e7e8      	b.n	80011e2 <home_selec_eje+0x22>
 8001210:	2301      	movs	r3, #1
 8001212:	f44f 4200 	mov.w	r2, #32768	; 0x8000
 8001216:	f44f 4180 	mov.w	r1, #16384	; 0x4000
 800121a:	4806      	ldr	r0, [pc, #24]	; (8001234 <home_selec_eje+0x74>)
 800121c:	e7e1      	b.n	80011e2 <home_selec_eje+0x22>
 800121e:	bd10      	pop	{r4, pc}
 8001220:	080061c9 	.word	0x080061c9
 8001224:	20000170 	.word	0x20000170
 8001228:	200001c0 	.word	0x200001c0
 800122c:	20000210 	.word	0x20000210
 8001230:	200000a8 	.word	0x200000a8
 8001234:	200000f8 	.word	0x200000f8

08001238 <home_secuencia>:
 8001238:	e92d 4ff0 	stmdb	sp!, {r4, r5, r6, r7, r8, r9, sl, fp, lr}
 800123c:	4d4d      	ldr	r5, [pc, #308]	; (8001374 <home_secuencia+0x13c>)
 800123e:	4c4e      	ldr	r4, [pc, #312]	; (8001378 <home_secuencia+0x140>)
 8001240:	f895 302b 	ldrb.w	r3, [r5, #43]	; 0x2b
 8001244:	b08b      	sub	sp, #44	; 0x2c
 8001246:	f88d 3018 	strb.w	r3, [sp, #24]
 800124a:	f894 302b 	ldrb.w	r3, [r4, #43]	; 0x2b
 800124e:	f88d 3019 	strb.w	r3, [sp, #25]
 8001252:	4b4a      	ldr	r3, [pc, #296]	; (800137c <home_secuencia+0x144>)
 8001254:	f893 302b 	ldrb.w	r3, [r3, #43]	; 0x2b
 8001258:	f88d 301a 	strb.w	r3, [sp, #26]
 800125c:	4b48      	ldr	r3, [pc, #288]	; (8001380 <home_secuencia+0x148>)
 800125e:	f893 302b 	ldrb.w	r3, [r3, #43]	; 0x2b
 8001262:	f88d 301b 	strb.w	r3, [sp, #27]
 8001266:	4b47      	ldr	r3, [pc, #284]	; (8001384 <home_secuencia+0x14c>)
 8001268:	f893 302b 	ldrb.w	r3, [r3, #43]	; 0x2b
 800126c:	f88d 301c 	strb.w	r3, [sp, #28]
 8001270:	4b45      	ldr	r3, [pc, #276]	; (8001388 <home_secuencia+0x150>)
 8001272:	6818      	ldr	r0, [r3, #0]
 8001274:	791b      	ldrb	r3, [r3, #4]
 8001276:	9008      	str	r0, [sp, #32]
 8001278:	2005      	movs	r0, #5
 800127a:	f88d 3024 	strb.w	r3, [sp, #36]	; 0x24
 800127e:	af08      	add	r7, sp, #32
 8001280:	463b      	mov	r3, r7
 8001282:	2204      	movs	r2, #4
 8001284:	a906      	add	r1, sp, #24
 8001286:	780e      	ldrb	r6, [r1, #0]
 8001288:	f811 cf01 	ldrb.w	ip, [r1, #1]!
 800128c:	4566      	cmp	r6, ip
 800128e:	d908      	bls.n	80012a2 <home_secuencia+0x6a>
 8001290:	f801 cc01 	strb.w	ip, [r1, #-1]
 8001294:	700e      	strb	r6, [r1, #0]
 8001296:	f893 c001 	ldrb.w	ip, [r3, #1]
 800129a:	781e      	ldrb	r6, [r3, #0]
 800129c:	f883 c000 	strb.w	ip, [r3]
 80012a0:	705e      	strb	r6, [r3, #1]
 80012a2:	3a01      	subs	r2, #1
 80012a4:	f012 02ff 	ands.w	r2, r2, #255	; 0xff
 80012a8:	f103 0301 	add.w	r3, r3, #1
 80012ac:	d1eb      	bne.n	8001286 <home_secuencia+0x4e>
 80012ae:	3801      	subs	r0, #1
 80012b0:	f010 00ff 	ands.w	r0, r0, #255	; 0xff
 80012b4:	d1e3      	bne.n	800127e <home_secuencia+0x46>
 80012b6:	2605      	movs	r6, #5
 80012b8:	f817 0b01 	ldrb.w	r0, [r7], #1
 80012bc:	3e01      	subs	r6, #1
 80012be:	f7ff ff7f 	bl	80011c0 <home_selec_eje>
 80012c2:	f016 06ff 	ands.w	r6, r6, #255	; 0xff
 80012c6:	d1f7      	bne.n	80012b8 <home_secuencia+0x80>
 80012c8:	e9d5 2308 	ldrd	r2, r3, [r5, #32]
 80012cc:	e9d5 010e 	ldrd	r0, r1, [r5, #56]	; 0x38
 80012d0:	f7ff f9ae 	bl	8000630 <__aeabi_dmul>
 80012d4:	f7ff fd16 	bl	8000d04 <__aeabi_d2lz>
 80012d8:	e9d4 2308 	ldrd	r2, r3, [r4, #32]
 80012dc:	4683      	mov	fp, r0
 80012de:	9101      	str	r1, [sp, #4]
 80012e0:	60a8      	str	r0, [r5, #8]
 80012e2:	60e9      	str	r1, [r5, #12]
 80012e4:	e9d4 010e 	ldrd	r0, r1, [r4, #56]	; 0x38
 80012e8:	f7ff f9a2 	bl	8000630 <__aeabi_dmul>
 80012ec:	f7ff fd0a 	bl	8000d04 <__aeabi_d2lz>
 80012f0:	f8df 8088 	ldr.w	r8, [pc, #136]	; 800137c <home_secuencia+0x144>
 80012f4:	e9cd 0102 	strd	r0, r1, [sp, #8]
 80012f8:	e9d8 2308 	ldrd	r2, r3, [r8, #32]
 80012fc:	60a0      	str	r0, [r4, #8]
 80012fe:	60e1      	str	r1, [r4, #12]
 8001300:	e9d8 010e 	ldrd	r0, r1, [r8, #56]	; 0x38
 8001304:	f7ff f994 	bl	8000630 <__aeabi_dmul>
 8001308:	f7ff fcfc 	bl	8000d04 <__aeabi_d2lz>
 800130c:	4f1c      	ldr	r7, [pc, #112]	; (8001380 <home_secuencia+0x148>)
 800130e:	e9cd 0104 	strd	r0, r1, [sp, #16]
 8001312:	e9d7 2308 	ldrd	r2, r3, [r7, #32]
 8001316:	f8c8 0008 	str.w	r0, [r8, #8]
 800131a:	f8c8 100c 	str.w	r1, [r8, #12]
 800131e:	e9d7 010e 	ldrd	r0, r1, [r7, #56]	; 0x38
 8001322:	f7ff f985 	bl	8000630 <__aeabi_dmul>
 8001326:	f7ff fced 	bl	8000d04 <__aeabi_d2lz>
 800132a:	4e16      	ldr	r6, [pc, #88]	; (8001384 <home_secuencia+0x14c>)
 800132c:	4682      	mov	sl, r0
 800132e:	e9d6 2308 	ldrd	r2, r3, [r6, #32]
 8001332:	4689      	mov	r9, r1
 8001334:	e9c7 0102 	strd	r0, r1, [r7, #8]
 8001338:	e9d6 010e 	ldrd	r0, r1, [r6, #56]	; 0x38
 800133c:	f7ff f978 	bl	8000630 <__aeabi_dmul>
 8001340:	f7ff fce0 	bl	8000d04 <__aeabi_d2lz>
 8001344:	9b01      	ldr	r3, [sp, #4]
 8001346:	e9c6 0102 	strd	r0, r1, [r6, #8]
 800134a:	606b      	str	r3, [r5, #4]
 800134c:	9b02      	ldr	r3, [sp, #8]
 800134e:	f8c5 b000 	str.w	fp, [r5]
 8001352:	6023      	str	r3, [r4, #0]
 8001354:	9b03      	ldr	r3, [sp, #12]
 8001356:	6063      	str	r3, [r4, #4]
 8001358:	9b04      	ldr	r3, [sp, #16]
 800135a:	f8c8 3000 	str.w	r3, [r8]
 800135e:	9b05      	ldr	r3, [sp, #20]
 8001360:	f8c8 3004 	str.w	r3, [r8, #4]
 8001364:	e9c7 a900 	strd	sl, r9, [r7]
 8001368:	e9c6 0100 	strd	r0, r1, [r6]
 800136c:	b00b      	add	sp, #44	; 0x2c
 800136e:	e8bd 8ff0 	ldmia.w	sp!, {r4, r5, r6, r7, r8, r9, sl, fp, pc}
 8001372:	bf00      	nop
 8001374:	20000170 	.word	0x20000170
 8001378:	200001c0 	.word	0x200001c0
 800137c:	20000210 	.word	0x20000210
 8001380:	200000a8 	.word	0x200000a8
 8001384:	200000f8 	.word	0x200000f8
 8001388:	080061c4 	.word	0x080061c4

0800138c <home_inicio_sec>:
 800138c:	e92d 4ff0 	stmdb	sp!, {r4, r5, r6, r7, r8, r9, sl, fp, lr}
 8001390:	b087      	sub	sp, #28
 8001392:	b9e8      	cbnz	r0, 80013d0 <home_inicio_sec+0x44>
 8001394:	2200      	movs	r2, #0
 8001396:	2300      	movs	r3, #0
 8001398:	4e3b      	ldr	r6, [pc, #236]	; (8001488 <home_inicio_sec+0xfc>)
 800139a:	4d3c      	ldr	r5, [pc, #240]	; (800148c <home_inicio_sec+0x100>)
 800139c:	4c3c      	ldr	r4, [pc, #240]	; (8001490 <home_inicio_sec+0x104>)
 800139e:	483d      	ldr	r0, [pc, #244]	; (8001494 <home_inicio_sec+0x108>)
 80013a0:	493d      	ldr	r1, [pc, #244]	; (8001498 <home_inicio_sec+0x10c>)
 80013a2:	e9c6 2302 	strd	r2, r3, [r6, #8]
 80013a6:	e9c5 2302 	strd	r2, r3, [r5, #8]
 80013aa:	e9c4 2302 	strd	r2, r3, [r4, #8]
 80013ae:	e9c0 2302 	strd	r2, r3, [r0, #8]
 80013b2:	e9c1 2302 	strd	r2, r3, [r1, #8]
 80013b6:	e9c6 2300 	strd	r2, r3, [r6]
 80013ba:	e9c5 2300 	strd	r2, r3, [r5]
 80013be:	e9c4 2300 	strd	r2, r3, [r4]
 80013c2:	e9c0 2300 	strd	r2, r3, [r0]
 80013c6:	e9c1 2300 	strd	r2, r3, [r1]
 80013ca:	b007      	add	sp, #28
 80013cc:	e8bd 8ff0 	ldmia.w	sp!, {r4, r5, r6, r7, r8, r9, sl, fp, pc}
 80013d0:	2801      	cmp	r0, #1
 80013d2:	d055      	beq.n	8001480 <home_inicio_sec+0xf4>
 80013d4:	2802      	cmp	r0, #2
 80013d6:	d1f8      	bne.n	80013ca <home_inicio_sec+0x3e>
 80013d8:	f8df 80ac 	ldr.w	r8, [pc, #172]	; 8001488 <home_inicio_sec+0xfc>
 80013dc:	4f2b      	ldr	r7, [pc, #172]	; (800148c <home_inicio_sec+0x100>)
 80013de:	e9d8 2308 	ldrd	r2, r3, [r8, #32]
 80013e2:	e9d8 010e 	ldrd	r0, r1, [r8, #56]	; 0x38
 80013e6:	f7ff f923 	bl	8000630 <__aeabi_dmul>
 80013ea:	f7ff fc8b 	bl	8000d04 <__aeabi_d2lz>
 80013ee:	e9d7 2308 	ldrd	r2, r3, [r7, #32]
 80013f2:	4683      	mov	fp, r0
 80013f4:	9101      	str	r1, [sp, #4]
 80013f6:	f8c8 0008 	str.w	r0, [r8, #8]
 80013fa:	f8c8 100c 	str.w	r1, [r8, #12]
 80013fe:	e9d7 010e 	ldrd	r0, r1, [r7, #56]	; 0x38
 8001402:	f7ff f915 	bl	8000630 <__aeabi_dmul>
 8001406:	f7ff fc7d 	bl	8000d04 <__aeabi_d2lz>
 800140a:	4e21      	ldr	r6, [pc, #132]	; (8001490 <home_inicio_sec+0x104>)
 800140c:	e9cd 0102 	strd	r0, r1, [sp, #8]
 8001410:	e9d6 2308 	ldrd	r2, r3, [r6, #32]
 8001414:	60b8      	str	r0, [r7, #8]
 8001416:	60f9      	str	r1, [r7, #12]
 8001418:	e9d6 010e 	ldrd	r0, r1, [r6, #56]	; 0x38
 800141c:	f7ff f908 	bl	8000630 <__aeabi_dmul>
 8001420:	f7ff fc70 	bl	8000d04 <__aeabi_d2lz>
 8001424:	4d1b      	ldr	r5, [pc, #108]	; (8001494 <home_inicio_sec+0x108>)
 8001426:	e9cd 0104 	strd	r0, r1, [sp, #16]
 800142a:	e9d5 2308 	ldrd	r2, r3, [r5, #32]
 800142e:	60b0      	str	r0, [r6, #8]
 8001430:	60f1      	str	r1, [r6, #12]
 8001432:	e9d5 010e 	ldrd	r0, r1, [r5, #56]	; 0x38
 8001436:	f7ff f8fb 	bl	8000630 <__aeabi_dmul>
 800143a:	f7ff fc63 	bl	8000d04 <__aeabi_d2lz>
 800143e:	4c16      	ldr	r4, [pc, #88]	; (8001498 <home_inicio_sec+0x10c>)
 8001440:	4682      	mov	sl, r0
 8001442:	e9d4 2308 	ldrd	r2, r3, [r4, #32]
 8001446:	4689      	mov	r9, r1
 8001448:	e9c5 0102 	strd	r0, r1, [r5, #8]
 800144c:	e9d4 010e 	ldrd	r0, r1, [r4, #56]	; 0x38
 8001450:	f7ff f8ee 	bl	8000630 <__aeabi_dmul>
 8001454:	f7ff fc56 	bl	8000d04 <__aeabi_d2lz>
 8001458:	9b01      	ldr	r3, [sp, #4]
 800145a:	e9c4 0102 	strd	r0, r1, [r4, #8]
 800145e:	f8c8 3004 	str.w	r3, [r8, #4]
 8001462:	9b02      	ldr	r3, [sp, #8]
 8001464:	f8c8 b000 	str.w	fp, [r8]
 8001468:	603b      	str	r3, [r7, #0]
 800146a:	9b03      	ldr	r3, [sp, #12]
 800146c:	607b      	str	r3, [r7, #4]
 800146e:	9b04      	ldr	r3, [sp, #16]
 8001470:	6033      	str	r3, [r6, #0]
 8001472:	9b05      	ldr	r3, [sp, #20]
 8001474:	6073      	str	r3, [r6, #4]
 8001476:	e9c5 a900 	strd	sl, r9, [r5]
 800147a:	e9c4 0100 	strd	r0, r1, [r4]
 800147e:	e7a4      	b.n	80013ca <home_inicio_sec+0x3e>
 8001480:	f7ff feda 	bl	8001238 <home_secuencia>
 8001484:	e7a8      	b.n	80013d8 <home_inicio_sec+0x4c>
 8001486:	bf00      	nop
 8001488:	20000170 	.word	0x20000170
 800148c:	200001c0 	.word	0x200001c0
 8001490:	20000210 	.word	0x20000210
 8001494:	200000a8 	.word	0x200000a8
 8001498:	200000f8 	.word	0x200000f8

0800149c <__io_putchar>:
 800149c:	b507      	push	{r0, r1, r2, lr}
 800149e:	2364      	movs	r3, #100	; 0x64
 80014a0:	9001      	str	r0, [sp, #4]
 80014a2:	2201      	movs	r2, #1
 80014a4:	a901      	add	r1, sp, #4
 80014a6:	4803      	ldr	r0, [pc, #12]	; (80014b4 <__io_putchar+0x18>)
 80014a8:	f003 fc02 	bl	8004cb0 <HAL_UART_Transmit>
 80014ac:	9801      	ldr	r0, [sp, #4]
 80014ae:	b003      	add	sp, #12
 80014b0:	f85d fb04 	ldr.w	pc, [sp], #4
 80014b4:	20000cac 	.word	0x20000cac

080014b8 <SystemClock_Config>:
 80014b8:	b510      	push	{r4, lr}
 80014ba:	b090      	sub	sp, #64	; 0x40
 80014bc:	2214      	movs	r2, #20
 80014be:	2100      	movs	r1, #0
 80014c0:	a808      	add	r0, sp, #32
 80014c2:	f003 fe05 	bl	80050d0 <memset>
 80014c6:	2214      	movs	r2, #20
 80014c8:	2100      	movs	r1, #0
 80014ca:	a801      	add	r0, sp, #4
 80014cc:	f003 fe00 	bl	80050d0 <memset>
 80014d0:	2402      	movs	r4, #2
 80014d2:	f44f 3380 	mov.w	r3, #65536	; 0x10000
 80014d6:	2201      	movs	r2, #1
 80014d8:	e9cd 430d 	strd	r4, r3, [sp, #52]	; 0x34
 80014dc:	e9cd 2306 	strd	r2, r3, [sp, #24]
 80014e0:	f44f 13e0 	mov.w	r3, #1835008	; 0x1c0000
 80014e4:	a806      	add	r0, sp, #24
 80014e6:	920a      	str	r2, [sp, #40]	; 0x28
 80014e8:	930f      	str	r3, [sp, #60]	; 0x3c
 80014ea:	f002 fded 	bl	80040c8 <HAL_RCC_OscConfig>
 80014ee:	b108      	cbz	r0, 80014f4 <SystemClock_Config+0x3c>
 80014f0:	b672      	cpsid	i
 80014f2:	e7fe      	b.n	80014f2 <SystemClock_Config+0x3a>
 80014f4:	230f      	movs	r3, #15
 80014f6:	e9cd 3401 	strd	r3, r4, [sp, #4]
 80014fa:	f44f 6380 	mov.w	r3, #1024	; 0x400
 80014fe:	9003      	str	r0, [sp, #12]
 8001500:	e9cd 3004 	strd	r3, r0, [sp, #16]
 8001504:	4621      	mov	r1, r4
 8001506:	a801      	add	r0, sp, #4
 8001508:	f002 ffb4 	bl	8004474 <HAL_RCC_ClockConfig>
 800150c:	b108      	cbz	r0, 8001512 <SystemClock_Config+0x5a>
 800150e:	b672      	cpsid	i
 8001510:	e7fe      	b.n	8001510 <SystemClock_Config+0x58>
 8001512:	b010      	add	sp, #64	; 0x40
 8001514:	bd10      	pop	{r4, pc}
	...

08001518 <HAL_UART_RxCpltCallback>:
 8001518:	b470      	push	{r4, r5, r6}
 800151a:	4b13      	ldr	r3, [pc, #76]	; (8001568 <HAL_UART_RxCpltCallback+0x50>)
 800151c:	4913      	ldr	r1, [pc, #76]	; (800156c <HAL_UART_RxCpltCallback+0x54>)
 800151e:	781d      	ldrb	r5, [r3, #0]
 8001520:	2d0a      	cmp	r5, #10
 8001522:	d10f      	bne.n	8001544 <HAL_UART_RxCpltCallback+0x2c>
 8001524:	2000      	movs	r0, #0
 8001526:	4a12      	ldr	r2, [pc, #72]	; (8001570 <HAL_UART_RxCpltCallback+0x58>)
 8001528:	7008      	strb	r0, [r1, #0]
 800152a:	7813      	ldrb	r3, [r2, #0]
 800152c:	3301      	adds	r3, #1
 800152e:	b2db      	uxtb	r3, r3
 8001530:	2b0a      	cmp	r3, #10
 8001532:	bf94      	ite	ls
 8001534:	7013      	strbls	r3, [r2, #0]
 8001536:	7010      	strbhi	r0, [r2, #0]
 8001538:	2201      	movs	r2, #1
 800153a:	bc70      	pop	{r4, r5, r6}
 800153c:	490a      	ldr	r1, [pc, #40]	; (8001568 <HAL_UART_RxCpltCallback+0x50>)
 800153e:	480d      	ldr	r0, [pc, #52]	; (8001574 <HAL_UART_RxCpltCallback+0x5c>)
 8001540:	f003 bd83 	b.w	800504a <HAL_UART_Receive_IT>
 8001544:	780b      	ldrb	r3, [r1, #0]
 8001546:	2bff      	cmp	r3, #255	; 0xff
 8001548:	d0f6      	beq.n	8001538 <HAL_UART_RxCpltCallback+0x20>
 800154a:	240a      	movs	r4, #10
 800154c:	4a08      	ldr	r2, [pc, #32]	; (8001570 <HAL_UART_RxCpltCallback+0x58>)
 800154e:	7810      	ldrb	r0, [r2, #0]
 8001550:	4a09      	ldr	r2, [pc, #36]	; (8001578 <HAL_UART_RxCpltCallback+0x60>)
 8001552:	fb04 2603 	mla	r6, r4, r3, r2
 8001556:	3301      	adds	r3, #1
 8001558:	b2db      	uxtb	r3, r3
 800155a:	700b      	strb	r3, [r1, #0]
 800155c:	fb04 2303 	mla	r3, r4, r3, r2
 8001560:	2200      	movs	r2, #0
 8001562:	5435      	strb	r5, [r6, r0]
 8001564:	541a      	strb	r2, [r3, r0]
 8001566:	e7e7      	b.n	8001538 <HAL_UART_RxCpltCallback+0x20>
 8001568:	20000260 	.word	0x20000260
 800156c:	20000cf3 	.word	0x20000cf3
 8001570:	20000cf2 	.word	0x20000cf2
 8001574:	20000cac 	.word	0x20000cac
 8001578:	20000261 	.word	0x20000261
 800157c:	00000000 	.word	0x00000000

08001580 <vector_to_RAM>:
 8001580:	e92d 43f8 	stmdb	sp!, {r3, r4, r5, r6, r7, r8, r9, lr}
 8001584:	4caa      	ldr	r4, [pc, #680]	; (8001830 <vector_to_RAM+0x2b0>)
 8001586:	f8df 92ac 	ldr.w	r9, [pc, #684]	; 8001834 <vector_to_RAM+0x2b4>
 800158a:	6c23      	ldr	r3, [r4, #64]	; 0x40
 800158c:	f8df 82a8 	ldr.w	r8, [pc, #680]	; 8001838 <vector_to_RAM+0x2b8>
 8001590:	f8c9 3010 	str.w	r3, [r9, #16]
 8001594:	6c63      	ldr	r3, [r4, #68]	; 0x44
 8001596:	4fa9      	ldr	r7, [pc, #676]	; (800183c <vector_to_RAM+0x2bc>)
 8001598:	f8c8 3010 	str.w	r3, [r8, #16]
 800159c:	6ca3      	ldr	r3, [r4, #72]	; 0x48
 800159e:	4ea8      	ldr	r6, [pc, #672]	; (8001840 <vector_to_RAM+0x2c0>)
 80015a0:	613b      	str	r3, [r7, #16]
 80015a2:	6ce3      	ldr	r3, [r4, #76]	; 0x4c
 80015a4:	4da7      	ldr	r5, [pc, #668]	; (8001844 <vector_to_RAM+0x2c4>)
 80015a6:	6133      	str	r3, [r6, #16]
 80015a8:	6d23      	ldr	r3, [r4, #80]	; 0x50
 80015aa:	6ea0      	ldr	r0, [r4, #104]	; 0x68
 80015ac:	612b      	str	r3, [r5, #16]
 80015ae:	6d63      	ldr	r3, [r4, #84]	; 0x54
 80015b0:	f8c9 3018 	str.w	r3, [r9, #24]
 80015b4:	6da3      	ldr	r3, [r4, #88]	; 0x58
 80015b6:	f8c8 3018 	str.w	r3, [r8, #24]
 80015ba:	6de3      	ldr	r3, [r4, #92]	; 0x5c
 80015bc:	61bb      	str	r3, [r7, #24]
 80015be:	6e23      	ldr	r3, [r4, #96]	; 0x60
 80015c0:	61b3      	str	r3, [r6, #24]
 80015c2:	6e63      	ldr	r3, [r4, #100]	; 0x64
 80015c4:	61ab      	str	r3, [r5, #24]
 80015c6:	f7fe ffb9 	bl	800053c <__aeabi_ui2d>
 80015ca:	a395      	add	r3, pc, #596	; (adr r3, 8001820 <vector_to_RAM+0x2a0>)
 80015cc:	e9d3 2300 	ldrd	r2, r3, [r3]
 80015d0:	f7ff f958 	bl	8000884 <__aeabi_ddiv>
 80015d4:	e9c9 0108 	strd	r0, r1, [r9, #32]
 80015d8:	6ee0      	ldr	r0, [r4, #108]	; 0x6c
 80015da:	f7fe ffaf 	bl	800053c <__aeabi_ui2d>
 80015de:	a390      	add	r3, pc, #576	; (adr r3, 8001820 <vector_to_RAM+0x2a0>)
 80015e0:	e9d3 2300 	ldrd	r2, r3, [r3]
 80015e4:	f7ff f94e 	bl	8000884 <__aeabi_ddiv>
 80015e8:	e9c8 0108 	strd	r0, r1, [r8, #32]
 80015ec:	6f20      	ldr	r0, [r4, #112]	; 0x70
 80015ee:	f7fe ffa5 	bl	800053c <__aeabi_ui2d>
 80015f2:	a38b      	add	r3, pc, #556	; (adr r3, 8001820 <vector_to_RAM+0x2a0>)
 80015f4:	e9d3 2300 	ldrd	r2, r3, [r3]
 80015f8:	f7ff f944 	bl	8000884 <__aeabi_ddiv>
 80015fc:	e9c7 0108 	strd	r0, r1, [r7, #32]
 8001600:	6f60      	ldr	r0, [r4, #116]	; 0x74
 8001602:	f7fe ff9b 	bl	800053c <__aeabi_ui2d>
 8001606:	a386      	add	r3, pc, #536	; (adr r3, 8001820 <vector_to_RAM+0x2a0>)
 8001608:	e9d3 2300 	ldrd	r2, r3, [r3]
 800160c:	f7ff f93a 	bl	8000884 <__aeabi_ddiv>
 8001610:	e9c6 0108 	strd	r0, r1, [r6, #32]
 8001614:	6fa0      	ldr	r0, [r4, #120]	; 0x78
 8001616:	f7fe ff91 	bl	800053c <__aeabi_ui2d>
 800161a:	a381      	add	r3, pc, #516	; (adr r3, 8001820 <vector_to_RAM+0x2a0>)
 800161c:	e9d3 2300 	ldrd	r2, r3, [r3]
 8001620:	f7ff f930 	bl	8000884 <__aeabi_ddiv>
 8001624:	6fe3      	ldr	r3, [r4, #124]	; 0x7c
 8001626:	e9c5 0108 	strd	r0, r1, [r5, #32]
 800162a:	f8c9 301c 	str.w	r3, [r9, #28]
 800162e:	f8d4 3080 	ldr.w	r3, [r4, #128]	; 0x80
 8001632:	f8c8 301c 	str.w	r3, [r8, #28]
 8001636:	f8d4 3084 	ldr.w	r3, [r4, #132]	; 0x84
 800163a:	61fb      	str	r3, [r7, #28]
 800163c:	f8d4 3088 	ldr.w	r3, [r4, #136]	; 0x88
 8001640:	61f3      	str	r3, [r6, #28]
 8001642:	f8d4 308c 	ldr.w	r3, [r4, #140]	; 0x8c
 8001646:	61eb      	str	r3, [r5, #28]
 8001648:	f8d4 30b4 	ldr.w	r3, [r4, #180]	; 0xb4
 800164c:	f003 0201 	and.w	r2, r3, #1
 8001650:	f889 2028 	strb.w	r2, [r9, #40]	; 0x28
 8001654:	f3c3 0240 	ubfx	r2, r3, #1, #1
 8001658:	f888 2028 	strb.w	r2, [r8, #40]	; 0x28
 800165c:	f3c3 0280 	ubfx	r2, r3, #2, #1
 8001660:	f887 2028 	strb.w	r2, [r7, #40]	; 0x28
 8001664:	f3c3 02c0 	ubfx	r2, r3, #3, #1
 8001668:	f3c3 1300 	ubfx	r3, r3, #4, #1
 800166c:	f885 3028 	strb.w	r3, [r5, #40]	; 0x28
 8001670:	f8d4 30b8 	ldr.w	r3, [r4, #184]	; 0xb8
 8001674:	f886 2028 	strb.w	r2, [r6, #40]	; 0x28
 8001678:	f003 0201 	and.w	r2, r3, #1
 800167c:	f889 2029 	strb.w	r2, [r9, #41]	; 0x29
 8001680:	f3c3 0240 	ubfx	r2, r3, #1, #1
 8001684:	f888 2029 	strb.w	r2, [r8, #41]	; 0x29
 8001688:	f3c3 0280 	ubfx	r2, r3, #2, #1
 800168c:	f887 2029 	strb.w	r2, [r7, #41]	; 0x29
 8001690:	f3c3 02c0 	ubfx	r2, r3, #3, #1
 8001694:	f3c3 1300 	ubfx	r3, r3, #4, #1
 8001698:	f885 3029 	strb.w	r3, [r5, #41]	; 0x29
 800169c:	f8d4 30bc 	ldr.w	r3, [r4, #188]	; 0xbc
 80016a0:	f886 2029 	strb.w	r2, [r6, #41]	; 0x29
 80016a4:	f003 0201 	and.w	r2, r3, #1
 80016a8:	f889 202a 	strb.w	r2, [r9, #42]	; 0x2a
 80016ac:	f3c3 0240 	ubfx	r2, r3, #1, #1
 80016b0:	f888 202a 	strb.w	r2, [r8, #42]	; 0x2a
 80016b4:	f3c3 0280 	ubfx	r2, r3, #2, #1
 80016b8:	f887 202a 	strb.w	r2, [r7, #42]	; 0x2a
 80016bc:	f3c3 02c0 	ubfx	r2, r3, #3, #1
 80016c0:	f3c3 1300 	ubfx	r3, r3, #4, #1
 80016c4:	f885 302a 	strb.w	r3, [r5, #42]	; 0x2a
 80016c8:	f8d4 30c0 	ldr.w	r3, [r4, #192]	; 0xc0
 80016cc:	f886 202a 	strb.w	r2, [r6, #42]	; 0x2a
 80016d0:	f003 0201 	and.w	r2, r3, #1
 80016d4:	f889 202c 	strb.w	r2, [r9, #44]	; 0x2c
 80016d8:	f3c3 0240 	ubfx	r2, r3, #1, #1
 80016dc:	f888 202c 	strb.w	r2, [r8, #44]	; 0x2c
 80016e0:	f3c3 0280 	ubfx	r2, r3, #2, #1
 80016e4:	f887 202c 	strb.w	r2, [r7, #44]	; 0x2c
 80016e8:	f3c3 02c0 	ubfx	r2, r3, #3, #1
 80016ec:	f3c3 1300 	ubfx	r3, r3, #4, #1
 80016f0:	f885 302c 	strb.w	r3, [r5, #44]	; 0x2c
 80016f4:	f8d4 30c4 	ldr.w	r3, [r4, #196]	; 0xc4
 80016f8:	f886 202c 	strb.w	r2, [r6, #44]	; 0x2c
 80016fc:	f8a9 3030 	strh.w	r3, [r9, #48]	; 0x30
 8001700:	f8d4 30c8 	ldr.w	r3, [r4, #200]	; 0xc8
 8001704:	f8a8 3030 	strh.w	r3, [r8, #48]	; 0x30
 8001708:	f8d4 30cc 	ldr.w	r3, [r4, #204]	; 0xcc
 800170c:	f8d4 00ec 	ldr.w	r0, [r4, #236]	; 0xec
 8001710:	863b      	strh	r3, [r7, #48]	; 0x30
 8001712:	f8d4 30d0 	ldr.w	r3, [r4, #208]	; 0xd0
 8001716:	8633      	strh	r3, [r6, #48]	; 0x30
 8001718:	f8d4 30d4 	ldr.w	r3, [r4, #212]	; 0xd4
 800171c:	862b      	strh	r3, [r5, #48]	; 0x30
 800171e:	f8d4 30d8 	ldr.w	r3, [r4, #216]	; 0xd8
 8001722:	f8a9 302e 	strh.w	r3, [r9, #46]	; 0x2e
 8001726:	f8d4 30dc 	ldr.w	r3, [r4, #220]	; 0xdc
 800172a:	f8a8 302e 	strh.w	r3, [r8, #46]	; 0x2e
 800172e:	f8d4 30e0 	ldr.w	r3, [r4, #224]	; 0xe0
 8001732:	85fb      	strh	r3, [r7, #46]	; 0x2e
 8001734:	f8d4 30e4 	ldr.w	r3, [r4, #228]	; 0xe4
 8001738:	85f3      	strh	r3, [r6, #46]	; 0x2e
 800173a:	f8d4 30e8 	ldr.w	r3, [r4, #232]	; 0xe8
 800173e:	85eb      	strh	r3, [r5, #46]	; 0x2e
 8001740:	f7fe fefc 	bl	800053c <__aeabi_ui2d>
 8001744:	a338      	add	r3, pc, #224	; (adr r3, 8001828 <vector_to_RAM+0x2a8>)
 8001746:	e9d3 2300 	ldrd	r2, r3, [r3]
 800174a:	f7fe fdb9 	bl	80002c0 <__aeabi_dsub>
 800174e:	a334      	add	r3, pc, #208	; (adr r3, 8001820 <vector_to_RAM+0x2a0>)
 8001750:	e9d3 2300 	ldrd	r2, r3, [r3]
 8001754:	f7ff f896 	bl	8000884 <__aeabi_ddiv>
 8001758:	e9c9 010e 	strd	r0, r1, [r9, #56]	; 0x38
 800175c:	f8d4 00f0 	ldr.w	r0, [r4, #240]	; 0xf0
 8001760:	f7fe feec 	bl	800053c <__aeabi_ui2d>
 8001764:	a330      	add	r3, pc, #192	; (adr r3, 8001828 <vector_to_RAM+0x2a8>)
 8001766:	e9d3 2300 	ldrd	r2, r3, [r3]
 800176a:	f7fe fda9 	bl	80002c0 <__aeabi_dsub>
 800176e:	a32c      	add	r3, pc, #176	; (adr r3, 8001820 <vector_to_RAM+0x2a0>)
 8001770:	e9d3 2300 	ldrd	r2, r3, [r3]
 8001774:	f7ff f886 	bl	8000884 <__aeabi_ddiv>
 8001778:	e9c8 010e 	strd	r0, r1, [r8, #56]	; 0x38
 800177c:	f8d4 00f4 	ldr.w	r0, [r4, #244]	; 0xf4
 8001780:	f7fe fedc 	bl	800053c <__aeabi_ui2d>
 8001784:	a328      	add	r3, pc, #160	; (adr r3, 8001828 <vector_to_RAM+0x2a8>)
 8001786:	e9d3 2300 	ldrd	r2, r3, [r3]
 800178a:	f7fe fd99 	bl	80002c0 <__aeabi_dsub>
 800178e:	a324      	add	r3, pc, #144	; (adr r3, 8001820 <vector_to_RAM+0x2a0>)
 8001790:	e9d3 2300 	ldrd	r2, r3, [r3]
 8001794:	f7ff f876 	bl	8000884 <__aeabi_ddiv>
 8001798:	e9c7 010e 	strd	r0, r1, [r7, #56]	; 0x38
 800179c:	f8d4 00f8 	ldr.w	r0, [r4, #248]	; 0xf8
 80017a0:	f7fe fecc 	bl	800053c <__aeabi_ui2d>
 80017a4:	a320      	add	r3, pc, #128	; (adr r3, 8001828 <vector_to_RAM+0x2a8>)
 80017a6:	e9d3 2300 	ldrd	r2, r3, [r3]
 80017aa:	f7fe fd89 	bl	80002c0 <__aeabi_dsub>
 80017ae:	a31c      	add	r3, pc, #112	; (adr r3, 8001820 <vector_to_RAM+0x2a0>)
 80017b0:	e9d3 2300 	ldrd	r2, r3, [r3]
 80017b4:	f7ff f866 	bl	8000884 <__aeabi_ddiv>
 80017b8:	e9c6 010e 	strd	r0, r1, [r6, #56]	; 0x38
 80017bc:	f8d4 00fc 	ldr.w	r0, [r4, #252]	; 0xfc
 80017c0:	f7fe febc 	bl	800053c <__aeabi_ui2d>
 80017c4:	a318      	add	r3, pc, #96	; (adr r3, 8001828 <vector_to_RAM+0x2a8>)
 80017c6:	e9d3 2300 	ldrd	r2, r3, [r3]
 80017ca:	f7fe fd79 	bl	80002c0 <__aeabi_dsub>
 80017ce:	a314      	add	r3, pc, #80	; (adr r3, 8001820 <vector_to_RAM+0x2a0>)
 80017d0:	e9d3 2300 	ldrd	r2, r3, [r3]
 80017d4:	f7ff f856 	bl	8000884 <__aeabi_ddiv>
 80017d8:	f8d4 3100 	ldr.w	r3, [r4, #256]	; 0x100
 80017dc:	e9c5 010e 	strd	r0, r1, [r5, #56]	; 0x38
 80017e0:	f003 020f 	and.w	r2, r3, #15
 80017e4:	f889 202b 	strb.w	r2, [r9, #43]	; 0x2b
 80017e8:	f3c3 1203 	ubfx	r2, r3, #4, #4
 80017ec:	f888 202b 	strb.w	r2, [r8, #43]	; 0x2b
 80017f0:	f3c3 2203 	ubfx	r2, r3, #8, #4
 80017f4:	f887 202b 	strb.w	r2, [r7, #43]	; 0x2b
 80017f8:	f3c3 3203 	ubfx	r2, r3, #12, #4
 80017fc:	f3c3 4303 	ubfx	r3, r3, #16, #4
 8001800:	f886 202b 	strb.w	r2, [r6, #43]	; 0x2b
 8001804:	f885 302b 	strb.w	r3, [r5, #43]	; 0x2b
 8001808:	f8d4 2104 	ldr.w	r2, [r4, #260]	; 0x104
 800180c:	4b0e      	ldr	r3, [pc, #56]	; (8001848 <vector_to_RAM+0x2c8>)
 800180e:	480f      	ldr	r0, [pc, #60]	; (800184c <vector_to_RAM+0x2cc>)
 8001810:	701a      	strb	r2, [r3, #0]
 8001812:	e8bd 43f8 	ldmia.w	sp!, {r3, r4, r5, r6, r7, r8, r9, lr}
 8001816:	f003 bcfd 	b.w	8005214 <puts>
 800181a:	bf00      	nop
 800181c:	f3af 8000 	nop.w
 8001820:	00000000 	.word	0x00000000
 8001824:	412e8480 	.word	0x412e8480
 8001828:	00000000 	.word	0x00000000
 800182c:	41a7d784 	.word	0x41a7d784
 8001830:	20000cfc 	.word	0x20000cfc
 8001834:	20000170 	.word	0x20000170
 8001838:	200001c0 	.word	0x200001c0
 800183c:	20000210 	.word	0x20000210
 8001840:	200000a8 	.word	0x200000a8
 8001844:	200000f8 	.word	0x200000f8
 8001848:	20000c61 	.word	0x20000c61
 800184c:	080061d6 	.word	0x080061d6

08001850 <vector_to_Flash>:
 8001850:	b570      	push	{r4, r5, r6, lr}
 8001852:	b086      	sub	sp, #24
 8001854:	f002 fa4e 	bl	8003cf4 <HAL_FLASH_Unlock>
 8001858:	2300      	movs	r3, #0
 800185a:	4d0f      	ldr	r5, [pc, #60]	; (8001898 <vector_to_Flash+0x48>)
 800185c:	9302      	str	r3, [sp, #8]
 800185e:	682b      	ldr	r3, [r5, #0]
 8001860:	a901      	add	r1, sp, #4
 8001862:	9304      	str	r3, [sp, #16]
 8001864:	2303      	movs	r3, #3
 8001866:	a802      	add	r0, sp, #8
 8001868:	9305      	str	r3, [sp, #20]
 800186a:	2440      	movs	r4, #64	; 0x40
 800186c:	f002 faea 	bl	8003e44 <HAL_FLASHEx_Erase>
 8001870:	4e0a      	ldr	r6, [pc, #40]	; (800189c <vector_to_Flash+0x4c>)
 8001872:	6829      	ldr	r1, [r5, #0]
 8001874:	5932      	ldr	r2, [r6, r4]
 8001876:	4421      	add	r1, r4
 8001878:	2300      	movs	r3, #0
 800187a:	2002      	movs	r0, #2
 800187c:	3404      	adds	r4, #4
 800187e:	f002 fa7f 	bl	8003d80 <HAL_FLASH_Program>
 8001882:	f5b4 7f8c 	cmp.w	r4, #280	; 0x118
 8001886:	d1f4      	bne.n	8001872 <vector_to_Flash+0x22>
 8001888:	f002 fa46 	bl	8003d18 <HAL_FLASH_Lock>
 800188c:	4804      	ldr	r0, [pc, #16]	; (80018a0 <vector_to_Flash+0x50>)
 800188e:	f003 fcc1 	bl	8005214 <puts>
 8001892:	b006      	add	sp, #24
 8001894:	bd70      	pop	{r4, r5, r6, pc}
 8001896:	bf00      	nop
 8001898:	20000000 	.word	0x20000000
 800189c:	20000cfc 	.word	0x20000cfc
 80018a0:	080061e2 	.word	0x080061e2

080018a4 <Flash_to_vector>:
 80018a4:	4b06      	ldr	r3, [pc, #24]	; (80018c0 <Flash_to_vector+0x1c>)
 80018a6:	4907      	ldr	r1, [pc, #28]	; (80018c4 <Flash_to_vector+0x20>)
 80018a8:	681b      	ldr	r3, [r3, #0]
 80018aa:	f103 0240 	add.w	r2, r3, #64	; 0x40
 80018ae:	f503 738c 	add.w	r3, r3, #280	; 0x118
 80018b2:	f852 0b04 	ldr.w	r0, [r2], #4
 80018b6:	429a      	cmp	r2, r3
 80018b8:	f841 0b04 	str.w	r0, [r1], #4
 80018bc:	d1f9      	bne.n	80018b2 <Flash_to_vector+0xe>
 80018be:	4770      	bx	lr
 80018c0:	20000000 	.word	0x20000000
 80018c4:	20000d3c 	.word	0x20000d3c

080018c8 <print_vecotr>:
 80018c8:	b570      	push	{r4, r5, r6, lr}
 80018ca:	2410      	movs	r4, #16
 80018cc:	4d0a      	ldr	r5, [pc, #40]	; (80018f8 <print_vecotr+0x30>)
 80018ce:	4e0b      	ldr	r6, [pc, #44]	; (80018fc <print_vecotr+0x34>)
 80018d0:	f855 2024 	ldr.w	r2, [r5, r4, lsl #2]
 80018d4:	4621      	mov	r1, r4
 80018d6:	4630      	mov	r0, r6
 80018d8:	f003 fc02 	bl	80050e0 <iprintf>
 80018dc:	4a08      	ldr	r2, [pc, #32]	; (8001900 <print_vecotr+0x38>)
 80018de:	bf00      	nop
 80018e0:	3a01      	subs	r2, #1
 80018e2:	d1fc      	bne.n	80018de <print_vecotr+0x16>
 80018e4:	3401      	adds	r4, #1
 80018e6:	2c46      	cmp	r4, #70	; 0x46
 80018e8:	d1f2      	bne.n	80018d0 <print_vecotr+0x8>
 80018ea:	210a      	movs	r1, #10
 80018ec:	e8bd 4070 	ldmia.w	sp!, {r4, r5, r6, lr}
 80018f0:	4802      	ldr	r0, [pc, #8]	; (80018fc <print_vecotr+0x34>)
 80018f2:	f003 bbf5 	b.w	80050e0 <iprintf>
 80018f6:	bf00      	nop
 80018f8:	20000cfc 	.word	0x20000cfc
 80018fc:	080061f0 	.word	0x080061f0
 8001900:	00015f90 	.word	0x00015f90
 8001904:	00000000 	.word	0x00000000

08001908 <print_double>:
 8001908:	b570      	push	{r4, r5, r6, lr}
 800190a:	4605      	mov	r5, r0
 800190c:	460c      	mov	r4, r1
 800190e:	2200      	movs	r2, #0
 8001910:	2300      	movs	r3, #0
 8001912:	4628      	mov	r0, r5
 8001914:	4621      	mov	r1, r4
 8001916:	f7ff f8fd 	bl	8000b14 <__aeabi_dcmplt>
 800191a:	b120      	cbz	r0, 8001926 <print_double+0x1e>
 800191c:	202d      	movs	r0, #45	; 0x2d
 800191e:	f104 4400 	add.w	r4, r4, #2147483648	; 0x80000000
 8001922:	f003 fbf5 	bl	8005110 <putchar>
 8001926:	4621      	mov	r1, r4
 8001928:	4628      	mov	r0, r5
 800192a:	f7ff f91b 	bl	8000b64 <__aeabi_d2iz>
 800192e:	4606      	mov	r6, r0
 8001930:	f7fe fe14 	bl	800055c <__aeabi_i2d>
 8001934:	4602      	mov	r2, r0
 8001936:	460b      	mov	r3, r1
 8001938:	4628      	mov	r0, r5
 800193a:	4621      	mov	r1, r4
 800193c:	f7fe fcc0 	bl	80002c0 <__aeabi_dsub>
 8001940:	a307      	add	r3, pc, #28	; (adr r3, 8001960 <print_double+0x58>)
 8001942:	e9d3 2300 	ldrd	r2, r3, [r3]
 8001946:	f7fe fe73 	bl	8000630 <__aeabi_dmul>
 800194a:	f7ff f90b 	bl	8000b64 <__aeabi_d2iz>
 800194e:	4631      	mov	r1, r6
 8001950:	e8bd 4070 	ldmia.w	sp!, {r4, r5, r6, lr}
 8001954:	4602      	mov	r2, r0
 8001956:	4804      	ldr	r0, [pc, #16]	; (8001968 <print_double+0x60>)
 8001958:	f003 bbc2 	b.w	80050e0 <iprintf>
 800195c:	f3af 8000 	nop.w
 8001960:	00000000 	.word	0x00000000
 8001964:	412e8480 	.word	0x412e8480
 8001968:	080061fb 	.word	0x080061fb

0800196c <print_G0_fin_and_coordenadas>:
 800196c:	b510      	push	{r4, lr}
 800196e:	4b2a      	ldr	r3, [pc, #168]	; (8001a18 <print_G0_fin_and_coordenadas+0xac>)
 8001970:	781b      	ldrb	r3, [r3, #0]
 8001972:	2b00      	cmp	r3, #0
 8001974:	d14d      	bne.n	8001a12 <print_G0_fin_and_coordenadas+0xa6>
 8001976:	4829      	ldr	r0, [pc, #164]	; (8001a1c <print_G0_fin_and_coordenadas+0xb0>)
 8001978:	4c29      	ldr	r4, [pc, #164]	; (8001a20 <print_G0_fin_and_coordenadas+0xb4>)
 800197a:	f003 fbb1 	bl	80050e0 <iprintf>
 800197e:	e9d4 0100 	ldrd	r0, r1, [r4]
 8001982:	f7fe fe27 	bl	80005d4 <__aeabi_l2d>
 8001986:	e9d4 2308 	ldrd	r2, r3, [r4, #32]
 800198a:	f7fe ff7b 	bl	8000884 <__aeabi_ddiv>
 800198e:	4c25      	ldr	r4, [pc, #148]	; (8001a24 <print_G0_fin_and_coordenadas+0xb8>)
 8001990:	f7ff ffba 	bl	8001908 <print_double>
 8001994:	4824      	ldr	r0, [pc, #144]	; (8001a28 <print_G0_fin_and_coordenadas+0xbc>)
 8001996:	f003 fba3 	bl	80050e0 <iprintf>
 800199a:	e9d4 0100 	ldrd	r0, r1, [r4]
 800199e:	f7fe fe19 	bl	80005d4 <__aeabi_l2d>
 80019a2:	e9d4 2308 	ldrd	r2, r3, [r4, #32]
 80019a6:	f7fe ff6d 	bl	8000884 <__aeabi_ddiv>
 80019aa:	4c20      	ldr	r4, [pc, #128]	; (8001a2c <print_G0_fin_and_coordenadas+0xc0>)
 80019ac:	f7ff ffac 	bl	8001908 <print_double>
 80019b0:	481f      	ldr	r0, [pc, #124]	; (8001a30 <print_G0_fin_and_coordenadas+0xc4>)
 80019b2:	f003 fb95 	bl	80050e0 <iprintf>
 80019b6:	e9d4 0100 	ldrd	r0, r1, [r4]
 80019ba:	f7fe fe0b 	bl	80005d4 <__aeabi_l2d>
 80019be:	e9d4 2308 	ldrd	r2, r3, [r4, #32]
 80019c2:	f7fe ff5f 	bl	8000884 <__aeabi_ddiv>
 80019c6:	4c1b      	ldr	r4, [pc, #108]	; (8001a34 <print_G0_fin_and_coordenadas+0xc8>)
 80019c8:	f7ff ff9e 	bl	8001908 <print_double>
 80019cc:	481a      	ldr	r0, [pc, #104]	; (8001a38 <print_G0_fin_and_coordenadas+0xcc>)
 80019ce:	f003 fb87 	bl	80050e0 <iprintf>
 80019d2:	e9d4 0100 	ldrd	r0, r1, [r4]
 80019d6:	f7fe fdfd 	bl	80005d4 <__aeabi_l2d>
 80019da:	e9d4 2308 	ldrd	r2, r3, [r4, #32]
 80019de:	f7fe ff51 	bl	8000884 <__aeabi_ddiv>
 80019e2:	4c16      	ldr	r4, [pc, #88]	; (8001a3c <print_G0_fin_and_coordenadas+0xd0>)
 80019e4:	f7ff ff90 	bl	8001908 <print_double>
 80019e8:	4815      	ldr	r0, [pc, #84]	; (8001a40 <print_G0_fin_and_coordenadas+0xd4>)
 80019ea:	f003 fb79 	bl	80050e0 <iprintf>
 80019ee:	e9d4 0100 	ldrd	r0, r1, [r4]
 80019f2:	f7fe fdef 	bl	80005d4 <__aeabi_l2d>
 80019f6:	e9d4 2308 	ldrd	r2, r3, [r4, #32]
 80019fa:	f7fe ff43 	bl	8000884 <__aeabi_ddiv>
 80019fe:	f7ff ff83 	bl	8001908 <print_double>
 8001a02:	200a      	movs	r0, #10
 8001a04:	f003 fb84 	bl	8005110 <putchar>
 8001a08:	e8bd 4010 	ldmia.w	sp!, {r4, lr}
 8001a0c:	480d      	ldr	r0, [pc, #52]	; (8001a44 <print_G0_fin_and_coordenadas+0xd8>)
 8001a0e:	f003 bc01 	b.w	8005214 <puts>
 8001a12:	480d      	ldr	r0, [pc, #52]	; (8001a48 <print_G0_fin_and_coordenadas+0xdc>)
 8001a14:	e7b0      	b.n	8001978 <print_G0_fin_and_coordenadas+0xc>
 8001a16:	bf00      	nop
 8001a18:	20000004 	.word	0x20000004
 8001a1c:	08006205 	.word	0x08006205
 8001a20:	20000170 	.word	0x20000170
 8001a24:	200001c0 	.word	0x200001c0
 8001a28:	0800620f 	.word	0x0800620f
 8001a2c:	20000210 	.word	0x20000210
 8001a30:	08006212 	.word	0x08006212
 8001a34:	200000f8 	.word	0x200000f8
 8001a38:	08006215 	.word	0x08006215
 8001a3c:	200000a8 	.word	0x200000a8
 8001a40:	08006218 	.word	0x08006218
 8001a44:	0800621b 	.word	0x0800621b
 8001a48:	0800620a 	.word	0x0800620a

08001a4c <string_to_double>:
 8001a4c:	e92d 4ff7 	stmdb	sp!, {r0, r1, r2, r4, r5, r6, r7, r8, r9, sl, fp, lr}
 8001a50:	4689      	mov	r9, r1
 8001a52:	210a      	movs	r1, #10
 8001a54:	7802      	ldrb	r2, [r0, #0]
 8001a56:	f8df b0d0 	ldr.w	fp, [pc, #208]	; 8001b28 <string_to_double+0xdc>
 8001a5a:	1c53      	adds	r3, r2, #1
 8001a5c:	b2db      	uxtb	r3, r3
 8001a5e:	7003      	strb	r3, [r0, #0]
 8001a60:	fb01 b303 	mla	r3, r1, r3, fp
 8001a64:	f813 3009 	ldrb.w	r3, [r3, r9]
 8001a68:	4606      	mov	r6, r0
 8001a6a:	2b2d      	cmp	r3, #45	; 0x2d
 8001a6c:	d156      	bne.n	8001b1c <string_to_double+0xd0>
 8001a6e:	2301      	movs	r3, #1
 8001a70:	3202      	adds	r2, #2
 8001a72:	7002      	strb	r2, [r0, #0]
 8001a74:	2700      	movs	r7, #0
 8001a76:	2400      	movs	r4, #0
 8001a78:	2500      	movs	r5, #0
 8001a7a:	46b8      	mov	r8, r7
 8001a7c:	9301      	str	r3, [sp, #4]
 8001a7e:	e02e      	b.n	8001ade <string_to_double+0x92>
 8001a80:	f002 02fd 	and.w	r2, r2, #253	; 0xfd
 8001a84:	3301      	adds	r3, #1
 8001a86:	2a2c      	cmp	r2, #44	; 0x2c
 8001a88:	b2db      	uxtb	r3, r3
 8001a8a:	bf08      	it	eq
 8001a8c:	7033      	strbeq	r3, [r6, #0]
 8001a8e:	f04f 0200 	mov.w	r2, #0
 8001a92:	4638      	mov	r0, r7
 8001a94:	4641      	mov	r1, r8
 8001a96:	4b25      	ldr	r3, [pc, #148]	; (8001b2c <string_to_double+0xe0>)
 8001a98:	bf04      	itt	eq
 8001a9a:	2400      	moveq	r4, #0
 8001a9c:	4d24      	ldreq	r5, [pc, #144]	; (8001b30 <string_to_double+0xe4>)
 8001a9e:	f7fe fdc7 	bl	8000630 <__aeabi_dmul>
 8001aa2:	230a      	movs	r3, #10
 8001aa4:	4607      	mov	r7, r0
 8001aa6:	4688      	mov	r8, r1
 8001aa8:	f896 a000 	ldrb.w	sl, [r6]
 8001aac:	fb03 b30a 	mla	r3, r3, sl, fp
 8001ab0:	f813 0009 	ldrb.w	r0, [r3, r9]
 8001ab4:	f10a 0a01 	add.w	sl, sl, #1
 8001ab8:	3830      	subs	r0, #48	; 0x30
 8001aba:	f7fe fd4f 	bl	800055c <__aeabi_i2d>
 8001abe:	463a      	mov	r2, r7
 8001ac0:	4643      	mov	r3, r8
 8001ac2:	f7fe fbff 	bl	80002c4 <__adddf3>
 8001ac6:	2200      	movs	r2, #0
 8001ac8:	4607      	mov	r7, r0
 8001aca:	4688      	mov	r8, r1
 8001acc:	4620      	mov	r0, r4
 8001ace:	4629      	mov	r1, r5
 8001ad0:	4b16      	ldr	r3, [pc, #88]	; (8001b2c <string_to_double+0xe0>)
 8001ad2:	f7fe fdad 	bl	8000630 <__aeabi_dmul>
 8001ad6:	4604      	mov	r4, r0
 8001ad8:	460d      	mov	r5, r1
 8001ada:	f886 a000 	strb.w	sl, [r6]
 8001ade:	220a      	movs	r2, #10
 8001ae0:	7833      	ldrb	r3, [r6, #0]
 8001ae2:	fb02 b203 	mla	r2, r2, r3, fp
 8001ae6:	f812 2009 	ldrb.w	r2, [r2, r9]
 8001aea:	f1a2 012c 	sub.w	r1, r2, #44	; 0x2c
 8001aee:	290d      	cmp	r1, #13
 8001af0:	d9c6      	bls.n	8001a80 <string_to_double+0x34>
 8001af2:	2200      	movs	r2, #0
 8001af4:	2300      	movs	r3, #0
 8001af6:	4620      	mov	r0, r4
 8001af8:	4629      	mov	r1, r5
 8001afa:	f7ff f801 	bl	8000b00 <__aeabi_dcmpeq>
 8001afe:	b108      	cbz	r0, 8001b04 <string_to_double+0xb8>
 8001b00:	2400      	movs	r4, #0
 8001b02:	4d0b      	ldr	r5, [pc, #44]	; (8001b30 <string_to_double+0xe4>)
 8001b04:	9b01      	ldr	r3, [sp, #4]
 8001b06:	4622      	mov	r2, r4
 8001b08:	b153      	cbz	r3, 8001b20 <string_to_double+0xd4>
 8001b0a:	462b      	mov	r3, r5
 8001b0c:	4638      	mov	r0, r7
 8001b0e:	f108 4100 	add.w	r1, r8, #2147483648	; 0x80000000
 8001b12:	f7fe feb7 	bl	8000884 <__aeabi_ddiv>
 8001b16:	b003      	add	sp, #12
 8001b18:	e8bd 8ff0 	ldmia.w	sp!, {r4, r5, r6, r7, r8, r9, sl, fp, pc}
 8001b1c:	2300      	movs	r3, #0
 8001b1e:	e7a9      	b.n	8001a74 <string_to_double+0x28>
 8001b20:	462b      	mov	r3, r5
 8001b22:	4638      	mov	r0, r7
 8001b24:	4641      	mov	r1, r8
 8001b26:	e7f4      	b.n	8001b12 <string_to_double+0xc6>
 8001b28:	20000261 	.word	0x20000261
 8001b2c:	40240000 	.word	0x40240000
 8001b30:	3ff00000 	.word	0x3ff00000

08001b34 <_HEX_to_int>:
 8001b34:	4603      	mov	r3, r0
 8001b36:	3830      	subs	r0, #48	; 0x30
 8001b38:	b2c0      	uxtb	r0, r0
 8001b3a:	2809      	cmp	r0, #9
 8001b3c:	d90d      	bls.n	8001b5a <_HEX_to_int+0x26>
 8001b3e:	f1a3 0241 	sub.w	r2, r3, #65	; 0x41
 8001b42:	2a05      	cmp	r2, #5
 8001b44:	d802      	bhi.n	8001b4c <_HEX_to_int+0x18>
 8001b46:	3b37      	subs	r3, #55	; 0x37
 8001b48:	b2d8      	uxtb	r0, r3
 8001b4a:	4770      	bx	lr
 8001b4c:	f1a3 0261 	sub.w	r2, r3, #97	; 0x61
 8001b50:	2a05      	cmp	r2, #5
 8001b52:	d801      	bhi.n	8001b58 <_HEX_to_int+0x24>
 8001b54:	3b57      	subs	r3, #87	; 0x57
 8001b56:	e7f7      	b.n	8001b48 <_HEX_to_int+0x14>
 8001b58:	2000      	movs	r0, #0
 8001b5a:	4770      	bx	lr

08001b5c <despulsar_limite_arranque>:
 8001b5c:	b084      	sub	sp, #16
 8001b5e:	b530      	push	{r4, r5, lr}
 8001b60:	b08f      	sub	sp, #60	; 0x3c
 8001b62:	ac12      	add	r4, sp, #72	; 0x48
 8001b64:	e884 000f 	stmia.w	r4, {r0, r1, r2, r3}
 8001b68:	f89d 2072 	ldrb.w	r2, [sp, #114]	; 0x72
 8001b6c:	f8bd 4088 	ldrh.w	r4, [sp, #136]	; 0x88
 8001b70:	f1c2 0201 	rsb	r2, r2, #1
 8001b74:	4621      	mov	r1, r4
 8001b76:	4813      	ldr	r0, [pc, #76]	; (8001bc4 <despulsar_limite_arranque+0x68>)
 8001b78:	b2d2      	uxtb	r2, r2
 8001b7a:	f002 fa97 	bl	80040ac <HAL_GPIO_WritePin>
 8001b7e:	f89d 3070 	ldrb.w	r3, [sp, #112]	; 0x70
 8001b82:	b11b      	cbz	r3, 8001b8c <despulsar_limite_arranque+0x30>
 8001b84:	4621      	mov	r1, r4
 8001b86:	480f      	ldr	r0, [pc, #60]	; (8001bc4 <despulsar_limite_arranque+0x68>)
 8001b88:	f002 fa95 	bl	80040b6 <HAL_GPIO_TogglePin>
 8001b8c:	4621      	mov	r1, r4
 8001b8e:	480d      	ldr	r0, [pc, #52]	; (8001bc4 <despulsar_limite_arranque+0x68>)
 8001b90:	f002 fa91 	bl	80040b6 <HAL_GPIO_TogglePin>
 8001b94:	f89d 3071 	ldrb.w	r3, [sp, #113]	; 0x71
 8001b98:	b17b      	cbz	r3, 8001bba <despulsar_limite_arranque+0x5e>
 8001b9a:	466c      	mov	r4, sp
 8001b9c:	ad16      	add	r5, sp, #88	; 0x58
 8001b9e:	cd0f      	ldmia	r5!, {r0, r1, r2, r3}
 8001ba0:	c40f      	stmia	r4!, {r0, r1, r2, r3}
 8001ba2:	cd0f      	ldmia	r5!, {r0, r1, r2, r3}
 8001ba4:	c40f      	stmia	r4!, {r0, r1, r2, r3}
 8001ba6:	cd0f      	ldmia	r5!, {r0, r1, r2, r3}
 8001ba8:	c40f      	stmia	r4!, {r0, r1, r2, r3}
 8001baa:	e895 0003 	ldmia.w	r5, {r0, r1}
 8001bae:	e884 0003 	stmia.w	r4, {r0, r1}
 8001bb2:	ab12      	add	r3, sp, #72	; 0x48
 8001bb4:	cb0f      	ldmia	r3, {r0, r1, r2, r3}
 8001bb6:	f000 fe9b 	bl	80028f0 <despulsar_eje>
 8001bba:	b00f      	add	sp, #60	; 0x3c
 8001bbc:	e8bd 4030 	ldmia.w	sp!, {r4, r5, lr}
 8001bc0:	b004      	add	sp, #16
 8001bc2:	4770      	bx	lr
 8001bc4:	40010c00 	.word	0x40010c00

08001bc8 <analizar_switch_arranque>:
 8001bc8:	b5f0      	push	{r4, r5, r6, r7, lr}
 8001bca:	4b30      	ldr	r3, [pc, #192]	; (8001c8c <analizar_switch_arranque+0xc4>)
 8001bcc:	b08f      	sub	sp, #60	; 0x3c
 8001bce:	689b      	ldr	r3, [r3, #8]
 8001bd0:	069b      	lsls	r3, r3, #26
 8001bd2:	d559      	bpl.n	8001c88 <analizar_switch_arranque+0xc0>
 8001bd4:	466c      	mov	r4, sp
 8001bd6:	4e2e      	ldr	r6, [pc, #184]	; (8001c90 <analizar_switch_arranque+0xc8>)
 8001bd8:	4f2e      	ldr	r7, [pc, #184]	; (8001c94 <analizar_switch_arranque+0xcc>)
 8001bda:	f106 0510 	add.w	r5, r6, #16
 8001bde:	cd0f      	ldmia	r5!, {r0, r1, r2, r3}
 8001be0:	c40f      	stmia	r4!, {r0, r1, r2, r3}
 8001be2:	cd0f      	ldmia	r5!, {r0, r1, r2, r3}
 8001be4:	c40f      	stmia	r4!, {r0, r1, r2, r3}
 8001be6:	cd0f      	ldmia	r5!, {r0, r1, r2, r3}
 8001be8:	c40f      	stmia	r4!, {r0, r1, r2, r3}
 8001bea:	e895 0003 	ldmia.w	r5, {r0, r1}
 8001bee:	e884 0003 	stmia.w	r4, {r0, r1}
 8001bf2:	e896 000f 	ldmia.w	r6, {r0, r1, r2, r3}
 8001bf6:	466e      	mov	r6, sp
 8001bf8:	f107 0510 	add.w	r5, r7, #16
 8001bfc:	f7ff ffae 	bl	8001b5c <despulsar_limite_arranque>
 8001c00:	cd0f      	ldmia	r5!, {r0, r1, r2, r3}
 8001c02:	c60f      	stmia	r6!, {r0, r1, r2, r3}
 8001c04:	cd0f      	ldmia	r5!, {r0, r1, r2, r3}
 8001c06:	c60f      	stmia	r6!, {r0, r1, r2, r3}
 8001c08:	cd0f      	ldmia	r5!, {r0, r1, r2, r3}
 8001c0a:	c60f      	stmia	r6!, {r0, r1, r2, r3}
 8001c0c:	466e      	mov	r6, sp
 8001c0e:	e895 0003 	ldmia.w	r5, {r0, r1}
 8001c12:	e884 0003 	stmia.w	r4, {r0, r1}
 8001c16:	e897 000f 	ldmia.w	r7, {r0, r1, r2, r3}
 8001c1a:	4f1f      	ldr	r7, [pc, #124]	; (8001c98 <analizar_switch_arranque+0xd0>)
 8001c1c:	f7ff ff9e 	bl	8001b5c <despulsar_limite_arranque>
 8001c20:	f107 0510 	add.w	r5, r7, #16
 8001c24:	cd0f      	ldmia	r5!, {r0, r1, r2, r3}
 8001c26:	c60f      	stmia	r6!, {r0, r1, r2, r3}
 8001c28:	cd0f      	ldmia	r5!, {r0, r1, r2, r3}
 8001c2a:	c60f      	stmia	r6!, {r0, r1, r2, r3}
 8001c2c:	cd0f      	ldmia	r5!, {r0, r1, r2, r3}
 8001c2e:	c60f      	stmia	r6!, {r0, r1, r2, r3}
 8001c30:	466e      	mov	r6, sp
 8001c32:	e895 0003 	ldmia.w	r5, {r0, r1}
 8001c36:	e884 0003 	stmia.w	r4, {r0, r1}
 8001c3a:	e897 000f 	ldmia.w	r7, {r0, r1, r2, r3}
 8001c3e:	4f17      	ldr	r7, [pc, #92]	; (8001c9c <analizar_switch_arranque+0xd4>)
 8001c40:	f7ff ff8c 	bl	8001b5c <despulsar_limite_arranque>
 8001c44:	f107 0510 	add.w	r5, r7, #16
 8001c48:	cd0f      	ldmia	r5!, {r0, r1, r2, r3}
 8001c4a:	c60f      	stmia	r6!, {r0, r1, r2, r3}
 8001c4c:	cd0f      	ldmia	r5!, {r0, r1, r2, r3}
 8001c4e:	c60f      	stmia	r6!, {r0, r1, r2, r3}
 8001c50:	cd0f      	ldmia	r5!, {r0, r1, r2, r3}
 8001c52:	c60f      	stmia	r6!, {r0, r1, r2, r3}
 8001c54:	466e      	mov	r6, sp
 8001c56:	e895 0003 	ldmia.w	r5, {r0, r1}
 8001c5a:	e884 0003 	stmia.w	r4, {r0, r1}
 8001c5e:	e897 000f 	ldmia.w	r7, {r0, r1, r2, r3}
 8001c62:	4f0f      	ldr	r7, [pc, #60]	; (8001ca0 <analizar_switch_arranque+0xd8>)
 8001c64:	f7ff ff7a 	bl	8001b5c <despulsar_limite_arranque>
 8001c68:	f107 0510 	add.w	r5, r7, #16
 8001c6c:	cd0f      	ldmia	r5!, {r0, r1, r2, r3}
 8001c6e:	c60f      	stmia	r6!, {r0, r1, r2, r3}
 8001c70:	cd0f      	ldmia	r5!, {r0, r1, r2, r3}
 8001c72:	c60f      	stmia	r6!, {r0, r1, r2, r3}
 8001c74:	cd0f      	ldmia	r5!, {r0, r1, r2, r3}
 8001c76:	c60f      	stmia	r6!, {r0, r1, r2, r3}
 8001c78:	e895 0003 	ldmia.w	r5, {r0, r1}
 8001c7c:	e884 0003 	stmia.w	r4, {r0, r1}
 8001c80:	e897 000f 	ldmia.w	r7, {r0, r1, r2, r3}
 8001c84:	f7ff ff6a 	bl	8001b5c <despulsar_limite_arranque>
 8001c88:	b00f      	add	sp, #60	; 0x3c
 8001c8a:	bdf0      	pop	{r4, r5, r6, r7, pc}
 8001c8c:	40010800 	.word	0x40010800
 8001c90:	20000170 	.word	0x20000170
 8001c94:	200001c0 	.word	0x200001c0
 8001c98:	20000210 	.word	0x20000210
 8001c9c:	200000a8 	.word	0x200000a8
 8001ca0:	200000f8 	.word	0x200000f8
 8001ca4:	00000000 	.word	0x00000000

08001ca8 <analizarLineaUART>:
 8001ca8:	e92d 4ff0 	stmdb	sp!, {r4, r5, r6, r7, r8, r9, sl, fp, lr}
 8001cac:	f8df a2b8 	ldr.w	sl, [pc, #696]	; 8001f68 <analizarLineaUART+0x2c0>
 8001cb0:	4604      	mov	r4, r0
 8001cb2:	f81a 3000 	ldrb.w	r3, [sl, r0]
 8001cb6:	b087      	sub	sp, #28
 8001cb8:	3b41      	subs	r3, #65	; 0x41
 8001cba:	2b19      	cmp	r3, #25
 8001cbc:	f200 81e4 	bhi.w	8002088 <analizarLineaUART+0x3e0>
 8001cc0:	2200      	movs	r2, #0
 8001cc2:	4baa      	ldr	r3, [pc, #680]	; (8001f6c <analizarLineaUART+0x2c4>)
 8001cc4:	4daa      	ldr	r5, [pc, #680]	; (8001f70 <analizarLineaUART+0x2c8>)
 8001cc6:	f8df 82ac 	ldr.w	r8, [pc, #684]	; 8001f74 <analizarLineaUART+0x2cc>
 8001cca:	49ab      	ldr	r1, [pc, #684]	; (8001f78 <analizarLineaUART+0x2d0>)
 8001ccc:	f8df b2ac 	ldr.w	fp, [pc, #684]	; 8001f7c <analizarLineaUART+0x2d4>
 8001cd0:	4eab      	ldr	r6, [pc, #684]	; (8001f80 <analizarLineaUART+0x2d8>)
 8001cd2:	4fac      	ldr	r7, [pc, #688]	; (8001f84 <analizarLineaUART+0x2dc>)
 8001cd4:	e9c5 2300 	strd	r2, r3, [r5]
 8001cd8:	a39b      	add	r3, pc, #620	; (adr r3, 8001f48 <analizarLineaUART+0x2a0>)
 8001cda:	e9d3 2300 	ldrd	r2, r3, [r3]
 8001cde:	e9c8 2300 	strd	r2, r3, [r8]
 8001ce2:	e9c1 2300 	strd	r2, r3, [r1]
 8001ce6:	e9cb 2300 	strd	r2, r3, [fp]
 8001cea:	e9c6 2300 	strd	r2, r3, [r6]
 8001cee:	e9c7 2300 	strd	r2, r3, [r7]
 8001cf2:	2300      	movs	r3, #0
 8001cf4:	f8df 9290 	ldr.w	r9, [pc, #656]	; 8001f88 <analizarLineaUART+0x2e0>
 8001cf8:	f88d 3017 	strb.w	r3, [sp, #23]
 8001cfc:	230a      	movs	r3, #10
 8001cfe:	f89d 2017 	ldrb.w	r2, [sp, #23]
 8001d02:	fb03 a302 	mla	r3, r3, r2, sl
 8001d06:	5d1b      	ldrb	r3, [r3, r4]
 8001d08:	2b00      	cmp	r3, #0
 8001d0a:	f040 8235 	bne.w	8002178 <analizarLineaUART+0x4d0>
 8001d0e:	2aff      	cmp	r2, #255	; 0xff
 8001d10:	f000 823c 	beq.w	800218c <analizarLineaUART+0x4e4>
 8001d14:	e9d5 6700 	ldrd	r6, r7, [r5]
 8001d18:	2200      	movs	r2, #0
 8001d1a:	4630      	mov	r0, r6
 8001d1c:	4639      	mov	r1, r7
 8001d1e:	4b93      	ldr	r3, [pc, #588]	; (8001f6c <analizarLineaUART+0x2c4>)
 8001d20:	f7fe feee 	bl	8000b00 <__aeabi_dcmpeq>
 8001d24:	2800      	cmp	r0, #0
 8001d26:	d173      	bne.n	8001e10 <analizarLineaUART+0x168>
 8001d28:	2200      	movs	r2, #0
 8001d2a:	4630      	mov	r0, r6
 8001d2c:	4639      	mov	r1, r7
 8001d2e:	4b97      	ldr	r3, [pc, #604]	; (8001f8c <analizarLineaUART+0x2e4>)
 8001d30:	f7fe fee6 	bl	8000b00 <__aeabi_dcmpeq>
 8001d34:	b120      	cbz	r0, 8001d40 <analizarLineaUART+0x98>
 8001d36:	2201      	movs	r2, #1
 8001d38:	4b95      	ldr	r3, [pc, #596]	; (8001f90 <analizarLineaUART+0x2e8>)
 8001d3a:	701a      	strb	r2, [r3, #0]
 8001d3c:	f7ff fe16 	bl	800196c <print_G0_fin_and_coordenadas>
 8001d40:	a383      	add	r3, pc, #524	; (adr r3, 8001f50 <analizarLineaUART+0x2a8>)
 8001d42:	e9d3 2300 	ldrd	r2, r3, [r3]
 8001d46:	e9d5 0100 	ldrd	r0, r1, [r5]
 8001d4a:	f7fe fed9 	bl	8000b00 <__aeabi_dcmpeq>
 8001d4e:	b120      	cbz	r0, 8001d5a <analizarLineaUART+0xb2>
 8001d50:	2200      	movs	r2, #0
 8001d52:	4b8f      	ldr	r3, [pc, #572]	; (8001f90 <analizarLineaUART+0x2e8>)
 8001d54:	701a      	strb	r2, [r3, #0]
 8001d56:	f7ff fe09 	bl	800196c <print_G0_fin_and_coordenadas>
 8001d5a:	e9d5 0100 	ldrd	r0, r1, [r5]
 8001d5e:	2200      	movs	r2, #0
 8001d60:	4b8c      	ldr	r3, [pc, #560]	; (8001f94 <analizarLineaUART+0x2ec>)
 8001d62:	f7fe fecd 	bl	8000b00 <__aeabi_dcmpeq>
 8001d66:	b130      	cbz	r0, 8001d76 <analizarLineaUART+0xce>
 8001d68:	2201      	movs	r2, #1
 8001d6a:	2120      	movs	r1, #32
 8001d6c:	488a      	ldr	r0, [pc, #552]	; (8001f98 <analizarLineaUART+0x2f0>)
 8001d6e:	f002 f99d 	bl	80040ac <HAL_GPIO_WritePin>
 8001d72:	f7ff fdfb 	bl	800196c <print_G0_fin_and_coordenadas>
 8001d76:	e9d5 0100 	ldrd	r0, r1, [r5]
 8001d7a:	2200      	movs	r2, #0
 8001d7c:	4b87      	ldr	r3, [pc, #540]	; (8001f9c <analizarLineaUART+0x2f4>)
 8001d7e:	f7fe febf 	bl	8000b00 <__aeabi_dcmpeq>
 8001d82:	b160      	cbz	r0, 8001d9e <analizarLineaUART+0xf6>
 8001d84:	2200      	movs	r2, #0
 8001d86:	2120      	movs	r1, #32
 8001d88:	4883      	ldr	r0, [pc, #524]	; (8001f98 <analizarLineaUART+0x2f0>)
 8001d8a:	f002 f98f 	bl	80040ac <HAL_GPIO_WritePin>
 8001d8e:	f7ff ff1b 	bl	8001bc8 <analizar_switch_arranque>
 8001d92:	4b83      	ldr	r3, [pc, #524]	; (8001fa0 <analizarLineaUART+0x2f8>)
 8001d94:	7818      	ldrb	r0, [r3, #0]
 8001d96:	f7ff faf9 	bl	800138c <home_inicio_sec>
 8001d9a:	f7ff fde7 	bl	800196c <print_G0_fin_and_coordenadas>
 8001d9e:	e9d5 0100 	ldrd	r0, r1, [r5]
 8001da2:	2200      	movs	r2, #0
 8001da4:	4b7f      	ldr	r3, [pc, #508]	; (8001fa4 <analizarLineaUART+0x2fc>)
 8001da6:	f7fe feab 	bl	8000b00 <__aeabi_dcmpeq>
 8001daa:	b120      	cbz	r0, 8001db6 <analizarLineaUART+0x10e>
 8001dac:	2200      	movs	r2, #0
 8001dae:	2140      	movs	r1, #64	; 0x40
 8001db0:	4879      	ldr	r0, [pc, #484]	; (8001f98 <analizarLineaUART+0x2f0>)
 8001db2:	f002 f97b 	bl	80040ac <HAL_GPIO_WritePin>
 8001db6:	e9d5 0100 	ldrd	r0, r1, [r5]
 8001dba:	2200      	movs	r2, #0
 8001dbc:	4b7a      	ldr	r3, [pc, #488]	; (8001fa8 <analizarLineaUART+0x300>)
 8001dbe:	f7fe fe9f 	bl	8000b00 <__aeabi_dcmpeq>
 8001dc2:	b120      	cbz	r0, 8001dce <analizarLineaUART+0x126>
 8001dc4:	2201      	movs	r2, #1
 8001dc6:	2140      	movs	r1, #64	; 0x40
 8001dc8:	4873      	ldr	r0, [pc, #460]	; (8001f98 <analizarLineaUART+0x2f0>)
 8001dca:	f002 f96f 	bl	80040ac <HAL_GPIO_WritePin>
 8001dce:	e9d5 0100 	ldrd	r0, r1, [r5]
 8001dd2:	2200      	movs	r2, #0
 8001dd4:	4b75      	ldr	r3, [pc, #468]	; (8001fac <analizarLineaUART+0x304>)
 8001dd6:	f7fe fe93 	bl	8000b00 <__aeabi_dcmpeq>
 8001dda:	b108      	cbz	r0, 8001de0 <analizarLineaUART+0x138>
 8001ddc:	f7ff fdc6 	bl	800196c <print_G0_fin_and_coordenadas>
 8001de0:	a35d      	add	r3, pc, #372	; (adr r3, 8001f58 <analizarLineaUART+0x2b0>)
 8001de2:	e9d3 2300 	ldrd	r2, r3, [r3]
 8001de6:	e9d5 0100 	ldrd	r0, r1, [r5]
 8001dea:	f7fe fe89 	bl	8000b00 <__aeabi_dcmpeq>
 8001dee:	b108      	cbz	r0, 8001df4 <analizarLineaUART+0x14c>
 8001df0:	f7ff fdbc 	bl	800196c <print_G0_fin_and_coordenadas>
 8001df4:	a35a      	add	r3, pc, #360	; (adr r3, 8001f60 <analizarLineaUART+0x2b8>)
 8001df6:	e9d3 2300 	ldrd	r2, r3, [r3]
 8001dfa:	e9d5 0100 	ldrd	r0, r1, [r5]
 8001dfe:	f7fe fe7f 	bl	8000b00 <__aeabi_dcmpeq>
 8001e02:	b108      	cbz	r0, 8001e08 <analizarLineaUART+0x160>
 8001e04:	f7ff fdb2 	bl	800196c <print_G0_fin_and_coordenadas>
 8001e08:	2200      	movs	r2, #0
 8001e0a:	4b58      	ldr	r3, [pc, #352]	; (8001f6c <analizarLineaUART+0x2c4>)
 8001e0c:	e9c5 2300 	strd	r2, r3, [r5]
 8001e10:	4d67      	ldr	r5, [pc, #412]	; (8001fb0 <analizarLineaUART+0x308>)
 8001e12:	2200      	movs	r2, #0
 8001e14:	e9d5 6700 	ldrd	r6, r7, [r5]
 8001e18:	4b5c      	ldr	r3, [pc, #368]	; (8001f8c <analizarLineaUART+0x2e4>)
 8001e1a:	4630      	mov	r0, r6
 8001e1c:	4639      	mov	r1, r7
 8001e1e:	f7fe fe6f 	bl	8000b00 <__aeabi_dcmpeq>
 8001e22:	4681      	mov	r9, r0
 8001e24:	2800      	cmp	r0, #0
 8001e26:	f000 8265 	beq.w	80022f4 <analizarLineaUART+0x64c>
 8001e2a:	2201      	movs	r2, #1
 8001e2c:	4b58      	ldr	r3, [pc, #352]	; (8001f90 <analizarLineaUART+0x2e8>)
 8001e2e:	701a      	strb	r2, [r3, #0]
 8001e30:	f7ff fd9c 	bl	800196c <print_G0_fin_and_coordenadas>
 8001e34:	2200      	movs	r2, #0
 8001e36:	4b4d      	ldr	r3, [pc, #308]	; (8001f6c <analizarLineaUART+0x2c4>)
 8001e38:	e9c5 2300 	strd	r2, r3, [r5]
 8001e3c:	e9d5 2300 	ldrd	r2, r3, [r5]
 8001e40:	e9cd 2300 	strd	r2, r3, [sp]
 8001e44:	e9dd 0100 	ldrd	r0, r1, [sp]
 8001e48:	2200      	movs	r2, #0
 8001e4a:	2300      	movs	r3, #0
 8001e4c:	f7fe fe58 	bl	8000b00 <__aeabi_dcmpeq>
 8001e50:	b940      	cbnz	r0, 8001e64 <analizarLineaUART+0x1bc>
 8001e52:	e9dd 0100 	ldrd	r0, r1, [sp]
 8001e56:	2200      	movs	r2, #0
 8001e58:	4b56      	ldr	r3, [pc, #344]	; (8001fb4 <analizarLineaUART+0x30c>)
 8001e5a:	f7fe fe51 	bl	8000b00 <__aeabi_dcmpeq>
 8001e5e:	2800      	cmp	r0, #0
 8001e60:	f000 80ff 	beq.w	8002062 <analizarLineaUART+0x3ba>
 8001e64:	e9d8 6700 	ldrd	r6, r7, [r8]
 8001e68:	4b49      	ldr	r3, [pc, #292]	; (8001f90 <analizarLineaUART+0x2e8>)
 8001e6a:	4d45      	ldr	r5, [pc, #276]	; (8001f80 <analizarLineaUART+0x2d8>)
 8001e6c:	781b      	ldrb	r3, [r3, #0]
 8001e6e:	2b00      	cmp	r3, #0
 8001e70:	f040 82d7 	bne.w	8002422 <analizarLineaUART+0x77a>
 8001e74:	a334      	add	r3, pc, #208	; (adr r3, 8001f48 <analizarLineaUART+0x2a0>)
 8001e76:	e9d3 2300 	ldrd	r2, r3, [r3]
 8001e7a:	4630      	mov	r0, r6
 8001e7c:	4639      	mov	r1, r7
 8001e7e:	f7fe fe3f 	bl	8000b00 <__aeabi_dcmpeq>
 8001e82:	b9b8      	cbnz	r0, 8001eb4 <analizarLineaUART+0x20c>
 8001e84:	f8df b130 	ldr.w	fp, [pc, #304]	; 8001fb8 <analizarLineaUART+0x310>
 8001e88:	e9db 0102 	ldrd	r0, r1, [fp, #8]
 8001e8c:	f7fe fba2 	bl	80005d4 <__aeabi_l2d>
 8001e90:	e9db 2308 	ldrd	r2, r3, [fp, #32]
 8001e94:	4680      	mov	r8, r0
 8001e96:	4689      	mov	r9, r1
 8001e98:	4630      	mov	r0, r6
 8001e9a:	4639      	mov	r1, r7
 8001e9c:	f7fe fbc8 	bl	8000630 <__aeabi_dmul>
 8001ea0:	4602      	mov	r2, r0
 8001ea2:	460b      	mov	r3, r1
 8001ea4:	4640      	mov	r0, r8
 8001ea6:	4649      	mov	r1, r9
 8001ea8:	f7fe fa0c 	bl	80002c4 <__adddf3>
 8001eac:	f7fe ff2a 	bl	8000d04 <__aeabi_d2lz>
 8001eb0:	e9cb 0102 	strd	r0, r1, [fp, #8]
 8001eb4:	4b30      	ldr	r3, [pc, #192]	; (8001f78 <analizarLineaUART+0x2d0>)
 8001eb6:	e9d3 8900 	ldrd	r8, r9, [r3]
 8001eba:	a323      	add	r3, pc, #140	; (adr r3, 8001f48 <analizarLineaUART+0x2a0>)
 8001ebc:	e9d3 2300 	ldrd	r2, r3, [r3]
 8001ec0:	4640      	mov	r0, r8
 8001ec2:	4649      	mov	r1, r9
 8001ec4:	f7fe fe1c 	bl	8000b00 <__aeabi_dcmpeq>
 8001ec8:	b9b8      	cbnz	r0, 8001efa <analizarLineaUART+0x252>
 8001eca:	f8df b0f0 	ldr.w	fp, [pc, #240]	; 8001fbc <analizarLineaUART+0x314>
 8001ece:	e9db 0102 	ldrd	r0, r1, [fp, #8]
 8001ed2:	f7fe fb7f 	bl	80005d4 <__aeabi_l2d>
 8001ed6:	e9db 2308 	ldrd	r2, r3, [fp, #32]
 8001eda:	4606      	mov	r6, r0
 8001edc:	460f      	mov	r7, r1
 8001ede:	4640      	mov	r0, r8
 8001ee0:	4649      	mov	r1, r9
 8001ee2:	f7fe fba5 	bl	8000630 <__aeabi_dmul>
 8001ee6:	4602      	mov	r2, r0
 8001ee8:	460b      	mov	r3, r1
 8001eea:	4630      	mov	r0, r6
 8001eec:	4639      	mov	r1, r7
 8001eee:	f7fe f9e9 	bl	80002c4 <__adddf3>
 8001ef2:	f7fe ff07 	bl	8000d04 <__aeabi_d2lz>
 8001ef6:	e9cb 0102 	strd	r0, r1, [fp, #8]
 8001efa:	4b20      	ldr	r3, [pc, #128]	; (8001f7c <analizarLineaUART+0x2d4>)
 8001efc:	e9d3 8900 	ldrd	r8, r9, [r3]
 8001f00:	a311      	add	r3, pc, #68	; (adr r3, 8001f48 <analizarLineaUART+0x2a0>)
 8001f02:	e9d3 2300 	ldrd	r2, r3, [r3]
 8001f06:	4640      	mov	r0, r8
 8001f08:	4649      	mov	r1, r9
 8001f0a:	f7fe fdf9 	bl	8000b00 <__aeabi_dcmpeq>
 8001f0e:	2800      	cmp	r0, #0
 8001f10:	d158      	bne.n	8001fc4 <analizarLineaUART+0x31c>
 8001f12:	f8df b0ac 	ldr.w	fp, [pc, #172]	; 8001fc0 <analizarLineaUART+0x318>
 8001f16:	e9db 0102 	ldrd	r0, r1, [fp, #8]
 8001f1a:	f7fe fb5b 	bl	80005d4 <__aeabi_l2d>
 8001f1e:	e9db 2308 	ldrd	r2, r3, [fp, #32]
 8001f22:	4606      	mov	r6, r0
 8001f24:	460f      	mov	r7, r1
 8001f26:	4640      	mov	r0, r8
 8001f28:	4649      	mov	r1, r9
 8001f2a:	f7fe fb81 	bl	8000630 <__aeabi_dmul>
 8001f2e:	4602      	mov	r2, r0
 8001f30:	460b      	mov	r3, r1
 8001f32:	4630      	mov	r0, r6
 8001f34:	4639      	mov	r1, r7
 8001f36:	f7fe f9c5 	bl	80002c4 <__adddf3>
 8001f3a:	f7fe fee3 	bl	8000d04 <__aeabi_d2lz>
 8001f3e:	e9cb 0102 	strd	r0, r1, [fp, #8]
 8001f42:	e03f      	b.n	8001fc4 <analizarLineaUART+0x31c>
 8001f44:	f3af 8000 	nop.w
 8001f48:	00000000 	.word	0x00000000
 8001f4c:	40f86a00 	.word	0x40f86a00
 8001f50:	00000000 	.word	0x00000000
 8001f54:	4056c000 	.word	0x4056c000
 8001f58:	00000000 	.word	0x00000000
 8001f5c:	4062c000 	.word	0x4062c000
 8001f60:	00000000 	.word	0x00000000
 8001f64:	4062e000 	.word	0x4062e000
 8001f68:	20000261 	.word	0x20000261
 8001f6c:	bff00000 	.word	0xbff00000
 8001f70:	20000158 	.word	0x20000158
 8001f74:	200001b8 	.word	0x200001b8
 8001f78:	20000208 	.word	0x20000208
 8001f7c:	20000258 	.word	0x20000258
 8001f80:	200000f0 	.word	0x200000f0
 8001f84:	20000140 	.word	0x20000140
 8001f88:	20000168 	.word	0x20000168
 8001f8c:	40568000 	.word	0x40568000
 8001f90:	20000004 	.word	0x20000004
 8001f94:	40310000 	.word	0x40310000
 8001f98:	40010c00 	.word	0x40010c00
 8001f9c:	40320000 	.word	0x40320000
 8001fa0:	20000c61 	.word	0x20000c61
 8001fa4:	40220000 	.word	0x40220000
 8001fa8:	401c0000 	.word	0x401c0000
 8001fac:	405c8000 	.word	0x405c8000
 8001fb0:	20000150 	.word	0x20000150
 8001fb4:	3ff00000 	.word	0x3ff00000
 8001fb8:	20000170 	.word	0x20000170
 8001fbc:	200001c0 	.word	0x200001c0
 8001fc0:	20000210 	.word	0x20000210
 8001fc4:	e9d5 8900 	ldrd	r8, r9, [r5]
 8001fc8:	a3b9      	add	r3, pc, #740	; (adr r3, 80022b0 <analizarLineaUART+0x608>)
 8001fca:	e9d3 2300 	ldrd	r2, r3, [r3]
 8001fce:	4640      	mov	r0, r8
 8001fd0:	4649      	mov	r1, r9
 8001fd2:	f7fe fd95 	bl	8000b00 <__aeabi_dcmpeq>
 8001fd6:	b9b0      	cbnz	r0, 8002006 <analizarLineaUART+0x35e>
 8001fd8:	4db7      	ldr	r5, [pc, #732]	; (80022b8 <analizarLineaUART+0x610>)
 8001fda:	e9d5 0102 	ldrd	r0, r1, [r5, #8]
 8001fde:	f7fe faf9 	bl	80005d4 <__aeabi_l2d>
 8001fe2:	e9d5 2308 	ldrd	r2, r3, [r5, #32]
 8001fe6:	4606      	mov	r6, r0
 8001fe8:	460f      	mov	r7, r1
 8001fea:	4640      	mov	r0, r8
 8001fec:	4649      	mov	r1, r9
 8001fee:	f7fe fb1f 	bl	8000630 <__aeabi_dmul>
 8001ff2:	4602      	mov	r2, r0
 8001ff4:	460b      	mov	r3, r1
 8001ff6:	4630      	mov	r0, r6
 8001ff8:	4639      	mov	r1, r7
 8001ffa:	f7fe f963 	bl	80002c4 <__adddf3>
 8001ffe:	f7fe fe81 	bl	8000d04 <__aeabi_d2lz>
 8002002:	e9c5 0102 	strd	r0, r1, [r5, #8]
 8002006:	4bad      	ldr	r3, [pc, #692]	; (80022bc <analizarLineaUART+0x614>)
 8002008:	e9d3 8900 	ldrd	r8, r9, [r3]
 800200c:	a3a8      	add	r3, pc, #672	; (adr r3, 80022b0 <analizarLineaUART+0x608>)
 800200e:	e9d3 2300 	ldrd	r2, r3, [r3]
 8002012:	4640      	mov	r0, r8
 8002014:	4649      	mov	r1, r9
 8002016:	f7fe fd73 	bl	8000b00 <__aeabi_dcmpeq>
 800201a:	b9b0      	cbnz	r0, 800204a <analizarLineaUART+0x3a2>
 800201c:	4da8      	ldr	r5, [pc, #672]	; (80022c0 <analizarLineaUART+0x618>)
 800201e:	e9d5 0102 	ldrd	r0, r1, [r5, #8]
 8002022:	f7fe fad7 	bl	80005d4 <__aeabi_l2d>
 8002026:	e9d5 2308 	ldrd	r2, r3, [r5, #32]
 800202a:	4606      	mov	r6, r0
 800202c:	460f      	mov	r7, r1
 800202e:	4640      	mov	r0, r8
 8002030:	4649      	mov	r1, r9
 8002032:	f7fe fafd 	bl	8000630 <__aeabi_dmul>
 8002036:	4602      	mov	r2, r0
 8002038:	460b      	mov	r3, r1
 800203a:	4630      	mov	r0, r6
 800203c:	4639      	mov	r1, r7
 800203e:	f7fe f941 	bl	80002c4 <__adddf3>
 8002042:	f7fe fe5f 	bl	8000d04 <__aeabi_d2lz>
 8002046:	e9c5 0102 	strd	r0, r1, [r5, #8]
 800204a:	e9dd 0100 	ldrd	r0, r1, [sp]
 800204e:	4b9d      	ldr	r3, [pc, #628]	; (80022c4 <analizarLineaUART+0x61c>)
 8002050:	e9d3 2300 	ldrd	r2, r3, [r3]
 8002054:	f000 fdd8 	bl	8002c08 <run_motores>
 8002058:	4b9b      	ldr	r3, [pc, #620]	; (80022c8 <analizarLineaUART+0x620>)
 800205a:	781b      	ldrb	r3, [r3, #0]
 800205c:	b90b      	cbnz	r3, 8002062 <analizarLineaUART+0x3ba>
 800205e:	f7ff fc85 	bl	800196c <print_G0_fin_and_coordenadas>
 8002062:	4d9a      	ldr	r5, [pc, #616]	; (80022cc <analizarLineaUART+0x624>)
 8002064:	2200      	movs	r2, #0
 8002066:	e9d5 0100 	ldrd	r0, r1, [r5]
 800206a:	4b99      	ldr	r3, [pc, #612]	; (80022d0 <analizarLineaUART+0x628>)
 800206c:	f7fe fd48 	bl	8000b00 <__aeabi_dcmpeq>
 8002070:	b150      	cbz	r0, 8002088 <analizarLineaUART+0x3e0>
 8002072:	f7ff f8e1 	bl	8001238 <home_secuencia>
 8002076:	4897      	ldr	r0, [pc, #604]	; (80022d4 <analizarLineaUART+0x62c>)
 8002078:	f003 f8cc 	bl	8005214 <puts>
 800207c:	f7ff fc76 	bl	800196c <print_G0_fin_and_coordenadas>
 8002080:	2200      	movs	r2, #0
 8002082:	4b95      	ldr	r3, [pc, #596]	; (80022d8 <analizarLineaUART+0x630>)
 8002084:	e9c5 2300 	strd	r2, r3, [r5]
 8002088:	f81a 3004 	ldrb.w	r3, [sl, r4]
 800208c:	2b3a      	cmp	r3, #58	; 0x3a
 800208e:	d165      	bne.n	800215c <analizarLineaUART+0x4b4>
 8002090:	eb0a 0604 	add.w	r6, sl, r4
 8002094:	7ab0      	ldrb	r0, [r6, #10]
 8002096:	f7ff fd4d 	bl	8001b34 <_HEX_to_int>
 800209a:	4601      	mov	r1, r0
 800209c:	7d30      	ldrb	r0, [r6, #20]
 800209e:	f7ff fd49 	bl	8001b34 <_HEX_to_int>
 80020a2:	4607      	mov	r7, r0
 80020a4:	7fb0      	ldrb	r0, [r6, #30]
 80020a6:	f7ff fd45 	bl	8001b34 <_HEX_to_int>
 80020aa:	4605      	mov	r5, r0
 80020ac:	f896 0028 	ldrb.w	r0, [r6, #40]	; 0x28
 80020b0:	f7ff fd40 	bl	8001b34 <_HEX_to_int>
 80020b4:	eb00 3101 	add.w	r1, r0, r1, lsl #12
 80020b8:	eb01 2107 	add.w	r1, r1, r7, lsl #8
 80020bc:	eb01 1105 	add.w	r1, r1, r5, lsl #4
 80020c0:	4d86      	ldr	r5, [pc, #536]	; (80022dc <analizarLineaUART+0x634>)
 80020c2:	f896 0032 	ldrb.w	r0, [r6, #50]	; 0x32
 80020c6:	b289      	uxth	r1, r1
 80020c8:	8029      	strh	r1, [r5, #0]
 80020ca:	f7ff fd33 	bl	8001b34 <_HEX_to_int>
 80020ce:	4607      	mov	r7, r0
 80020d0:	f896 003c 	ldrb.w	r0, [r6, #60]	; 0x3c
 80020d4:	f7ff fd2e 	bl	8001b34 <_HEX_to_int>
 80020d8:	0602      	lsls	r2, r0, #24
 80020da:	eb02 7207 	add.w	r2, r2, r7, lsl #28
 80020de:	f896 0046 	ldrb.w	r0, [r6, #70]	; 0x46
 80020e2:	9203      	str	r2, [sp, #12]
 80020e4:	f7ff fd26 	bl	8001b34 <_HEX_to_int>
 80020e8:	9000      	str	r0, [sp, #0]
 80020ea:	f896 0050 	ldrb.w	r0, [r6, #80]	; 0x50
 80020ee:	f7ff fd21 	bl	8001b34 <_HEX_to_int>
 80020f2:	4683      	mov	fp, r0
 80020f4:	f896 005a 	ldrb.w	r0, [r6, #90]	; 0x5a
 80020f8:	f7ff fd1c 	bl	8001b34 <_HEX_to_int>
 80020fc:	4681      	mov	r9, r0
 80020fe:	f896 0064 	ldrb.w	r0, [r6, #100]	; 0x64
 8002102:	f7ff fd17 	bl	8001b34 <_HEX_to_int>
 8002106:	4680      	mov	r8, r0
 8002108:	f896 006e 	ldrb.w	r0, [r6, #110]	; 0x6e
 800210c:	f7ff fd12 	bl	8001b34 <_HEX_to_int>
 8002110:	4607      	mov	r7, r0
 8002112:	f896 0078 	ldrb.w	r0, [r6, #120]	; 0x78
 8002116:	f7ff fd0d 	bl	8001b34 <_HEX_to_int>
 800211a:	9a03      	ldr	r2, [sp, #12]
 800211c:	9b00      	ldr	r3, [sp, #0]
 800211e:	4402      	add	r2, r0
 8002120:	eb02 5203 	add.w	r2, r2, r3, lsl #20
 8002124:	eb02 430b 	add.w	r3, r2, fp, lsl #16
 8002128:	eb03 3309 	add.w	r3, r3, r9, lsl #12
 800212c:	eb03 2308 	add.w	r3, r3, r8, lsl #8
 8002130:	eb03 1707 	add.w	r7, r3, r7, lsl #4
 8002134:	4e6a      	ldr	r6, [pc, #424]	; (80022e0 <analizarLineaUART+0x638>)
 8002136:	f1a1 0310 	sub.w	r3, r1, #16
 800213a:	2b35      	cmp	r3, #53	; 0x35
 800213c:	6037      	str	r7, [r6, #0]
 800213e:	f200 81db 	bhi.w	80024f8 <analizarLineaUART+0x850>
 8002142:	4b68      	ldr	r3, [pc, #416]	; (80022e4 <analizarLineaUART+0x63c>)
 8002144:	f843 7021 	str.w	r7, [r3, r1, lsl #2]
 8002148:	882b      	ldrh	r3, [r5, #0]
 800214a:	2b04      	cmp	r3, #4
 800214c:	d101      	bne.n	8002152 <analizarLineaUART+0x4aa>
 800214e:	f7ff fa17 	bl	8001580 <vector_to_RAM>
 8002152:	6832      	ldr	r2, [r6, #0]
 8002154:	8829      	ldrh	r1, [r5, #0]
 8002156:	4864      	ldr	r0, [pc, #400]	; (80022e8 <analizarLineaUART+0x640>)
 8002158:	f002 ffc2 	bl	80050e0 <iprintf>
 800215c:	2300      	movs	r3, #0
 800215e:	200a      	movs	r0, #10
 8002160:	4619      	mov	r1, r3
 8002162:	4454      	add	r4, sl
 8002164:	fb00 f203 	mul.w	r2, r0, r3
 8002168:	3301      	adds	r3, #1
 800216a:	f5b3 7f80 	cmp.w	r3, #256	; 0x100
 800216e:	54a1      	strb	r1, [r4, r2]
 8002170:	d1f8      	bne.n	8002164 <analizarLineaUART+0x4bc>
 8002172:	b007      	add	sp, #28
 8002174:	e8bd 8ff0 	ldmia.w	sp!, {r4, r5, r6, r7, r8, r9, sl, fp, pc}
 8002178:	2b47      	cmp	r3, #71	; 0x47
 800217a:	d107      	bne.n	800218c <analizarLineaUART+0x4e4>
 800217c:	4621      	mov	r1, r4
 800217e:	f10d 0017 	add.w	r0, sp, #23
 8002182:	f7ff fc63 	bl	8001a4c <string_to_double>
 8002186:	4b51      	ldr	r3, [pc, #324]	; (80022cc <analizarLineaUART+0x624>)
 8002188:	e9c3 0100 	strd	r0, r1, [r3]
 800218c:	220a      	movs	r2, #10
 800218e:	f89d 3017 	ldrb.w	r3, [sp, #23]
 8002192:	fb02 a303 	mla	r3, r2, r3, sl
 8002196:	5d1b      	ldrb	r3, [r3, r4]
 8002198:	2b50      	cmp	r3, #80	; 0x50
 800219a:	d107      	bne.n	80021ac <analizarLineaUART+0x504>
 800219c:	4621      	mov	r1, r4
 800219e:	f10d 0017 	add.w	r0, sp, #23
 80021a2:	f7ff fc53 	bl	8001a4c <string_to_double>
 80021a6:	4b51      	ldr	r3, [pc, #324]	; (80022ec <analizarLineaUART+0x644>)
 80021a8:	e9c3 0100 	strd	r0, r1, [r3]
 80021ac:	220a      	movs	r2, #10
 80021ae:	f89d 3017 	ldrb.w	r3, [sp, #23]
 80021b2:	fb02 a303 	mla	r3, r2, r3, sl
 80021b6:	5d1b      	ldrb	r3, [r3, r4]
 80021b8:	2b53      	cmp	r3, #83	; 0x53
 80021ba:	d106      	bne.n	80021ca <analizarLineaUART+0x522>
 80021bc:	4621      	mov	r1, r4
 80021be:	f10d 0017 	add.w	r0, sp, #23
 80021c2:	f7ff fc43 	bl	8001a4c <string_to_double>
 80021c6:	e9c9 0100 	strd	r0, r1, [r9]
 80021ca:	220a      	movs	r2, #10
 80021cc:	f89d 3017 	ldrb.w	r3, [sp, #23]
 80021d0:	fb02 a303 	mla	r3, r2, r3, sl
 80021d4:	5d1b      	ldrb	r3, [r3, r4]
 80021d6:	2b46      	cmp	r3, #70	; 0x46
 80021d8:	d107      	bne.n	80021ea <analizarLineaUART+0x542>
 80021da:	4621      	mov	r1, r4
 80021dc:	f10d 0017 	add.w	r0, sp, #23
 80021e0:	f7ff fc34 	bl	8001a4c <string_to_double>
 80021e4:	4b37      	ldr	r3, [pc, #220]	; (80022c4 <analizarLineaUART+0x61c>)
 80021e6:	e9c3 0100 	strd	r0, r1, [r3]
 80021ea:	220a      	movs	r2, #10
 80021ec:	f89d 3017 	ldrb.w	r3, [sp, #23]
 80021f0:	fb02 a303 	mla	r3, r2, r3, sl
 80021f4:	5d1b      	ldrb	r3, [r3, r4]
 80021f6:	2b4d      	cmp	r3, #77	; 0x4d
 80021f8:	d106      	bne.n	8002208 <analizarLineaUART+0x560>
 80021fa:	4621      	mov	r1, r4
 80021fc:	f10d 0017 	add.w	r0, sp, #23
 8002200:	f7ff fc24 	bl	8001a4c <string_to_double>
 8002204:	e9c5 0100 	strd	r0, r1, [r5]
 8002208:	220a      	movs	r2, #10
 800220a:	f89d 3017 	ldrb.w	r3, [sp, #23]
 800220e:	fb02 a303 	mla	r3, r2, r3, sl
 8002212:	5d1b      	ldrb	r3, [r3, r4]
 8002214:	2b58      	cmp	r3, #88	; 0x58
 8002216:	d106      	bne.n	8002226 <analizarLineaUART+0x57e>
 8002218:	4621      	mov	r1, r4
 800221a:	f10d 0017 	add.w	r0, sp, #23
 800221e:	f7ff fc15 	bl	8001a4c <string_to_double>
 8002222:	e9c8 0100 	strd	r0, r1, [r8]
 8002226:	220a      	movs	r2, #10
 8002228:	f89d 3017 	ldrb.w	r3, [sp, #23]
 800222c:	fb02 a303 	mla	r3, r2, r3, sl
 8002230:	5d1b      	ldrb	r3, [r3, r4]
 8002232:	2b59      	cmp	r3, #89	; 0x59
 8002234:	d107      	bne.n	8002246 <analizarLineaUART+0x59e>
 8002236:	4621      	mov	r1, r4
 8002238:	f10d 0017 	add.w	r0, sp, #23
 800223c:	f7ff fc06 	bl	8001a4c <string_to_double>
 8002240:	4b2b      	ldr	r3, [pc, #172]	; (80022f0 <analizarLineaUART+0x648>)
 8002242:	e9c3 0100 	strd	r0, r1, [r3]
 8002246:	220a      	movs	r2, #10
 8002248:	f89d 3017 	ldrb.w	r3, [sp, #23]
 800224c:	fb02 a303 	mla	r3, r2, r3, sl
 8002250:	5d1b      	ldrb	r3, [r3, r4]
 8002252:	2b5a      	cmp	r3, #90	; 0x5a
 8002254:	d106      	bne.n	8002264 <analizarLineaUART+0x5bc>
 8002256:	4621      	mov	r1, r4
 8002258:	f10d 0017 	add.w	r0, sp, #23
 800225c:	f7ff fbf6 	bl	8001a4c <string_to_double>
 8002260:	e9cb 0100 	strd	r0, r1, [fp]
 8002264:	220a      	movs	r2, #10
 8002266:	f89d 3017 	ldrb.w	r3, [sp, #23]
 800226a:	fb02 a303 	mla	r3, r2, r3, sl
 800226e:	5d1b      	ldrb	r3, [r3, r4]
 8002270:	2b42      	cmp	r3, #66	; 0x42
 8002272:	d106      	bne.n	8002282 <analizarLineaUART+0x5da>
 8002274:	4621      	mov	r1, r4
 8002276:	f10d 0017 	add.w	r0, sp, #23
 800227a:	f7ff fbe7 	bl	8001a4c <string_to_double>
 800227e:	e9c6 0100 	strd	r0, r1, [r6]
 8002282:	220a      	movs	r2, #10
 8002284:	f89d 3017 	ldrb.w	r3, [sp, #23]
 8002288:	fb02 a303 	mla	r3, r2, r3, sl
 800228c:	5d1b      	ldrb	r3, [r3, r4]
 800228e:	2b43      	cmp	r3, #67	; 0x43
 8002290:	d106      	bne.n	80022a0 <analizarLineaUART+0x5f8>
 8002292:	4621      	mov	r1, r4
 8002294:	f10d 0017 	add.w	r0, sp, #23
 8002298:	f7ff fbd8 	bl	8001a4c <string_to_double>
 800229c:	e9c7 0100 	strd	r0, r1, [r7]
 80022a0:	f89d 3017 	ldrb.w	r3, [sp, #23]
 80022a4:	3301      	adds	r3, #1
 80022a6:	f88d 3017 	strb.w	r3, [sp, #23]
 80022aa:	e527      	b.n	8001cfc <analizarLineaUART+0x54>
 80022ac:	f3af 8000 	nop.w
 80022b0:	00000000 	.word	0x00000000
 80022b4:	40f86a00 	.word	0x40f86a00
 80022b8:	200000a8 	.word	0x200000a8
 80022bc:	20000140 	.word	0x20000140
 80022c0:	200000f8 	.word	0x200000f8
 80022c4:	20000148 	.word	0x20000148
 80022c8:	20000cf8 	.word	0x20000cf8
 80022cc:	20000150 	.word	0x20000150
 80022d0:	403c0000 	.word	0x403c0000
 80022d4:	08006222 	.word	0x08006222
 80022d8:	bff00000 	.word	0xbff00000
 80022dc:	20000cf0 	.word	0x20000cf0
 80022e0:	20000cf4 	.word	0x20000cf4
 80022e4:	20000cfc 	.word	0x20000cfc
 80022e8:	0800622a 	.word	0x0800622a
 80022ec:	20000160 	.word	0x20000160
 80022f0:	20000208 	.word	0x20000208
 80022f4:	4630      	mov	r0, r6
 80022f6:	a38e      	add	r3, pc, #568	; (adr r3, 8002530 <analizarLineaUART+0x888>)
 80022f8:	e9d3 2300 	ldrd	r2, r3, [r3]
 80022fc:	4639      	mov	r1, r7
 80022fe:	f7fe fbff 	bl	8000b00 <__aeabi_dcmpeq>
 8002302:	b118      	cbz	r0, 800230c <analizarLineaUART+0x664>
 8002304:	4b8e      	ldr	r3, [pc, #568]	; (8002540 <analizarLineaUART+0x898>)
 8002306:	f883 9000 	strb.w	r9, [r3]
 800230a:	e591      	b.n	8001e30 <analizarLineaUART+0x188>
 800230c:	2200      	movs	r2, #0
 800230e:	4630      	mov	r0, r6
 8002310:	4639      	mov	r1, r7
 8002312:	4b8c      	ldr	r3, [pc, #560]	; (8002544 <analizarLineaUART+0x89c>)
 8002314:	f7fe fbf4 	bl	8000b00 <__aeabi_dcmpeq>
 8002318:	2800      	cmp	r0, #0
 800231a:	f43f ad8f 	beq.w	8001e3c <analizarLineaUART+0x194>
 800231e:	e9d8 6700 	ldrd	r6, r7, [r8]
 8002322:	a385      	add	r3, pc, #532	; (adr r3, 8002538 <analizarLineaUART+0x890>)
 8002324:	e9d3 2300 	ldrd	r2, r3, [r3]
 8002328:	4630      	mov	r0, r6
 800232a:	4639      	mov	r1, r7
 800232c:	f7fe fbe8 	bl	8000b00 <__aeabi_dcmpeq>
 8002330:	b968      	cbnz	r0, 800234e <analizarLineaUART+0x6a6>
 8002332:	f8df 9214 	ldr.w	r9, [pc, #532]	; 8002548 <analizarLineaUART+0x8a0>
 8002336:	4630      	mov	r0, r6
 8002338:	e9d9 2308 	ldrd	r2, r3, [r9, #32]
 800233c:	4639      	mov	r1, r7
 800233e:	f7fe f977 	bl	8000630 <__aeabi_dmul>
 8002342:	f7fe fcdf 	bl	8000d04 <__aeabi_d2lz>
 8002346:	e9c9 0100 	strd	r0, r1, [r9]
 800234a:	e9c9 0102 	strd	r0, r1, [r9, #8]
 800234e:	4b7f      	ldr	r3, [pc, #508]	; (800254c <analizarLineaUART+0x8a4>)
 8002350:	e9d3 6700 	ldrd	r6, r7, [r3]
 8002354:	a378      	add	r3, pc, #480	; (adr r3, 8002538 <analizarLineaUART+0x890>)
 8002356:	e9d3 2300 	ldrd	r2, r3, [r3]
 800235a:	4630      	mov	r0, r6
 800235c:	4639      	mov	r1, r7
 800235e:	f7fe fbcf 	bl	8000b00 <__aeabi_dcmpeq>
 8002362:	b968      	cbnz	r0, 8002380 <analizarLineaUART+0x6d8>
 8002364:	f8df 91e8 	ldr.w	r9, [pc, #488]	; 8002550 <analizarLineaUART+0x8a8>
 8002368:	4630      	mov	r0, r6
 800236a:	e9d9 2308 	ldrd	r2, r3, [r9, #32]
 800236e:	4639      	mov	r1, r7
 8002370:	f7fe f95e 	bl	8000630 <__aeabi_dmul>
 8002374:	f7fe fcc6 	bl	8000d04 <__aeabi_d2lz>
 8002378:	e9c9 0100 	strd	r0, r1, [r9]
 800237c:	e9c9 0102 	strd	r0, r1, [r9, #8]
 8002380:	e9db 6700 	ldrd	r6, r7, [fp]
 8002384:	a36c      	add	r3, pc, #432	; (adr r3, 8002538 <analizarLineaUART+0x890>)
 8002386:	e9d3 2300 	ldrd	r2, r3, [r3]
 800238a:	4630      	mov	r0, r6
 800238c:	4639      	mov	r1, r7
 800238e:	f7fe fbb7 	bl	8000b00 <__aeabi_dcmpeq>
 8002392:	b968      	cbnz	r0, 80023b0 <analizarLineaUART+0x708>
 8002394:	f8df 91bc 	ldr.w	r9, [pc, #444]	; 8002554 <analizarLineaUART+0x8ac>
 8002398:	4630      	mov	r0, r6
 800239a:	e9d9 2308 	ldrd	r2, r3, [r9, #32]
 800239e:	4639      	mov	r1, r7
 80023a0:	f7fe f946 	bl	8000630 <__aeabi_dmul>
 80023a4:	f7fe fcae 	bl	8000d04 <__aeabi_d2lz>
 80023a8:	e9c9 0100 	strd	r0, r1, [r9]
 80023ac:	e9c9 0102 	strd	r0, r1, [r9, #8]
 80023b0:	4b69      	ldr	r3, [pc, #420]	; (8002558 <analizarLineaUART+0x8b0>)
 80023b2:	e9d3 6700 	ldrd	r6, r7, [r3]
 80023b6:	a360      	add	r3, pc, #384	; (adr r3, 8002538 <analizarLineaUART+0x890>)
 80023b8:	e9d3 2300 	ldrd	r2, r3, [r3]
 80023bc:	4630      	mov	r0, r6
 80023be:	4639      	mov	r1, r7
 80023c0:	f7fe fb9e 	bl	8000b00 <__aeabi_dcmpeq>
 80023c4:	b968      	cbnz	r0, 80023e2 <analizarLineaUART+0x73a>
 80023c6:	f8df 9194 	ldr.w	r9, [pc, #404]	; 800255c <analizarLineaUART+0x8b4>
 80023ca:	4630      	mov	r0, r6
 80023cc:	e9d9 2308 	ldrd	r2, r3, [r9, #32]
 80023d0:	4639      	mov	r1, r7
 80023d2:	f7fe f92d 	bl	8000630 <__aeabi_dmul>
 80023d6:	f7fe fc95 	bl	8000d04 <__aeabi_d2lz>
 80023da:	e9c9 0100 	strd	r0, r1, [r9]
 80023de:	e9c9 0102 	strd	r0, r1, [r9, #8]
 80023e2:	4b5f      	ldr	r3, [pc, #380]	; (8002560 <analizarLineaUART+0x8b8>)
 80023e4:	e9d3 6700 	ldrd	r6, r7, [r3]
 80023e8:	a353      	add	r3, pc, #332	; (adr r3, 8002538 <analizarLineaUART+0x890>)
 80023ea:	e9d3 2300 	ldrd	r2, r3, [r3]
 80023ee:	4630      	mov	r0, r6
 80023f0:	4639      	mov	r1, r7
 80023f2:	f7fe fb85 	bl	8000b00 <__aeabi_dcmpeq>
 80023f6:	b968      	cbnz	r0, 8002414 <analizarLineaUART+0x76c>
 80023f8:	f8df 9168 	ldr.w	r9, [pc, #360]	; 8002564 <analizarLineaUART+0x8bc>
 80023fc:	4630      	mov	r0, r6
 80023fe:	e9d9 2308 	ldrd	r2, r3, [r9, #32]
 8002402:	4639      	mov	r1, r7
 8002404:	f7fe f914 	bl	8000630 <__aeabi_dmul>
 8002408:	f7fe fc7c 	bl	8000d04 <__aeabi_d2lz>
 800240c:	e9c9 0100 	strd	r0, r1, [r9]
 8002410:	e9c9 0102 	strd	r0, r1, [r9, #8]
 8002414:	2200      	movs	r2, #0
 8002416:	4b54      	ldr	r3, [pc, #336]	; (8002568 <analizarLineaUART+0x8c0>)
 8002418:	e9c5 2300 	strd	r2, r3, [r5]
 800241c:	f7ff faa6 	bl	800196c <print_G0_fin_and_coordenadas>
 8002420:	e50c      	b.n	8001e3c <analizarLineaUART+0x194>
 8002422:	4630      	mov	r0, r6
 8002424:	a344      	add	r3, pc, #272	; (adr r3, 8002538 <analizarLineaUART+0x890>)
 8002426:	e9d3 2300 	ldrd	r2, r3, [r3]
 800242a:	4639      	mov	r1, r7
 800242c:	f7fe fb68 	bl	8000b00 <__aeabi_dcmpeq>
 8002430:	b958      	cbnz	r0, 800244a <analizarLineaUART+0x7a2>
 8002432:	f8df 8114 	ldr.w	r8, [pc, #276]	; 8002548 <analizarLineaUART+0x8a0>
 8002436:	4630      	mov	r0, r6
 8002438:	e9d8 2308 	ldrd	r2, r3, [r8, #32]
 800243c:	4639      	mov	r1, r7
 800243e:	f7fe f8f7 	bl	8000630 <__aeabi_dmul>
 8002442:	f7fe fc5f 	bl	8000d04 <__aeabi_d2lz>
 8002446:	e9c8 0102 	strd	r0, r1, [r8, #8]
 800244a:	4b40      	ldr	r3, [pc, #256]	; (800254c <analizarLineaUART+0x8a4>)
 800244c:	e9d3 6700 	ldrd	r6, r7, [r3]
 8002450:	a339      	add	r3, pc, #228	; (adr r3, 8002538 <analizarLineaUART+0x890>)
 8002452:	e9d3 2300 	ldrd	r2, r3, [r3]
 8002456:	4630      	mov	r0, r6
 8002458:	4639      	mov	r1, r7
 800245a:	f7fe fb51 	bl	8000b00 <__aeabi_dcmpeq>
 800245e:	b958      	cbnz	r0, 8002478 <analizarLineaUART+0x7d0>
 8002460:	f8df 80ec 	ldr.w	r8, [pc, #236]	; 8002550 <analizarLineaUART+0x8a8>
 8002464:	4630      	mov	r0, r6
 8002466:	e9d8 2308 	ldrd	r2, r3, [r8, #32]
 800246a:	4639      	mov	r1, r7
 800246c:	f7fe f8e0 	bl	8000630 <__aeabi_dmul>
 8002470:	f7fe fc48 	bl	8000d04 <__aeabi_d2lz>
 8002474:	e9c8 0102 	strd	r0, r1, [r8, #8]
 8002478:	e9db 6700 	ldrd	r6, r7, [fp]
 800247c:	a32e      	add	r3, pc, #184	; (adr r3, 8002538 <analizarLineaUART+0x890>)
 800247e:	e9d3 2300 	ldrd	r2, r3, [r3]
 8002482:	4630      	mov	r0, r6
 8002484:	4639      	mov	r1, r7
 8002486:	f7fe fb3b 	bl	8000b00 <__aeabi_dcmpeq>
 800248a:	b958      	cbnz	r0, 80024a4 <analizarLineaUART+0x7fc>
 800248c:	f8df 80c4 	ldr.w	r8, [pc, #196]	; 8002554 <analizarLineaUART+0x8ac>
 8002490:	4630      	mov	r0, r6
 8002492:	e9d8 2308 	ldrd	r2, r3, [r8, #32]
 8002496:	4639      	mov	r1, r7
 8002498:	f7fe f8ca 	bl	8000630 <__aeabi_dmul>
 800249c:	f7fe fc32 	bl	8000d04 <__aeabi_d2lz>
 80024a0:	e9c8 0102 	strd	r0, r1, [r8, #8]
 80024a4:	e9d5 6700 	ldrd	r6, r7, [r5]
 80024a8:	a323      	add	r3, pc, #140	; (adr r3, 8002538 <analizarLineaUART+0x890>)
 80024aa:	e9d3 2300 	ldrd	r2, r3, [r3]
 80024ae:	4630      	mov	r0, r6
 80024b0:	4639      	mov	r1, r7
 80024b2:	f7fe fb25 	bl	8000b00 <__aeabi_dcmpeq>
 80024b6:	b950      	cbnz	r0, 80024ce <analizarLineaUART+0x826>
 80024b8:	4d28      	ldr	r5, [pc, #160]	; (800255c <analizarLineaUART+0x8b4>)
 80024ba:	4630      	mov	r0, r6
 80024bc:	e9d5 2308 	ldrd	r2, r3, [r5, #32]
 80024c0:	4639      	mov	r1, r7
 80024c2:	f7fe f8b5 	bl	8000630 <__aeabi_dmul>
 80024c6:	f7fe fc1d 	bl	8000d04 <__aeabi_d2lz>
 80024ca:	e9c5 0102 	strd	r0, r1, [r5, #8]
 80024ce:	4b24      	ldr	r3, [pc, #144]	; (8002560 <analizarLineaUART+0x8b8>)
 80024d0:	e9d3 6700 	ldrd	r6, r7, [r3]
 80024d4:	a318      	add	r3, pc, #96	; (adr r3, 8002538 <analizarLineaUART+0x890>)
 80024d6:	e9d3 2300 	ldrd	r2, r3, [r3]
 80024da:	4630      	mov	r0, r6
 80024dc:	4639      	mov	r1, r7
 80024de:	f7fe fb0f 	bl	8000b00 <__aeabi_dcmpeq>
 80024e2:	2800      	cmp	r0, #0
 80024e4:	f47f adb1 	bne.w	800204a <analizarLineaUART+0x3a2>
 80024e8:	4d1e      	ldr	r5, [pc, #120]	; (8002564 <analizarLineaUART+0x8bc>)
 80024ea:	4630      	mov	r0, r6
 80024ec:	e9d5 2308 	ldrd	r2, r3, [r5, #32]
 80024f0:	4639      	mov	r1, r7
 80024f2:	f7fe f89d 	bl	8000630 <__aeabi_dmul>
 80024f6:	e5a4      	b.n	8002042 <analizarLineaUART+0x39a>
 80024f8:	2901      	cmp	r1, #1
 80024fa:	d103      	bne.n	8002504 <analizarLineaUART+0x85c>
 80024fc:	f7ff f9a8 	bl	8001850 <vector_to_Flash>
 8002500:	f7ff f83e 	bl	8001580 <vector_to_RAM>
 8002504:	882b      	ldrh	r3, [r5, #0]
 8002506:	2b02      	cmp	r3, #2
 8002508:	d101      	bne.n	800250e <analizarLineaUART+0x866>
 800250a:	f7ff f9dd 	bl	80018c8 <print_vecotr>
 800250e:	882f      	ldrh	r7, [r5, #0]
 8002510:	2f03      	cmp	r7, #3
 8002512:	f47f ae19 	bne.w	8002148 <analizarLineaUART+0x4a0>
 8002516:	4b15      	ldr	r3, [pc, #84]	; (800256c <analizarLineaUART+0x8c4>)
 8002518:	4915      	ldr	r1, [pc, #84]	; (8002570 <analizarLineaUART+0x8c8>)
 800251a:	6818      	ldr	r0, [r3, #0]
 800251c:	f7fd fe18 	bl	8000150 <__aeabi_fmul>
 8002520:	f7fe fb68 	bl	8000bf4 <__aeabi_f2uiz>
 8002524:	4639      	mov	r1, r7
 8002526:	b282      	uxth	r2, r0
 8002528:	4812      	ldr	r0, [pc, #72]	; (8002574 <analizarLineaUART+0x8cc>)
 800252a:	f002 fdd9 	bl	80050e0 <iprintf>
 800252e:	e60b      	b.n	8002148 <analizarLineaUART+0x4a0>
 8002530:	00000000 	.word	0x00000000
 8002534:	4056c000 	.word	0x4056c000
 8002538:	00000000 	.word	0x00000000
 800253c:	40f86a00 	.word	0x40f86a00
 8002540:	20000004 	.word	0x20000004
 8002544:	40570000 	.word	0x40570000
 8002548:	20000170 	.word	0x20000170
 800254c:	20000208 	.word	0x20000208
 8002550:	200001c0 	.word	0x200001c0
 8002554:	20000210 	.word	0x20000210
 8002558:	200000f0 	.word	0x200000f0
 800255c:	200000a8 	.word	0x200000a8
 8002560:	20000140 	.word	0x20000140
 8002564:	200000f8 	.word	0x200000f8
 8002568:	bff00000 	.word	0xbff00000
 800256c:	20000008 	.word	0x20000008
 8002570:	42c80000 	.word	0x42c80000
 8002574:	080061f0 	.word	0x080061f0

08002578 <main>:
 8002578:	e92d 47f0 	stmdb	sp!, {r4, r5, r6, r7, r8, r9, sl, lr}
 800257c:	f04f 0810 	mov.w	r8, #16
 8002580:	b090      	sub	sp, #64	; 0x40
 8002582:	f001 faa1 	bl	8003ac8 <HAL_Init>
 8002586:	f7fe ff97 	bl	80014b8 <SystemClock_Config>
 800258a:	4642      	mov	r2, r8
 800258c:	2100      	movs	r1, #0
 800258e:	a809      	add	r0, sp, #36	; 0x24
 8002590:	f002 fd9e 	bl	80050d0 <memset>
 8002594:	4b7a      	ldr	r3, [pc, #488]	; (8002780 <main+0x208>)
 8002596:	f64f 717b 	movw	r1, #65403	; 0xff7b
 800259a:	699a      	ldr	r2, [r3, #24]
 800259c:	4879      	ldr	r0, [pc, #484]	; (8002784 <main+0x20c>)
 800259e:	f042 0220 	orr.w	r2, r2, #32
 80025a2:	619a      	str	r2, [r3, #24]
 80025a4:	699a      	ldr	r2, [r3, #24]
 80025a6:	2400      	movs	r4, #0
 80025a8:	f002 0220 	and.w	r2, r2, #32
 80025ac:	9200      	str	r2, [sp, #0]
 80025ae:	9a00      	ldr	r2, [sp, #0]
 80025b0:	699a      	ldr	r2, [r3, #24]
 80025b2:	2701      	movs	r7, #1
 80025b4:	f042 0204 	orr.w	r2, r2, #4
 80025b8:	619a      	str	r2, [r3, #24]
 80025ba:	699a      	ldr	r2, [r3, #24]
 80025bc:	f04f 0902 	mov.w	r9, #2
 80025c0:	f002 0204 	and.w	r2, r2, #4
 80025c4:	9201      	str	r2, [sp, #4]
 80025c6:	9a01      	ldr	r2, [sp, #4]
 80025c8:	699a      	ldr	r2, [r3, #24]
 80025ca:	f04f 0a80 	mov.w	sl, #128	; 0x80
 80025ce:	f042 0208 	orr.w	r2, r2, #8
 80025d2:	619a      	str	r2, [r3, #24]
 80025d4:	699b      	ldr	r3, [r3, #24]
 80025d6:	2200      	movs	r2, #0
 80025d8:	f003 0308 	and.w	r3, r3, #8
 80025dc:	9302      	str	r3, [sp, #8]
 80025de:	9b02      	ldr	r3, [sp, #8]
 80025e0:	f001 fd64 	bl	80040ac <HAL_GPIO_WritePin>
 80025e4:	233f      	movs	r3, #63	; 0x3f
 80025e6:	4868      	ldr	r0, [pc, #416]	; (8002788 <main+0x210>)
 80025e8:	a909      	add	r1, sp, #36	; 0x24
 80025ea:	e9cd 3409 	strd	r3, r4, [sp, #36]	; 0x24
 80025ee:	940b      	str	r4, [sp, #44]	; 0x2c
 80025f0:	f001 fc7c 	bl	8003eec <HAL_GPIO_Init>
 80025f4:	f64f 737b 	movw	r3, #65403	; 0xff7b
 80025f8:	4862      	ldr	r0, [pc, #392]	; (8002784 <main+0x20c>)
 80025fa:	a909      	add	r1, sp, #36	; 0x24
 80025fc:	e9cd 3709 	strd	r3, r7, [sp, #36]	; 0x24
 8002600:	940b      	str	r4, [sp, #44]	; 0x2c
 8002602:	f8cd 9030 	str.w	r9, [sp, #48]	; 0x30
 8002606:	f001 fc71 	bl	8003eec <HAL_GPIO_Init>
 800260a:	485e      	ldr	r0, [pc, #376]	; (8002784 <main+0x20c>)
 800260c:	a909      	add	r1, sp, #36	; 0x24
 800260e:	e9cd a409 	strd	sl, r4, [sp, #36]	; 0x24
 8002612:	940b      	str	r4, [sp, #44]	; 0x2c
 8002614:	f001 fc6a 	bl	8003eec <HAL_GPIO_Init>
 8002618:	f44f 4316 	mov.w	r3, #38400	; 0x9600
 800261c:	4e5b      	ldr	r6, [pc, #364]	; (800278c <main+0x214>)
 800261e:	495c      	ldr	r1, [pc, #368]	; (8002790 <main+0x218>)
 8002620:	4630      	mov	r0, r6
 8002622:	e9c6 1300 	strd	r1, r3, [r6]
 8002626:	230c      	movs	r3, #12
 8002628:	e9c6 4402 	strd	r4, r4, [r6, #8]
 800262c:	e9c6 3405 	strd	r3, r4, [r6, #20]
 8002630:	6134      	str	r4, [r6, #16]
 8002632:	61f4      	str	r4, [r6, #28]
 8002634:	f002 fb0e 	bl	8004c54 <HAL_UART_Init>
 8002638:	4604      	mov	r4, r0
 800263a:	b108      	cbz	r0, 8002640 <main+0xc8>
 800263c:	b672      	cpsid	i
 800263e:	e7fe      	b.n	800263e <main+0xc6>
 8002640:	4601      	mov	r1, r0
 8002642:	4642      	mov	r2, r8
 8002644:	a805      	add	r0, sp, #20
 8002646:	f002 fd43 	bl	80050d0 <memset>
 800264a:	221c      	movs	r2, #28
 800264c:	4621      	mov	r1, r4
 800264e:	a809      	add	r0, sp, #36	; 0x24
 8002650:	4d50      	ldr	r5, [pc, #320]	; (8002794 <main+0x21c>)
 8002652:	e9cd 4403 	strd	r4, r4, [sp, #12]
 8002656:	f002 fd3b 	bl	80050d0 <memset>
 800265a:	4b4f      	ldr	r3, [pc, #316]	; (8002798 <main+0x220>)
 800265c:	f64f 72ff 	movw	r2, #65535	; 0xffff
 8002660:	e9c5 3400 	strd	r3, r4, [r5]
 8002664:	f44f 7380 	mov.w	r3, #256	; 0x100
 8002668:	4628      	mov	r0, r5
 800266a:	e9c5 2303 	strd	r2, r3, [r5, #12]
 800266e:	60ac      	str	r4, [r5, #8]
 8002670:	f8c5 a018 	str.w	sl, [r5, #24]
 8002674:	f002 f868 	bl	8004748 <HAL_TIM_Base_Init>
 8002678:	b108      	cbz	r0, 800267e <main+0x106>
 800267a:	b672      	cpsid	i
 800267c:	e7fe      	b.n	800267c <main+0x104>
 800267e:	f44f 5380 	mov.w	r3, #4096	; 0x1000
 8002682:	4628      	mov	r0, r5
 8002684:	a905      	add	r1, sp, #20
 8002686:	9305      	str	r3, [sp, #20]
 8002688:	f002 f947 	bl	800491a <HAL_TIM_ConfigClockSource>
 800268c:	b108      	cbz	r0, 8002692 <main+0x11a>
 800268e:	b672      	cpsid	i
 8002690:	e7fe      	b.n	8002690 <main+0x118>
 8002692:	4628      	mov	r0, r5
 8002694:	f002 f884 	bl	80047a0 <HAL_TIM_PWM_Init>
 8002698:	b108      	cbz	r0, 800269e <main+0x126>
 800269a:	b672      	cpsid	i
 800269c:	e7fe      	b.n	800269c <main+0x124>
 800269e:	e9cd 0003 	strd	r0, r0, [sp, #12]
 80026a2:	a903      	add	r1, sp, #12
 80026a4:	4628      	mov	r0, r5
 80026a6:	f002 fa2f 	bl	8004b08 <HAL_TIMEx_MasterConfigSynchronization>
 80026aa:	4602      	mov	r2, r0
 80026ac:	b108      	cbz	r0, 80026b2 <main+0x13a>
 80026ae:	b672      	cpsid	i
 80026b0:	e7fe      	b.n	80026b0 <main+0x138>
 80026b2:	2360      	movs	r3, #96	; 0x60
 80026b4:	900b      	str	r0, [sp, #44]	; 0x2c
 80026b6:	e9cd 3009 	strd	r3, r0, [sp, #36]	; 0x24
 80026ba:	900d      	str	r0, [sp, #52]	; 0x34
 80026bc:	a909      	add	r1, sp, #36	; 0x24
 80026be:	4628      	mov	r0, r5
 80026c0:	f002 f8c6 	bl	8004850 <HAL_TIM_PWM_ConfigChannel>
 80026c4:	b108      	cbz	r0, 80026ca <main+0x152>
 80026c6:	b672      	cpsid	i
 80026c8:	e7fe      	b.n	80026c8 <main+0x150>
 80026ca:	2204      	movs	r2, #4
 80026cc:	4628      	mov	r0, r5
 80026ce:	a909      	add	r1, sp, #36	; 0x24
 80026d0:	f002 f8be 	bl	8004850 <HAL_TIM_PWM_ConfigChannel>
 80026d4:	4604      	mov	r4, r0
 80026d6:	b108      	cbz	r0, 80026dc <main+0x164>
 80026d8:	b672      	cpsid	i
 80026da:	e7fe      	b.n	80026da <main+0x162>
 80026dc:	4628      	mov	r0, r5
 80026de:	f001 f8e5 	bl	80038ac <HAL_TIM_MspPostInit>
 80026e2:	463a      	mov	r2, r7
 80026e4:	2120      	movs	r1, #32
 80026e6:	4827      	ldr	r0, [pc, #156]	; (8002784 <main+0x20c>)
 80026e8:	f001 fce0 	bl	80040ac <HAL_GPIO_WritePin>
 80026ec:	463a      	mov	r2, r7
 80026ee:	4630      	mov	r0, r6
 80026f0:	492a      	ldr	r1, [pc, #168]	; (800279c <main+0x224>)
 80026f2:	f002 fcaa 	bl	800504a <HAL_UART_Receive_IT>
 80026f6:	2104      	movs	r1, #4
 80026f8:	4628      	mov	r0, r5
 80026fa:	f002 fa03 	bl	8004b04 <HAL_TIM_PWM_Start>
 80026fe:	4621      	mov	r1, r4
 8002700:	4628      	mov	r0, r5
 8002702:	f002 f9ff 	bl	8004b04 <HAL_TIM_PWM_Start>
 8002706:	f7ff f8cd 	bl	80018a4 <Flash_to_vector>
 800270a:	f7fe ff39 	bl	8001580 <vector_to_RAM>
 800270e:	4b24      	ldr	r3, [pc, #144]	; (80027a0 <main+0x228>)
 8002710:	4e24      	ldr	r6, [pc, #144]	; (80027a4 <main+0x22c>)
 8002712:	7818      	ldrb	r0, [r3, #0]
 8002714:	f7fe fe3a 	bl	800138c <home_inicio_sec>
 8002718:	4b23      	ldr	r3, [pc, #140]	; (80027a8 <main+0x230>)
 800271a:	4a24      	ldr	r2, [pc, #144]	; (80027ac <main+0x234>)
 800271c:	f8a3 8044 	strh.w	r8, [r3, #68]	; 0x44
 8002720:	641a      	str	r2, [r3, #64]	; 0x40
 8002722:	4b23      	ldr	r3, [pc, #140]	; (80027b0 <main+0x238>)
 8002724:	4a23      	ldr	r2, [pc, #140]	; (80027b4 <main+0x23c>)
 8002726:	4824      	ldr	r0, [pc, #144]	; (80027b8 <main+0x240>)
 8002728:	641a      	str	r2, [r3, #64]	; 0x40
 800272a:	2208      	movs	r2, #8
 800272c:	f8a3 2044 	strh.w	r2, [r3, #68]	; 0x44
 8002730:	4b22      	ldr	r3, [pc, #136]	; (80027bc <main+0x244>)
 8002732:	4a23      	ldr	r2, [pc, #140]	; (80027c0 <main+0x248>)
 8002734:	4d23      	ldr	r5, [pc, #140]	; (80027c4 <main+0x24c>)
 8002736:	641a      	str	r2, [r3, #64]	; 0x40
 8002738:	2204      	movs	r2, #4
 800273a:	f8a3 2044 	strh.w	r2, [r3, #68]	; 0x44
 800273e:	4b22      	ldr	r3, [pc, #136]	; (80027c8 <main+0x250>)
 8002740:	4a22      	ldr	r2, [pc, #136]	; (80027cc <main+0x254>)
 8002742:	f8a3 9044 	strh.w	r9, [r3, #68]	; 0x44
 8002746:	641a      	str	r2, [r3, #64]	; 0x40
 8002748:	4b21      	ldr	r3, [pc, #132]	; (80027d0 <main+0x258>)
 800274a:	4a22      	ldr	r2, [pc, #136]	; (80027d4 <main+0x25c>)
 800274c:	f8a3 7044 	strh.w	r7, [r3, #68]	; 0x44
 8002750:	641a      	str	r2, [r3, #64]	; 0x40
 8002752:	f002 fcc5 	bl	80050e0 <iprintf>
 8002756:	4820      	ldr	r0, [pc, #128]	; (80027d8 <main+0x260>)
 8002758:	f002 fcc2 	bl	80050e0 <iprintf>
 800275c:	4f0a      	ldr	r7, [pc, #40]	; (8002788 <main+0x210>)
 800275e:	7832      	ldrb	r2, [r6, #0]
 8002760:	42a2      	cmp	r2, r4
 8002762:	68bb      	ldr	r3, [r7, #8]
 8002764:	d0fc      	beq.n	8002760 <main+0x1e8>
 8002766:	4620      	mov	r0, r4
 8002768:	3401      	adds	r4, #1
 800276a:	f3c3 1340 	ubfx	r3, r3, #5, #1
 800276e:	b2e4      	uxtb	r4, r4
 8002770:	702b      	strb	r3, [r5, #0]
 8002772:	f7ff fa99 	bl	8001ca8 <analizarLineaUART>
 8002776:	2c0b      	cmp	r4, #11
 8002778:	bf08      	it	eq
 800277a:	2400      	moveq	r4, #0
 800277c:	e7ef      	b.n	800275e <main+0x1e6>
 800277e:	bf00      	nop
 8002780:	40021000 	.word	0x40021000
 8002784:	40010c00 	.word	0x40010c00
 8002788:	40010800 	.word	0x40010800
 800278c:	20000cac 	.word	0x20000cac
 8002790:	40013800 	.word	0x40013800
 8002794:	20000c64 	.word	0x20000c64
 8002798:	40000400 	.word	0x40000400
 800279c:	20000260 	.word	0x20000260
 80027a0:	20000c61 	.word	0x20000c61
 80027a4:	20000cf2 	.word	0x20000cf2
 80027a8:	20000170 	.word	0x20000170
 80027ac:	00010002 	.word	0x00010002
 80027b0:	200001c0 	.word	0x200001c0
 80027b4:	04000800 	.word	0x04000800
 80027b8:	08006241 	.word	0x08006241
 80027bc:	20000210 	.word	0x20000210
 80027c0:	10002000 	.word	0x10002000
 80027c4:	20000cf8 	.word	0x20000cf8
 80027c8:	200000a8 	.word	0x200000a8
 80027cc:	00080010 	.word	0x00080010
 80027d0:	200000f8 	.word	0x200000f8
 80027d4:	40008000 	.word	0x40008000
 80027d8:	08006256 	.word	0x08006256

080027dc <eje_iniciacion>:
 80027dc:	b082      	sub	sp, #8
 80027de:	e92d 43f8 	stmdb	sp!, {r3, r4, r5, r6, r7, r8, r9, lr}
 80027e2:	e9dd 6710 	ldrd	r6, r7, [sp, #64]	; 0x40
 80027e6:	461d      	mov	r5, r3
 80027e8:	a908      	add	r1, sp, #32
 80027ea:	e881 000c 	stmia.w	r1, {r2, r3}
 80027ee:	4604      	mov	r4, r0
 80027f0:	e9dd 300a 	ldrd	r3, r0, [sp, #40]	; 0x28
 80027f4:	429a      	cmp	r2, r3
 80027f6:	eb75 0c00 	sbcs.w	ip, r5, r0
 80027fa:	f8dd 8034 	ldr.w	r8, [sp, #52]	; 0x34
 80027fe:	f8bd 1060 	ldrh.w	r1, [sp, #96]	; 0x60
 8002802:	da06      	bge.n	8002812 <eje_iniciacion+0x36>
 8002804:	4d39      	ldr	r5, [pc, #228]	; (80028ec <eje_iniciacion+0x110>)
 8002806:	1a9a      	subs	r2, r3, r2
 8002808:	68e8      	ldr	r0, [r5, #12]
 800280a:	4308      	orrs	r0, r1
 800280c:	60e8      	str	r0, [r5, #12]
 800280e:	6062      	str	r2, [r4, #4]
 8002810:	e007      	b.n	8002822 <eje_iniciacion+0x46>
 8002812:	4293      	cmp	r3, r2
 8002814:	eb70 0c05 	sbcs.w	ip, r0, r5
 8002818:	db58      	blt.n	80028cc <eje_iniciacion+0xf0>
 800281a:	4285      	cmp	r5, r0
 800281c:	bf08      	it	eq
 800281e:	429a      	cmpeq	r2, r3
 8002820:	d05b      	beq.n	80028da <eje_iniciacion+0xfe>
 8002822:	f89d 3048 	ldrb.w	r3, [sp, #72]	; 0x48
 8002826:	b113      	cbz	r3, 800282e <eje_iniciacion+0x52>
 8002828:	4830      	ldr	r0, [pc, #192]	; (80028ec <eje_iniciacion+0x110>)
 800282a:	f001 fc44 	bl	80040b6 <HAL_GPIO_TogglePin>
 800282e:	4640      	mov	r0, r8
 8002830:	f7fd fe84 	bl	800053c <__aeabi_ui2d>
 8002834:	4632      	mov	r2, r6
 8002836:	463b      	mov	r3, r7
 8002838:	f7fd fefa 	bl	8000630 <__aeabi_dmul>
 800283c:	f7fe fa62 	bl	8000d04 <__aeabi_d2lz>
 8002840:	4605      	mov	r5, r0
 8002842:	4689      	mov	r9, r1
 8002844:	e9c4 0106 	strd	r0, r1, [r4, #24]
 8002848:	990f      	ldr	r1, [sp, #60]	; 0x3c
 800284a:	2264      	movs	r2, #100	; 0x64
 800284c:	fba1 0c05 	umull	r0, ip, r1, r5
 8002850:	2300      	movs	r3, #0
 8002852:	fb01 c109 	mla	r1, r1, r9, ip
 8002856:	f7fe f9ed 	bl	8000c34 <__aeabi_ldivmod>
 800285a:	e9c4 010c 	strd	r0, r1, [r4, #48]	; 0x30
 800285e:	980e      	ldr	r0, [sp, #56]	; 0x38
 8002860:	fb00 f008 	mul.w	r0, r0, r8
 8002864:	f7fd fe6a 	bl	800053c <__aeabi_ui2d>
 8002868:	4632      	mov	r2, r6
 800286a:	463b      	mov	r3, r7
 800286c:	f7fd fee0 	bl	8000630 <__aeabi_dmul>
 8002870:	4606      	mov	r6, r0
 8002872:	980c      	ldr	r0, [sp, #48]	; 0x30
 8002874:	460f      	mov	r7, r1
 8002876:	f7fd fe61 	bl	800053c <__aeabi_ui2d>
 800287a:	460b      	mov	r3, r1
 800287c:	4602      	mov	r2, r0
 800287e:	4639      	mov	r1, r7
 8002880:	4630      	mov	r0, r6
 8002882:	f7fd ffff 	bl	8000884 <__aeabi_ddiv>
 8002886:	f7fe fa3d 	bl	8000d04 <__aeabi_d2lz>
 800288a:	ea50 0301 	orrs.w	r3, r0, r1
 800288e:	d027      	beq.n	80028e0 <eje_iniciacion+0x104>
 8002890:	e9c4 0104 	strd	r0, r1, [r4, #16]
 8002894:	ea55 0309 	orrs.w	r3, r5, r9
 8002898:	d103      	bne.n	80028a2 <eje_iniciacion+0xc6>
 800289a:	2201      	movs	r2, #1
 800289c:	2300      	movs	r3, #0
 800289e:	e9c4 2306 	strd	r2, r3, [r4, #24]
 80028a2:	2200      	movs	r2, #0
 80028a4:	2000      	movs	r0, #0
 80028a6:	2100      	movs	r1, #0
 80028a8:	6863      	ldr	r3, [r4, #4]
 80028aa:	e9c4 0108 	strd	r0, r1, [r4, #32]
 80028ae:	eb03 73d3 	add.w	r3, r3, r3, lsr #31
 80028b2:	105b      	asrs	r3, r3, #1
 80028b4:	e9c4 0110 	strd	r0, r1, [r4, #64]	; 0x40
 80028b8:	e9c4 010e 	strd	r0, r1, [r4, #56]	; 0x38
 80028bc:	6022      	str	r2, [r4, #0]
 80028be:	60a3      	str	r3, [r4, #8]
 80028c0:	60e2      	str	r2, [r4, #12]
 80028c2:	64a2      	str	r2, [r4, #72]	; 0x48
 80028c4:	e8bd 43f8 	ldmia.w	sp!, {r3, r4, r5, r6, r7, r8, r9, lr}
 80028c8:	b002      	add	sp, #8
 80028ca:	4770      	bx	lr
 80028cc:	4d07      	ldr	r5, [pc, #28]	; (80028ec <eje_iniciacion+0x110>)
 80028ce:	1ad2      	subs	r2, r2, r3
 80028d0:	68e8      	ldr	r0, [r5, #12]
 80028d2:	ea20 0001 	bic.w	r0, r0, r1
 80028d6:	60e8      	str	r0, [r5, #12]
 80028d8:	e799      	b.n	800280e <eje_iniciacion+0x32>
 80028da:	2300      	movs	r3, #0
 80028dc:	6063      	str	r3, [r4, #4]
 80028de:	e7a0      	b.n	8002822 <eje_iniciacion+0x46>
 80028e0:	2201      	movs	r2, #1
 80028e2:	2300      	movs	r3, #0
 80028e4:	e9c4 2304 	strd	r2, r3, [r4, #16]
 80028e8:	e7d4      	b.n	8002894 <eje_iniciacion+0xb8>
 80028ea:	bf00      	nop
 80028ec:	40010c00 	.word	0x40010c00

080028f0 <despulsar_eje>:
 80028f0:	b084      	sub	sp, #16
 80028f2:	e92d 47f0 	stmdb	sp!, {r4, r5, r6, r7, r8, r9, sl, lr}
 80028f6:	ac08      	add	r4, sp, #32
 80028f8:	e884 000f 	stmia.w	r4, {r0, r1, r2, r3}
 80028fc:	f89d 3049 	ldrb.w	r3, [sp, #73]	; 0x49
 8002900:	2b01      	cmp	r3, #1
 8002902:	d148      	bne.n	8002996 <despulsar_eje+0xa6>
 8002904:	e9dd 6710 	ldrd	r6, r7, [sp, #64]	; 0x40
 8002908:	f8bd 1060 	ldrh.w	r1, [sp, #96]	; 0x60
 800290c:	4834      	ldr	r0, [pc, #208]	; (80029e0 <despulsar_eje+0xf0>)
 800290e:	f8bd 804e 	ldrh.w	r8, [sp, #78]	; 0x4e
 8002912:	f001 fbd0 	bl	80040b6 <HAL_GPIO_TogglePin>
 8002916:	980c      	ldr	r0, [sp, #48]	; 0x30
 8002918:	f7fd fe10 	bl	800053c <__aeabi_ui2d>
 800291c:	4632      	mov	r2, r6
 800291e:	463b      	mov	r3, r7
 8002920:	f7fd fe86 	bl	8000630 <__aeabi_dmul>
 8002924:	4604      	mov	r4, r0
 8002926:	f8bd 0050 	ldrh.w	r0, [sp, #80]	; 0x50
 800292a:	460d      	mov	r5, r1
 800292c:	f7fd fe16 	bl	800055c <__aeabi_i2d>
 8002930:	4602      	mov	r2, r0
 8002932:	460b      	mov	r3, r1
 8002934:	4620      	mov	r0, r4
 8002936:	4629      	mov	r1, r5
 8002938:	f7fd fe7a 	bl	8000630 <__aeabi_dmul>
 800293c:	4602      	mov	r2, r0
 800293e:	460b      	mov	r3, r1
 8002940:	a123      	add	r1, pc, #140	; (adr r1, 80029d0 <despulsar_eje+0xe0>)
 8002942:	e9d1 0100 	ldrd	r0, r1, [r1]
 8002946:	f7fd ff9d 	bl	8000884 <__aeabi_ddiv>
 800294a:	a323      	add	r3, pc, #140	; (adr r3, 80029d8 <despulsar_eje+0xe8>)
 800294c:	e9d3 2300 	ldrd	r2, r3, [r3]
 8002950:	f7fd fe6e 	bl	8000630 <__aeabi_dmul>
 8002954:	f7fe f92e 	bl	8000bb4 <__aeabi_d2uiz>
 8002958:	f1a0 0521 	sub.w	r5, r0, #33	; 0x21
 800295c:	4640      	mov	r0, r8
 800295e:	f7fd fdfd 	bl	800055c <__aeabi_i2d>
 8002962:	4632      	mov	r2, r6
 8002964:	463b      	mov	r3, r7
 8002966:	f7fd fe63 	bl	8000630 <__aeabi_dmul>
 800296a:	4602      	mov	r2, r0
 800296c:	460b      	mov	r3, r1
 800296e:	f7fd fca9 	bl	80002c4 <__adddf3>
 8002972:	4606      	mov	r6, r0
 8002974:	460f      	mov	r7, r1
 8002976:	f7fe f91d 	bl	8000bb4 <__aeabi_d2uiz>
 800297a:	2400      	movs	r4, #0
 800297c:	4680      	mov	r8, r0
 800297e:	f8df 9064 	ldr.w	r9, [pc, #100]	; 80029e4 <despulsar_eje+0xf4>
 8002982:	f8df a05c 	ldr.w	sl, [pc, #92]	; 80029e0 <despulsar_eje+0xf0>
 8002986:	4620      	mov	r0, r4
 8002988:	f7fd fdd8 	bl	800053c <__aeabi_ui2d>
 800298c:	4632      	mov	r2, r6
 800298e:	463b      	mov	r3, r7
 8002990:	f7fe f8c0 	bl	8000b14 <__aeabi_dcmplt>
 8002994:	b918      	cbnz	r0, 800299e <despulsar_eje+0xae>
 8002996:	e8bd 47f0 	ldmia.w	sp!, {r4, r5, r6, r7, r8, r9, sl, lr}
 800299a:	b004      	add	sp, #16
 800299c:	4770      	bx	lr
 800299e:	f8bd 1064 	ldrh.w	r1, [sp, #100]	; 0x64
 80029a2:	4648      	mov	r0, r9
 80029a4:	f001 fb7c 	bl	80040a0 <HAL_GPIO_ReadPin>
 80029a8:	f8bd 1062 	ldrh.w	r1, [sp, #98]	; 0x62
 80029ac:	2800      	cmp	r0, #0
 80029ae:	bf08      	it	eq
 80029b0:	4644      	moveq	r4, r8
 80029b2:	4650      	mov	r0, sl
 80029b4:	f001 fb7f 	bl	80040b6 <HAL_GPIO_TogglePin>
 80029b8:	2300      	movs	r3, #0
 80029ba:	42ab      	cmp	r3, r5
 80029bc:	d301      	bcc.n	80029c2 <despulsar_eje+0xd2>
 80029be:	3401      	adds	r4, #1
 80029c0:	e7e1      	b.n	8002986 <despulsar_eje+0x96>
 80029c2:	bf00      	nop
 80029c4:	bf00      	nop
 80029c6:	3301      	adds	r3, #1
 80029c8:	e7f7      	b.n	80029ba <despulsar_eje+0xca>
 80029ca:	bf00      	nop
 80029cc:	f3af 8000 	nop.w
 80029d0:	00000000 	.word	0x00000000
 80029d4:	40c38800 	.word	0x40c38800
 80029d8:	00000000 	.word	0x00000000
 80029dc:	40dd4c00 	.word	0x40dd4c00
 80029e0:	40010c00 	.word	0x40010c00
 80029e4:	40010800 	.word	0x40010800

080029e8 <E_stop_rutina>:
 80029e8:	b5f0      	push	{r4, r5, r6, r7, lr}
 80029ea:	486e      	ldr	r0, [pc, #440]	; (8002ba4 <E_stop_rutina+0x1bc>)
 80029ec:	b08f      	sub	sp, #60	; 0x3c
 80029ee:	f002 fc11 	bl	8005214 <puts>
 80029f2:	2201      	movs	r2, #1
 80029f4:	4b6c      	ldr	r3, [pc, #432]	; (8002ba8 <E_stop_rutina+0x1c0>)
 80029f6:	701a      	strb	r2, [r3, #0]
 80029f8:	4b6c      	ldr	r3, [pc, #432]	; (8002bac <E_stop_rutina+0x1c4>)
 80029fa:	bf00      	nop
 80029fc:	bf00      	nop
 80029fe:	3b01      	subs	r3, #1
 8002a00:	d1fb      	bne.n	80029fa <E_stop_rutina+0x12>
 8002a02:	4c6b      	ldr	r4, [pc, #428]	; (8002bb0 <E_stop_rutina+0x1c8>)
 8002a04:	4e6b      	ldr	r6, [pc, #428]	; (8002bb4 <E_stop_rutina+0x1cc>)
 8002a06:	f8b4 1044 	ldrh.w	r1, [r4, #68]	; 0x44
 8002a0a:	486b      	ldr	r0, [pc, #428]	; (8002bb8 <E_stop_rutina+0x1d0>)
 8002a0c:	8033      	strh	r3, [r6, #0]
 8002a0e:	f001 fb47 	bl	80040a0 <HAL_GPIO_ReadPin>
 8002a12:	4627      	mov	r7, r4
 8002a14:	b1e8      	cbz	r0, 8002a52 <E_stop_rutina+0x6a>
 8002a16:	4869      	ldr	r0, [pc, #420]	; (8002bbc <E_stop_rutina+0x1d4>)
 8002a18:	f002 fbfc 	bl	8005214 <puts>
 8002a1c:	e9d4 1302 	ldrd	r1, r3, [r4, #8]
 8002a20:	e9d4 0200 	ldrd	r0, r2, [r4]
 8002a24:	4288      	cmp	r0, r1
 8002a26:	eb72 0303 	sbcs.w	r3, r2, r3
 8002a2a:	bfac      	ite	ge
 8002a2c:	2302      	movge	r3, #2
 8002a2e:	2301      	movlt	r3, #1
 8002a30:	466c      	mov	r4, sp
 8002a32:	4d63      	ldr	r5, [pc, #396]	; (8002bc0 <E_stop_rutina+0x1d8>)
 8002a34:	8033      	strh	r3, [r6, #0]
 8002a36:	cd0f      	ldmia	r5!, {r0, r1, r2, r3}
 8002a38:	c40f      	stmia	r4!, {r0, r1, r2, r3}
 8002a3a:	cd0f      	ldmia	r5!, {r0, r1, r2, r3}
 8002a3c:	c40f      	stmia	r4!, {r0, r1, r2, r3}
 8002a3e:	cd0f      	ldmia	r5!, {r0, r1, r2, r3}
 8002a40:	c40f      	stmia	r4!, {r0, r1, r2, r3}
 8002a42:	e895 0003 	ldmia.w	r5, {r0, r1}
 8002a46:	e884 0003 	stmia.w	r4, {r0, r1}
 8002a4a:	e897 000f 	ldmia.w	r7, {r0, r1, r2, r3}
 8002a4e:	f7ff ff4f 	bl	80028f0 <despulsar_eje>
 8002a52:	4c5c      	ldr	r4, [pc, #368]	; (8002bc4 <E_stop_rutina+0x1dc>)
 8002a54:	4858      	ldr	r0, [pc, #352]	; (8002bb8 <E_stop_rutina+0x1d0>)
 8002a56:	f8b4 1044 	ldrh.w	r1, [r4, #68]	; 0x44
 8002a5a:	f001 fb21 	bl	80040a0 <HAL_GPIO_ReadPin>
 8002a5e:	4627      	mov	r7, r4
 8002a60:	b1e8      	cbz	r0, 8002a9e <E_stop_rutina+0xb6>
 8002a62:	4859      	ldr	r0, [pc, #356]	; (8002bc8 <E_stop_rutina+0x1e0>)
 8002a64:	f002 fbd6 	bl	8005214 <puts>
 8002a68:	e9d4 1302 	ldrd	r1, r3, [r4, #8]
 8002a6c:	e9d4 0200 	ldrd	r0, r2, [r4]
 8002a70:	4288      	cmp	r0, r1
 8002a72:	eb72 0303 	sbcs.w	r3, r2, r3
 8002a76:	bfac      	ite	ge
 8002a78:	2304      	movge	r3, #4
 8002a7a:	2303      	movlt	r3, #3
 8002a7c:	466c      	mov	r4, sp
 8002a7e:	4d53      	ldr	r5, [pc, #332]	; (8002bcc <E_stop_rutina+0x1e4>)
 8002a80:	8033      	strh	r3, [r6, #0]
 8002a82:	cd0f      	ldmia	r5!, {r0, r1, r2, r3}
 8002a84:	c40f      	stmia	r4!, {r0, r1, r2, r3}
 8002a86:	cd0f      	ldmia	r5!, {r0, r1, r2, r3}
 8002a88:	c40f      	stmia	r4!, {r0, r1, r2, r3}
 8002a8a:	cd0f      	ldmia	r5!, {r0, r1, r2, r3}
 8002a8c:	c40f      	stmia	r4!, {r0, r1, r2, r3}
 8002a8e:	e895 0003 	ldmia.w	r5, {r0, r1}
 8002a92:	e884 0003 	stmia.w	r4, {r0, r1}
 8002a96:	e897 000f 	ldmia.w	r7, {r0, r1, r2, r3}
 8002a9a:	f7ff ff29 	bl	80028f0 <despulsar_eje>
 8002a9e:	4c4c      	ldr	r4, [pc, #304]	; (8002bd0 <E_stop_rutina+0x1e8>)
 8002aa0:	4845      	ldr	r0, [pc, #276]	; (8002bb8 <E_stop_rutina+0x1d0>)
 8002aa2:	f8b4 1044 	ldrh.w	r1, [r4, #68]	; 0x44
 8002aa6:	f001 fafb 	bl	80040a0 <HAL_GPIO_ReadPin>
 8002aaa:	4627      	mov	r7, r4
 8002aac:	b1e8      	cbz	r0, 8002aea <E_stop_rutina+0x102>
 8002aae:	4849      	ldr	r0, [pc, #292]	; (8002bd4 <E_stop_rutina+0x1ec>)
 8002ab0:	f002 fbb0 	bl	8005214 <puts>
 8002ab4:	e9d4 1302 	ldrd	r1, r3, [r4, #8]
 8002ab8:	e9d4 0200 	ldrd	r0, r2, [r4]
 8002abc:	4288      	cmp	r0, r1
 8002abe:	eb72 0303 	sbcs.w	r3, r2, r3
 8002ac2:	bfac      	ite	ge
 8002ac4:	2306      	movge	r3, #6
 8002ac6:	2305      	movlt	r3, #5
 8002ac8:	466c      	mov	r4, sp
 8002aca:	4d43      	ldr	r5, [pc, #268]	; (8002bd8 <E_stop_rutina+0x1f0>)
 8002acc:	8033      	strh	r3, [r6, #0]
 8002ace:	cd0f      	ldmia	r5!, {r0, r1, r2, r3}
 8002ad0:	c40f      	stmia	r4!, {r0, r1, r2, r3}
 8002ad2:	cd0f      	ldmia	r5!, {r0, r1, r2, r3}
 8002ad4:	c40f      	stmia	r4!, {r0, r1, r2, r3}
 8002ad6:	cd0f      	ldmia	r5!, {r0, r1, r2, r3}
 8002ad8:	c40f      	stmia	r4!, {r0, r1, r2, r3}
 8002ada:	e895 0003 	ldmia.w	r5, {r0, r1}
 8002ade:	e884 0003 	stmia.w	r4, {r0, r1}
 8002ae2:	e897 000f 	ldmia.w	r7, {r0, r1, r2, r3}
 8002ae6:	f7ff ff03 	bl	80028f0 <despulsar_eje>
 8002aea:	4c3c      	ldr	r4, [pc, #240]	; (8002bdc <E_stop_rutina+0x1f4>)
 8002aec:	4832      	ldr	r0, [pc, #200]	; (8002bb8 <E_stop_rutina+0x1d0>)
 8002aee:	f8b4 1044 	ldrh.w	r1, [r4, #68]	; 0x44
 8002af2:	f001 fad5 	bl	80040a0 <HAL_GPIO_ReadPin>
 8002af6:	4627      	mov	r7, r4
 8002af8:	b1e8      	cbz	r0, 8002b36 <E_stop_rutina+0x14e>
 8002afa:	4839      	ldr	r0, [pc, #228]	; (8002be0 <E_stop_rutina+0x1f8>)
 8002afc:	f002 fb8a 	bl	8005214 <puts>
 8002b00:	e9d4 1302 	ldrd	r1, r3, [r4, #8]
 8002b04:	e9d4 0200 	ldrd	r0, r2, [r4]
 8002b08:	4288      	cmp	r0, r1
 8002b0a:	eb72 0303 	sbcs.w	r3, r2, r3
 8002b0e:	bfac      	ite	ge
 8002b10:	2308      	movge	r3, #8
 8002b12:	2307      	movlt	r3, #7
 8002b14:	466c      	mov	r4, sp
 8002b16:	4d33      	ldr	r5, [pc, #204]	; (8002be4 <E_stop_rutina+0x1fc>)
 8002b18:	8033      	strh	r3, [r6, #0]
 8002b1a:	cd0f      	ldmia	r5!, {r0, r1, r2, r3}
 8002b1c:	c40f      	stmia	r4!, {r0, r1, r2, r3}
 8002b1e:	cd0f      	ldmia	r5!, {r0, r1, r2, r3}
 8002b20:	c40f      	stmia	r4!, {r0, r1, r2, r3}
 8002b22:	cd0f      	ldmia	r5!, {r0, r1, r2, r3}
 8002b24:	c40f      	stmia	r4!, {r0, r1, r2, r3}
 8002b26:	e895 0003 	ldmia.w	r5, {r0, r1}
 8002b2a:	e884 0003 	stmia.w	r4, {r0, r1}
 8002b2e:	e897 000f 	ldmia.w	r7, {r0, r1, r2, r3}
 8002b32:	f7ff fedd 	bl	80028f0 <despulsar_eje>
 8002b36:	4c2c      	ldr	r4, [pc, #176]	; (8002be8 <E_stop_rutina+0x200>)
 8002b38:	481f      	ldr	r0, [pc, #124]	; (8002bb8 <E_stop_rutina+0x1d0>)
 8002b3a:	f8b4 1044 	ldrh.w	r1, [r4, #68]	; 0x44
 8002b3e:	f001 faaf 	bl	80040a0 <HAL_GPIO_ReadPin>
 8002b42:	4627      	mov	r7, r4
 8002b44:	b1e8      	cbz	r0, 8002b82 <E_stop_rutina+0x19a>
 8002b46:	4829      	ldr	r0, [pc, #164]	; (8002bec <E_stop_rutina+0x204>)
 8002b48:	f002 fb64 	bl	8005214 <puts>
 8002b4c:	e9d4 1302 	ldrd	r1, r3, [r4, #8]
 8002b50:	e9d4 0200 	ldrd	r0, r2, [r4]
 8002b54:	4288      	cmp	r0, r1
 8002b56:	eb72 0303 	sbcs.w	r3, r2, r3
 8002b5a:	bfac      	ite	ge
 8002b5c:	2309      	movge	r3, #9
 8002b5e:	2308      	movlt	r3, #8
 8002b60:	466c      	mov	r4, sp
 8002b62:	4d23      	ldr	r5, [pc, #140]	; (8002bf0 <E_stop_rutina+0x208>)
 8002b64:	8033      	strh	r3, [r6, #0]
 8002b66:	cd0f      	ldmia	r5!, {r0, r1, r2, r3}
 8002b68:	c40f      	stmia	r4!, {r0, r1, r2, r3}
 8002b6a:	cd0f      	ldmia	r5!, {r0, r1, r2, r3}
 8002b6c:	c40f      	stmia	r4!, {r0, r1, r2, r3}
 8002b6e:	cd0f      	ldmia	r5!, {r0, r1, r2, r3}
 8002b70:	c40f      	stmia	r4!, {r0, r1, r2, r3}
 8002b72:	e895 0003 	ldmia.w	r5, {r0, r1}
 8002b76:	e884 0003 	stmia.w	r4, {r0, r1}
 8002b7a:	e897 000f 	ldmia.w	r7, {r0, r1, r2, r3}
 8002b7e:	f7ff feb7 	bl	80028f0 <despulsar_eje>
 8002b82:	4b1c      	ldr	r3, [pc, #112]	; (8002bf4 <E_stop_rutina+0x20c>)
 8002b84:	685a      	ldr	r2, [r3, #4]
 8002b86:	601a      	str	r2, [r3, #0]
 8002b88:	4b1b      	ldr	r3, [pc, #108]	; (8002bf8 <E_stop_rutina+0x210>)
 8002b8a:	685a      	ldr	r2, [r3, #4]
 8002b8c:	601a      	str	r2, [r3, #0]
 8002b8e:	4b1b      	ldr	r3, [pc, #108]	; (8002bfc <E_stop_rutina+0x214>)
 8002b90:	685a      	ldr	r2, [r3, #4]
 8002b92:	601a      	str	r2, [r3, #0]
 8002b94:	4b1a      	ldr	r3, [pc, #104]	; (8002c00 <E_stop_rutina+0x218>)
 8002b96:	685a      	ldr	r2, [r3, #4]
 8002b98:	601a      	str	r2, [r3, #0]
 8002b9a:	4b1a      	ldr	r3, [pc, #104]	; (8002c04 <E_stop_rutina+0x21c>)
 8002b9c:	685a      	ldr	r2, [r3, #4]
 8002b9e:	601a      	str	r2, [r3, #0]
 8002ba0:	b00f      	add	sp, #60	; 0x3c
 8002ba2:	bdf0      	pop	{r4, r5, r6, r7, pc}
 8002ba4:	0800626b 	.word	0x0800626b
 8002ba8:	20000cf8 	.word	0x20000cf8
 8002bac:	0016e360 	.word	0x0016e360
 8002bb0:	20000170 	.word	0x20000170
 8002bb4:	200011a0 	.word	0x200011a0
 8002bb8:	40010800 	.word	0x40010800
 8002bbc:	08006273 	.word	0x08006273
 8002bc0:	20000180 	.word	0x20000180
 8002bc4:	200001c0 	.word	0x200001c0
 8002bc8:	0800627a 	.word	0x0800627a
 8002bcc:	200001d0 	.word	0x200001d0
 8002bd0:	20000210 	.word	0x20000210
 8002bd4:	08006281 	.word	0x08006281
 8002bd8:	20000220 	.word	0x20000220
 8002bdc:	200000a8 	.word	0x200000a8
 8002be0:	08006288 	.word	0x08006288
 8002be4:	200000b8 	.word	0x200000b8
 8002be8:	200000f8 	.word	0x200000f8
 8002bec:	0800628f 	.word	0x0800628f
 8002bf0:	20000108 	.word	0x20000108
 8002bf4:	200011a8 	.word	0x200011a8
 8002bf8:	200011f8 	.word	0x200011f8
 8002bfc:	20001248 	.word	0x20001248
 8002c00:	20001100 	.word	0x20001100
 8002c04:	20001150 	.word	0x20001150

08002c08 <run_motores>:
 8002c08:	e92d 4ff0 	stmdb	sp!, {r4, r5, r6, r7, r8, r9, sl, fp, lr}
 8002c0c:	461d      	mov	r5, r3
 8002c0e:	f648 03e3 	movw	r3, #35043	; 0x88e3
 8002c12:	f8df 82f4 	ldr.w	r8, [pc, #756]	; 8002f08 <run_motores+0x300>
 8002c16:	4614      	mov	r4, r2
 8002c18:	f8c8 3000 	str.w	r3, [r8]
 8002c1c:	f64c 5355 	movw	r3, #52565	; 0xcd55
 8002c20:	4aba      	ldr	r2, [pc, #744]	; (8002f0c <run_motores+0x304>)
 8002c22:	4606      	mov	r6, r0
 8002c24:	6013      	str	r3, [r2, #0]
 8002c26:	f246 3210 	movw	r2, #25360	; 0x6310
 8002c2a:	4bb9      	ldr	r3, [pc, #740]	; (8002f10 <run_motores+0x308>)
 8002c2c:	460f      	mov	r7, r1
 8002c2e:	601a      	str	r2, [r3, #0]
 8002c30:	b093      	sub	sp, #76	; 0x4c
 8002c32:	2200      	movs	r2, #0
 8002c34:	2300      	movs	r3, #0
 8002c36:	4620      	mov	r0, r4
 8002c38:	4629      	mov	r1, r5
 8002c3a:	f7fd ff61 	bl	8000b00 <__aeabi_dcmpeq>
 8002c3e:	b108      	cbz	r0, 8002c44 <run_motores+0x3c>
 8002c40:	2400      	movs	r4, #0
 8002c42:	4db4      	ldr	r5, [pc, #720]	; (8002f14 <run_motores+0x30c>)
 8002c44:	2200      	movs	r2, #0
 8002c46:	2300      	movs	r3, #0
 8002c48:	4630      	mov	r0, r6
 8002c4a:	4639      	mov	r1, r7
 8002c4c:	f7fd ff58 	bl	8000b00 <__aeabi_dcmpeq>
 8002c50:	f8df b2c4 	ldr.w	fp, [pc, #708]	; 8002f18 <run_motores+0x310>
 8002c54:	f8df 92c4 	ldr.w	r9, [pc, #708]	; 8002f1c <run_motores+0x314>
 8002c58:	b180      	cbz	r0, 8002c7c <run_motores+0x74>
 8002c5a:	4ab1      	ldr	r2, [pc, #708]	; (8002f20 <run_motores+0x318>)
 8002c5c:	f8db 3010 	ldr.w	r3, [fp, #16]
 8002c60:	f8cb 3014 	str.w	r3, [fp, #20]
 8002c64:	6913      	ldr	r3, [r2, #16]
 8002c66:	6153      	str	r3, [r2, #20]
 8002c68:	4aae      	ldr	r2, [pc, #696]	; (8002f24 <run_motores+0x31c>)
 8002c6a:	6913      	ldr	r3, [r2, #16]
 8002c6c:	6153      	str	r3, [r2, #20]
 8002c6e:	4aae      	ldr	r2, [pc, #696]	; (8002f28 <run_motores+0x320>)
 8002c70:	6913      	ldr	r3, [r2, #16]
 8002c72:	6153      	str	r3, [r2, #20]
 8002c74:	f8d9 3010 	ldr.w	r3, [r9, #16]
 8002c78:	f8c9 3014 	str.w	r3, [r9, #20]
 8002c7c:	2200      	movs	r2, #0
 8002c7e:	4630      	mov	r0, r6
 8002c80:	4639      	mov	r1, r7
 8002c82:	4ba4      	ldr	r3, [pc, #656]	; (8002f14 <run_motores+0x30c>)
 8002c84:	f7fd ff3c 	bl	8000b00 <__aeabi_dcmpeq>
 8002c88:	2800      	cmp	r0, #0
 8002c8a:	d051      	beq.n	8002d30 <run_motores+0x128>
 8002c8c:	f8db 6010 	ldr.w	r6, [fp, #16]
 8002c90:	4630      	mov	r0, r6
 8002c92:	f7fd fc53 	bl	800053c <__aeabi_ui2d>
 8002c96:	4622      	mov	r2, r4
 8002c98:	462b      	mov	r3, r5
 8002c9a:	f7fd ff3b 	bl	8000b14 <__aeabi_dcmplt>
 8002c9e:	b920      	cbnz	r0, 8002caa <run_motores+0xa2>
 8002ca0:	4620      	mov	r0, r4
 8002ca2:	4629      	mov	r1, r5
 8002ca4:	f7fd ff86 	bl	8000bb4 <__aeabi_d2uiz>
 8002ca8:	4606      	mov	r6, r0
 8002caa:	4b9d      	ldr	r3, [pc, #628]	; (8002f20 <run_motores+0x318>)
 8002cac:	f8cb 6014 	str.w	r6, [fp, #20]
 8002cb0:	691e      	ldr	r6, [r3, #16]
 8002cb2:	4630      	mov	r0, r6
 8002cb4:	f7fd fc42 	bl	800053c <__aeabi_ui2d>
 8002cb8:	4622      	mov	r2, r4
 8002cba:	462b      	mov	r3, r5
 8002cbc:	f7fd ff2a 	bl	8000b14 <__aeabi_dcmplt>
 8002cc0:	b920      	cbnz	r0, 8002ccc <run_motores+0xc4>
 8002cc2:	4620      	mov	r0, r4
 8002cc4:	4629      	mov	r1, r5
 8002cc6:	f7fd ff75 	bl	8000bb4 <__aeabi_d2uiz>
 8002cca:	4606      	mov	r6, r0
 8002ccc:	4b94      	ldr	r3, [pc, #592]	; (8002f20 <run_motores+0x318>)
 8002cce:	615e      	str	r6, [r3, #20]
 8002cd0:	4b94      	ldr	r3, [pc, #592]	; (8002f24 <run_motores+0x31c>)
 8002cd2:	691e      	ldr	r6, [r3, #16]
 8002cd4:	4630      	mov	r0, r6
 8002cd6:	f7fd fc31 	bl	800053c <__aeabi_ui2d>
 8002cda:	4622      	mov	r2, r4
 8002cdc:	462b      	mov	r3, r5
 8002cde:	f7fd ff19 	bl	8000b14 <__aeabi_dcmplt>
 8002ce2:	b920      	cbnz	r0, 8002cee <run_motores+0xe6>
 8002ce4:	4620      	mov	r0, r4
 8002ce6:	4629      	mov	r1, r5
 8002ce8:	f7fd ff64 	bl	8000bb4 <__aeabi_d2uiz>
 8002cec:	4606      	mov	r6, r0
 8002cee:	4b8d      	ldr	r3, [pc, #564]	; (8002f24 <run_motores+0x31c>)
 8002cf0:	615e      	str	r6, [r3, #20]
 8002cf2:	4b8d      	ldr	r3, [pc, #564]	; (8002f28 <run_motores+0x320>)
 8002cf4:	691e      	ldr	r6, [r3, #16]
 8002cf6:	4630      	mov	r0, r6
 8002cf8:	f7fd fc20 	bl	800053c <__aeabi_ui2d>
 8002cfc:	4622      	mov	r2, r4
 8002cfe:	462b      	mov	r3, r5
 8002d00:	f7fd ff08 	bl	8000b14 <__aeabi_dcmplt>
 8002d04:	b920      	cbnz	r0, 8002d10 <run_motores+0x108>
 8002d06:	4620      	mov	r0, r4
 8002d08:	4629      	mov	r1, r5
 8002d0a:	f7fd ff53 	bl	8000bb4 <__aeabi_d2uiz>
 8002d0e:	4606      	mov	r6, r0
 8002d10:	4b85      	ldr	r3, [pc, #532]	; (8002f28 <run_motores+0x320>)
 8002d12:	615e      	str	r6, [r3, #20]
 8002d14:	f8d9 6010 	ldr.w	r6, [r9, #16]
 8002d18:	4630      	mov	r0, r6
 8002d1a:	f7fd fc0f 	bl	800053c <__aeabi_ui2d>
 8002d1e:	4622      	mov	r2, r4
 8002d20:	462b      	mov	r3, r5
 8002d22:	f7fd fef7 	bl	8000b14 <__aeabi_dcmplt>
 8002d26:	2800      	cmp	r0, #0
 8002d28:	f000 82e5 	beq.w	80032f6 <run_motores+0x6ee>
 8002d2c:	f8c9 6014 	str.w	r6, [r9, #20]
 8002d30:	466c      	mov	r4, sp
 8002d32:	466e      	mov	r6, sp
 8002d34:	4d7d      	ldr	r5, [pc, #500]	; (8002f2c <run_motores+0x324>)
 8002d36:	4f79      	ldr	r7, [pc, #484]	; (8002f1c <run_motores+0x314>)
 8002d38:	cd0f      	ldmia	r5!, {r0, r1, r2, r3}
 8002d3a:	c40f      	stmia	r4!, {r0, r1, r2, r3}
 8002d3c:	cd0f      	ldmia	r5!, {r0, r1, r2, r3}
 8002d3e:	c40f      	stmia	r4!, {r0, r1, r2, r3}
 8002d40:	cd0f      	ldmia	r5!, {r0, r1, r2, r3}
 8002d42:	c40f      	stmia	r4!, {r0, r1, r2, r3}
 8002d44:	e895 000f 	ldmia.w	r5, {r0, r1, r2, r3}
 8002d48:	e884 000f 	stmia.w	r4, {r0, r1, r2, r3}
 8002d4c:	4d78      	ldr	r5, [pc, #480]	; (8002f30 <run_motores+0x328>)
 8002d4e:	4879      	ldr	r0, [pc, #484]	; (8002f34 <run_motores+0x32c>)
 8002d50:	e89b 000c 	ldmia.w	fp, {r2, r3}
 8002d54:	f7ff fd42 	bl	80027dc <eje_iniciacion>
 8002d58:	cd0f      	ldmia	r5!, {r0, r1, r2, r3}
 8002d5a:	c60f      	stmia	r6!, {r0, r1, r2, r3}
 8002d5c:	cd0f      	ldmia	r5!, {r0, r1, r2, r3}
 8002d5e:	c60f      	stmia	r6!, {r0, r1, r2, r3}
 8002d60:	cd0f      	ldmia	r5!, {r0, r1, r2, r3}
 8002d62:	c60f      	stmia	r6!, {r0, r1, r2, r3}
 8002d64:	466e      	mov	r6, sp
 8002d66:	e895 000f 	ldmia.w	r5, {r0, r1, r2, r3}
 8002d6a:	e884 000f 	stmia.w	r4, {r0, r1, r2, r3}
 8002d6e:	f1a5 0338 	sub.w	r3, r5, #56	; 0x38
 8002d72:	4d71      	ldr	r5, [pc, #452]	; (8002f38 <run_motores+0x330>)
 8002d74:	4871      	ldr	r0, [pc, #452]	; (8002f3c <run_motores+0x334>)
 8002d76:	cb0c      	ldmia	r3, {r2, r3}
 8002d78:	f7ff fd30 	bl	80027dc <eje_iniciacion>
 8002d7c:	cd0f      	ldmia	r5!, {r0, r1, r2, r3}
 8002d7e:	c60f      	stmia	r6!, {r0, r1, r2, r3}
 8002d80:	cd0f      	ldmia	r5!, {r0, r1, r2, r3}
 8002d82:	c60f      	stmia	r6!, {r0, r1, r2, r3}
 8002d84:	cd0f      	ldmia	r5!, {r0, r1, r2, r3}
 8002d86:	c60f      	stmia	r6!, {r0, r1, r2, r3}
 8002d88:	466e      	mov	r6, sp
 8002d8a:	e895 000f 	ldmia.w	r5, {r0, r1, r2, r3}
 8002d8e:	e884 000f 	stmia.w	r4, {r0, r1, r2, r3}
 8002d92:	f1a5 0338 	sub.w	r3, r5, #56	; 0x38
 8002d96:	4d6a      	ldr	r5, [pc, #424]	; (8002f40 <run_motores+0x338>)
 8002d98:	486a      	ldr	r0, [pc, #424]	; (8002f44 <run_motores+0x33c>)
 8002d9a:	cb0c      	ldmia	r3, {r2, r3}
 8002d9c:	f7ff fd1e 	bl	80027dc <eje_iniciacion>
 8002da0:	cd0f      	ldmia	r5!, {r0, r1, r2, r3}
 8002da2:	c60f      	stmia	r6!, {r0, r1, r2, r3}
 8002da4:	cd0f      	ldmia	r5!, {r0, r1, r2, r3}
 8002da6:	c60f      	stmia	r6!, {r0, r1, r2, r3}
 8002da8:	cd0f      	ldmia	r5!, {r0, r1, r2, r3}
 8002daa:	c60f      	stmia	r6!, {r0, r1, r2, r3}
 8002dac:	466e      	mov	r6, sp
 8002dae:	e895 000f 	ldmia.w	r5, {r0, r1, r2, r3}
 8002db2:	e884 000f 	stmia.w	r4, {r0, r1, r2, r3}
 8002db6:	f1a5 0338 	sub.w	r3, r5, #56	; 0x38
 8002dba:	4863      	ldr	r0, [pc, #396]	; (8002f48 <run_motores+0x340>)
 8002dbc:	f107 0508 	add.w	r5, r7, #8
 8002dc0:	cb0c      	ldmia	r3, {r2, r3}
 8002dc2:	f7ff fd0b 	bl	80027dc <eje_iniciacion>
 8002dc6:	cd0f      	ldmia	r5!, {r0, r1, r2, r3}
 8002dc8:	c60f      	stmia	r6!, {r0, r1, r2, r3}
 8002dca:	cd0f      	ldmia	r5!, {r0, r1, r2, r3}
 8002dcc:	c60f      	stmia	r6!, {r0, r1, r2, r3}
 8002dce:	cd0f      	ldmia	r5!, {r0, r1, r2, r3}
 8002dd0:	c60f      	stmia	r6!, {r0, r1, r2, r3}
 8002dd2:	e895 000f 	ldmia.w	r5, {r0, r1, r2, r3}
 8002dd6:	e884 000f 	stmia.w	r4, {r0, r1, r2, r3}
 8002dda:	485c      	ldr	r0, [pc, #368]	; (8002f4c <run_motores+0x344>)
 8002ddc:	e897 000c 	ldmia.w	r7, {r2, r3}
 8002de0:	f7ff fcfc 	bl	80027dc <eje_iniciacion>
 8002de4:	f04f 0900 	mov.w	r9, #0
 8002de8:	4c52      	ldr	r4, [pc, #328]	; (8002f34 <run_motores+0x32c>)
 8002dea:	4f59      	ldr	r7, [pc, #356]	; (8002f50 <run_motores+0x348>)
 8002dec:	4d53      	ldr	r5, [pc, #332]	; (8002f3c <run_motores+0x334>)
 8002dee:	4b59      	ldr	r3, [pc, #356]	; (8002f54 <run_motores+0x34c>)
 8002df0:	689b      	ldr	r3, [r3, #8]
 8002df2:	069a      	lsls	r2, r3, #26
 8002df4:	d501      	bpl.n	8002dfa <run_motores+0x1f2>
 8002df6:	f7ff fdf7 	bl	80029e8 <E_stop_rutina>
 8002dfa:	6822      	ldr	r2, [r4, #0]
 8002dfc:	68a3      	ldr	r3, [r4, #8]
 8002dfe:	429a      	cmp	r2, r3
 8002e00:	f340 8280 	ble.w	8003304 <run_motores+0x6fc>
 8002e04:	e9d4 6a10 	ldrd	r6, sl, [r4, #64]	; 0x40
 8002e08:	e9d4 0104 	ldrd	r0, r1, [r4, #16]
 8002e0c:	4371      	muls	r1, r6
 8002e0e:	fb0a 1100 	mla	r1, sl, r0, r1
 8002e12:	fba0 0c06 	umull	r0, ip, r0, r6
 8002e16:	2300      	movs	r3, #0
 8002e18:	f8d8 2000 	ldr.w	r2, [r8]
 8002e1c:	4461      	add	r1, ip
 8002e1e:	f7fd ff59 	bl	8000cd4 <__aeabi_uldivmod>
 8002e22:	e9d4 230a 	ldrd	r2, r3, [r4, #40]	; 0x28
 8002e26:	1a10      	subs	r0, r2, r0
 8002e28:	eb63 0101 	sbc.w	r1, r3, r1
 8002e2c:	3601      	adds	r6, #1
 8002e2e:	f14a 0300 	adc.w	r3, sl, #0
 8002e32:	e9c4 6310 	strd	r6, r3, [r4, #64]	; 0x40
 8002e36:	e9d4 230c 	ldrd	r2, r3, [r4, #48]	; 0x30
 8002e3a:	4290      	cmp	r0, r2
 8002e3c:	e9c4 0108 	strd	r0, r1, [r4, #32]
 8002e40:	4199      	sbcs	r1, r3
 8002e42:	f2c0 829b 	blt.w	800337c <run_motores+0x774>
 8002e46:	e9d4 2306 	ldrd	r2, r3, [r4, #24]
 8002e4a:	e9d4 0108 	ldrd	r0, r1, [r4, #32]
 8002e4e:	4290      	cmp	r0, r2
 8002e50:	4199      	sbcs	r1, r3
 8002e52:	f2c0 84eb 	blt.w	800382c <run_motores+0xc24>
 8002e56:	e9c4 2308 	strd	r2, r3, [r4, #32]
 8002e5a:	68fb      	ldr	r3, [r7, #12]
 8002e5c:	f023 0301 	bic.w	r3, r3, #1
 8002e60:	60fb      	str	r3, [r7, #12]
 8002e62:	6ca6      	ldr	r6, [r4, #72]	; 0x48
 8002e64:	e9d4 3008 	ldrd	r3, r0, [r4, #32]
 8002e68:	fba6 c303 	umull	ip, r3, r6, r3
 8002e6c:	fb06 3000 	mla	r0, r6, r0, r3
 8002e70:	68e2      	ldr	r2, [r4, #12]
 8002e72:	f8d8 1000 	ldr.w	r1, [r8]
 8002e76:	eb1c 0302 	adds.w	r3, ip, r2
 8002e7a:	eb40 70e2 	adc.w	r0, r0, r2, asr #31
 8002e7e:	4299      	cmp	r1, r3
 8002e80:	eb79 0300 	sbcs.w	r3, r9, r0
 8002e84:	f280 8282 	bge.w	800338c <run_motores+0x784>
 8002e88:	e9d4 6000 	ldrd	r6, r0, [r4]
 8002e8c:	4286      	cmp	r6, r0
 8002e8e:	f000 827d 	beq.w	800338c <run_motores+0x784>
 8002e92:	1a53      	subs	r3, r2, r1
 8002e94:	4463      	add	r3, ip
 8002e96:	4299      	cmp	r1, r3
 8002e98:	60e3      	str	r3, [r4, #12]
 8002e9a:	f080 8272 	bcs.w	8003382 <run_motores+0x77a>
 8002e9e:	f8c4 900c 	str.w	r9, [r4, #12]
 8002ea2:	6823      	ldr	r3, [r4, #0]
 8002ea4:	f8c4 9048 	str.w	r9, [r4, #72]	; 0x48
 8002ea8:	3301      	adds	r3, #1
 8002eaa:	6023      	str	r3, [r4, #0]
 8002eac:	68fb      	ldr	r3, [r7, #12]
 8002eae:	f043 0301 	orr.w	r3, r3, #1
 8002eb2:	60fb      	str	r3, [r7, #12]
 8002eb4:	6ca3      	ldr	r3, [r4, #72]	; 0x48
 8002eb6:	682a      	ldr	r2, [r5, #0]
 8002eb8:	3301      	adds	r3, #1
 8002eba:	64a3      	str	r3, [r4, #72]	; 0x48
 8002ebc:	68ab      	ldr	r3, [r5, #8]
 8002ebe:	429a      	cmp	r2, r3
 8002ec0:	f340 829d 	ble.w	80033fe <run_motores+0x7f6>
 8002ec4:	e9d5 6a10 	ldrd	r6, sl, [r5, #64]	; 0x40
 8002ec8:	e9d5 0104 	ldrd	r0, r1, [r5, #16]
 8002ecc:	4371      	muls	r1, r6
 8002ece:	fb0a 1100 	mla	r1, sl, r0, r1
 8002ed2:	fba0 0c06 	umull	r0, ip, r0, r6
 8002ed6:	2300      	movs	r3, #0
 8002ed8:	f8d8 2000 	ldr.w	r2, [r8]
 8002edc:	4461      	add	r1, ip
 8002ede:	f7fd fef9 	bl	8000cd4 <__aeabi_uldivmod>
 8002ee2:	e9d5 230a 	ldrd	r2, r3, [r5, #40]	; 0x28
 8002ee6:	1a10      	subs	r0, r2, r0
 8002ee8:	eb63 0101 	sbc.w	r1, r3, r1
 8002eec:	3601      	adds	r6, #1
 8002eee:	f14a 0300 	adc.w	r3, sl, #0
 8002ef2:	e9c5 6310 	strd	r6, r3, [r5, #64]	; 0x40
 8002ef6:	e9d5 230c 	ldrd	r2, r3, [r5, #48]	; 0x30
 8002efa:	4290      	cmp	r0, r2
 8002efc:	e9c5 0108 	strd	r0, r1, [r5, #32]
 8002f00:	4199      	sbcs	r1, r3
 8002f02:	f2c0 82b6 	blt.w	8003472 <run_motores+0x86a>
 8002f06:	e027      	b.n	8002f58 <run_motores+0x350>
 8002f08:	20000014 	.word	0x20000014
 8002f0c:	20000010 	.word	0x20000010
 8002f10:	2000000c 	.word	0x2000000c
 8002f14:	3ff00000 	.word	0x3ff00000
 8002f18:	20000170 	.word	0x20000170
 8002f1c:	200000f8 	.word	0x200000f8
 8002f20:	200001c0 	.word	0x200001c0
 8002f24:	20000210 	.word	0x20000210
 8002f28:	200000a8 	.word	0x200000a8
 8002f2c:	20000178 	.word	0x20000178
 8002f30:	200001c8 	.word	0x200001c8
 8002f34:	200011a8 	.word	0x200011a8
 8002f38:	20000218 	.word	0x20000218
 8002f3c:	200011f8 	.word	0x200011f8
 8002f40:	200000b0 	.word	0x200000b0
 8002f44:	20001248 	.word	0x20001248
 8002f48:	20001100 	.word	0x20001100
 8002f4c:	20001150 	.word	0x20001150
 8002f50:	40010c00 	.word	0x40010c00
 8002f54:	40010800 	.word	0x40010800
 8002f58:	e9d5 2306 	ldrd	r2, r3, [r5, #24]
 8002f5c:	e9d5 0108 	ldrd	r0, r1, [r5, #32]
 8002f60:	4290      	cmp	r0, r2
 8002f62:	4199      	sbcs	r1, r3
 8002f64:	f2c0 8456 	blt.w	8003814 <run_motores+0xc0c>
 8002f68:	e9c5 2308 	strd	r2, r3, [r5, #32]
 8002f6c:	68fb      	ldr	r3, [r7, #12]
 8002f6e:	f423 6380 	bic.w	r3, r3, #1024	; 0x400
 8002f72:	60fb      	str	r3, [r7, #12]
 8002f74:	6cae      	ldr	r6, [r5, #72]	; 0x48
 8002f76:	e9d5 3008 	ldrd	r3, r0, [r5, #32]
 8002f7a:	fba6 c303 	umull	ip, r3, r6, r3
 8002f7e:	fb06 3000 	mla	r0, r6, r0, r3
 8002f82:	68ea      	ldr	r2, [r5, #12]
 8002f84:	f8d8 1000 	ldr.w	r1, [r8]
 8002f88:	eb1c 0302 	adds.w	r3, ip, r2
 8002f8c:	eb40 70e2 	adc.w	r0, r0, r2, asr #31
 8002f90:	4299      	cmp	r1, r3
 8002f92:	eb79 0300 	sbcs.w	r3, r9, r0
 8002f96:	f280 8274 	bge.w	8003482 <run_motores+0x87a>
 8002f9a:	e9d5 6000 	ldrd	r6, r0, [r5]
 8002f9e:	4286      	cmp	r6, r0
 8002fa0:	f000 826f 	beq.w	8003482 <run_motores+0x87a>
 8002fa4:	1a53      	subs	r3, r2, r1
 8002fa6:	4463      	add	r3, ip
 8002fa8:	4299      	cmp	r1, r3
 8002faa:	60eb      	str	r3, [r5, #12]
 8002fac:	f080 8264 	bcs.w	8003478 <run_motores+0x870>
 8002fb0:	f8c5 900c 	str.w	r9, [r5, #12]
 8002fb4:	682b      	ldr	r3, [r5, #0]
 8002fb6:	f8c5 9048 	str.w	r9, [r5, #72]	; 0x48
 8002fba:	3301      	adds	r3, #1
 8002fbc:	602b      	str	r3, [r5, #0]
 8002fbe:	68fb      	ldr	r3, [r7, #12]
 8002fc0:	f443 6380 	orr.w	r3, r3, #1024	; 0x400
 8002fc4:	60fb      	str	r3, [r7, #12]
 8002fc6:	6cab      	ldr	r3, [r5, #72]	; 0x48
 8002fc8:	4ebc      	ldr	r6, [pc, #752]	; (80032bc <run_motores+0x6b4>)
 8002fca:	3301      	adds	r3, #1
 8002fcc:	6832      	ldr	r2, [r6, #0]
 8002fce:	64ab      	str	r3, [r5, #72]	; 0x48
 8002fd0:	68b3      	ldr	r3, [r6, #8]
 8002fd2:	429a      	cmp	r2, r3
 8002fd4:	f340 828e 	ble.w	80034f4 <run_motores+0x8ec>
 8002fd8:	e9d6 a310 	ldrd	sl, r3, [r6, #64]	; 0x40
 8002fdc:	e9d6 0104 	ldrd	r0, r1, [r6, #16]
 8002fe0:	fb0a f101 	mul.w	r1, sl, r1
 8002fe4:	fb03 1100 	mla	r1, r3, r0, r1
 8002fe8:	fba0 0c0a 	umull	r0, ip, r0, sl
 8002fec:	f8d8 2000 	ldr.w	r2, [r8]
 8002ff0:	9311      	str	r3, [sp, #68]	; 0x44
 8002ff2:	4461      	add	r1, ip
 8002ff4:	2300      	movs	r3, #0
 8002ff6:	f7fd fe6d 	bl	8000cd4 <__aeabi_uldivmod>
 8002ffa:	e9d6 230a 	ldrd	r2, r3, [r6, #40]	; 0x28
 8002ffe:	1a10      	subs	r0, r2, r0
 8003000:	9a11      	ldr	r2, [sp, #68]	; 0x44
 8003002:	eb63 0101 	sbc.w	r1, r3, r1
 8003006:	f11a 0301 	adds.w	r3, sl, #1
 800300a:	f142 0200 	adc.w	r2, r2, #0
 800300e:	e9c6 3210 	strd	r3, r2, [r6, #64]	; 0x40
 8003012:	e9d6 230c 	ldrd	r2, r3, [r6, #48]	; 0x30
 8003016:	4290      	cmp	r0, r2
 8003018:	e9c6 0108 	strd	r0, r1, [r6, #32]
 800301c:	4199      	sbcs	r1, r3
 800301e:	f2c0 82a7 	blt.w	8003570 <run_motores+0x968>
 8003022:	e9d6 2306 	ldrd	r2, r3, [r6, #24]
 8003026:	e9d6 0108 	ldrd	r0, r1, [r6, #32]
 800302a:	4290      	cmp	r0, r2
 800302c:	4199      	sbcs	r1, r3
 800302e:	f2c0 83e8 	blt.w	8003802 <run_motores+0xbfa>
 8003032:	e9c6 2308 	strd	r2, r3, [r6, #32]
 8003036:	68fb      	ldr	r3, [r7, #12]
 8003038:	f8d6 e024 	ldr.w	lr, [r6, #36]	; 0x24
 800303c:	f423 4380 	bic.w	r3, r3, #16384	; 0x4000
 8003040:	60fb      	str	r3, [r7, #12]
 8003042:	6cb0      	ldr	r0, [r6, #72]	; 0x48
 8003044:	6a33      	ldr	r3, [r6, #32]
 8003046:	68f2      	ldr	r2, [r6, #12]
 8003048:	fba0 c303 	umull	ip, r3, r0, r3
 800304c:	fb00 300e 	mla	r0, r0, lr, r3
 8003050:	f8d8 1000 	ldr.w	r1, [r8]
 8003054:	eb1c 0302 	adds.w	r3, ip, r2
 8003058:	eb40 70e2 	adc.w	r0, r0, r2, asr #31
 800305c:	4299      	cmp	r1, r3
 800305e:	eb79 0300 	sbcs.w	r3, r9, r0
 8003062:	f280 828d 	bge.w	8003580 <run_motores+0x978>
 8003066:	e9d6 3000 	ldrd	r3, r0, [r6]
 800306a:	4283      	cmp	r3, r0
 800306c:	f000 8288 	beq.w	8003580 <run_motores+0x978>
 8003070:	1a53      	subs	r3, r2, r1
 8003072:	4463      	add	r3, ip
 8003074:	4299      	cmp	r1, r3
 8003076:	60f3      	str	r3, [r6, #12]
 8003078:	f080 827d 	bcs.w	8003576 <run_motores+0x96e>
 800307c:	f8c6 900c 	str.w	r9, [r6, #12]
 8003080:	4b8e      	ldr	r3, [pc, #568]	; (80032bc <run_motores+0x6b4>)
 8003082:	681a      	ldr	r2, [r3, #0]
 8003084:	f8c3 9048 	str.w	r9, [r3, #72]	; 0x48
 8003088:	3201      	adds	r2, #1
 800308a:	601a      	str	r2, [r3, #0]
 800308c:	68fb      	ldr	r3, [r7, #12]
 800308e:	f443 4380 	orr.w	r3, r3, #16384	; 0x4000
 8003092:	60fb      	str	r3, [r7, #12]
 8003094:	6cb3      	ldr	r3, [r6, #72]	; 0x48
 8003096:	3301      	adds	r3, #1
 8003098:	64b3      	str	r3, [r6, #72]	; 0x48
 800309a:	e9d4 2300 	ldrd	r2, r3, [r4]
 800309e:	1a9b      	subs	r3, r3, r2
 80030a0:	686a      	ldr	r2, [r5, #4]
 80030a2:	4413      	add	r3, r2
 80030a4:	682a      	ldr	r2, [r5, #0]
 80030a6:	1a9b      	subs	r3, r3, r2
 80030a8:	6872      	ldr	r2, [r6, #4]
 80030aa:	4413      	add	r3, r2
 80030ac:	6832      	ldr	r2, [r6, #0]
 80030ae:	4293      	cmp	r3, r2
 80030b0:	f47f ae9d 	bne.w	8002dee <run_motores+0x1e6>
 80030b4:	4e82      	ldr	r6, [pc, #520]	; (80032c0 <run_motores+0x6b8>)
 80030b6:	68f3      	ldr	r3, [r6, #12]
 80030b8:	f023 0301 	bic.w	r3, r3, #1
 80030bc:	60f3      	str	r3, [r6, #12]
 80030be:	68f3      	ldr	r3, [r6, #12]
 80030c0:	f423 6380 	bic.w	r3, r3, #1024	; 0x400
 80030c4:	60f3      	str	r3, [r6, #12]
 80030c6:	68f3      	ldr	r3, [r6, #12]
 80030c8:	f423 4380 	bic.w	r3, r3, #16384	; 0x4000
 80030cc:	60f3      	str	r3, [r6, #12]
 80030ce:	4b7d      	ldr	r3, [pc, #500]	; (80032c4 <run_motores+0x6bc>)
 80030d0:	781b      	ldrb	r3, [r3, #0]
 80030d2:	2b00      	cmp	r3, #0
 80030d4:	f040 80d3 	bne.w	800327e <run_motores+0x676>
 80030d8:	4d7b      	ldr	r5, [pc, #492]	; (80032c8 <run_motores+0x6c0>)
 80030da:	4b7c      	ldr	r3, [pc, #496]	; (80032cc <run_motores+0x6c4>)
 80030dc:	689b      	ldr	r3, [r3, #8]
 80030de:	069b      	lsls	r3, r3, #26
 80030e0:	d501      	bpl.n	80030e6 <run_motores+0x4de>
 80030e2:	f7ff fc81 	bl	80029e8 <E_stop_rutina>
 80030e6:	4c7a      	ldr	r4, [pc, #488]	; (80032d0 <run_motores+0x6c8>)
 80030e8:	6822      	ldr	r2, [r4, #0]
 80030ea:	68a3      	ldr	r3, [r4, #8]
 80030ec:	429a      	cmp	r2, r3
 80030ee:	f340 8280 	ble.w	80035f2 <run_motores+0x9ea>
 80030f2:	e9d4 7810 	ldrd	r7, r8, [r4, #64]	; 0x40
 80030f6:	e9d4 0104 	ldrd	r0, r1, [r4, #16]
 80030fa:	4379      	muls	r1, r7
 80030fc:	fb08 1100 	mla	r1, r8, r0, r1
 8003100:	fba0 0c07 	umull	r0, ip, r0, r7
 8003104:	4b73      	ldr	r3, [pc, #460]	; (80032d4 <run_motores+0x6cc>)
 8003106:	4461      	add	r1, ip
 8003108:	681a      	ldr	r2, [r3, #0]
 800310a:	2300      	movs	r3, #0
 800310c:	f7fd fde2 	bl	8000cd4 <__aeabi_uldivmod>
 8003110:	e9d4 230a 	ldrd	r2, r3, [r4, #40]	; 0x28
 8003114:	1a10      	subs	r0, r2, r0
 8003116:	eb63 0101 	sbc.w	r1, r3, r1
 800311a:	3701      	adds	r7, #1
 800311c:	f148 0300 	adc.w	r3, r8, #0
 8003120:	e9c4 7310 	strd	r7, r3, [r4, #64]	; 0x40
 8003124:	e9d4 230c 	ldrd	r2, r3, [r4, #48]	; 0x30
 8003128:	4290      	cmp	r0, r2
 800312a:	e9c4 0108 	strd	r0, r1, [r4, #32]
 800312e:	4199      	sbcs	r1, r3
 8003130:	f2c0 8299 	blt.w	8003666 <run_motores+0xa5e>
 8003134:	e9d4 2306 	ldrd	r2, r3, [r4, #24]
 8003138:	e9d4 0108 	ldrd	r0, r1, [r4, #32]
 800313c:	4290      	cmp	r0, r2
 800313e:	4199      	sbcs	r1, r3
 8003140:	f2c0 8356 	blt.w	80037f0 <run_motores+0xbe8>
 8003144:	e9c4 2308 	strd	r2, r3, [r4, #32]
 8003148:	2000      	movs	r0, #0
 800314a:	68f3      	ldr	r3, [r6, #12]
 800314c:	f8d4 c024 	ldr.w	ip, [r4, #36]	; 0x24
 8003150:	f423 5380 	bic.w	r3, r3, #4096	; 0x1000
 8003154:	60f3      	str	r3, [r6, #12]
 8003156:	6ca7      	ldr	r7, [r4, #72]	; 0x48
 8003158:	6a23      	ldr	r3, [r4, #32]
 800315a:	495e      	ldr	r1, [pc, #376]	; (80032d4 <run_motores+0x6cc>)
 800315c:	fba7 e303 	umull	lr, r3, r7, r3
 8003160:	fb07 330c 	mla	r3, r7, ip, r3
 8003164:	68e2      	ldr	r2, [r4, #12]
 8003166:	6809      	ldr	r1, [r1, #0]
 8003168:	eb1e 0802 	adds.w	r8, lr, r2
 800316c:	eb43 73e2 	adc.w	r3, r3, r2, asr #31
 8003170:	4541      	cmp	r1, r8
 8003172:	eb70 0303 	sbcs.w	r3, r0, r3
 8003176:	f280 827e 	bge.w	8003676 <run_motores+0xa6e>
 800317a:	e9d4 7300 	ldrd	r7, r3, [r4]
 800317e:	429f      	cmp	r7, r3
 8003180:	f000 8279 	beq.w	8003676 <run_motores+0xa6e>
 8003184:	1a53      	subs	r3, r2, r1
 8003186:	4473      	add	r3, lr
 8003188:	4299      	cmp	r1, r3
 800318a:	60e3      	str	r3, [r4, #12]
 800318c:	f080 826e 	bcs.w	800366c <run_motores+0xa64>
 8003190:	60e0      	str	r0, [r4, #12]
 8003192:	2300      	movs	r3, #0
 8003194:	64a3      	str	r3, [r4, #72]	; 0x48
 8003196:	6823      	ldr	r3, [r4, #0]
 8003198:	3301      	adds	r3, #1
 800319a:	6023      	str	r3, [r4, #0]
 800319c:	68f3      	ldr	r3, [r6, #12]
 800319e:	f443 5380 	orr.w	r3, r3, #4096	; 0x1000
 80031a2:	60f3      	str	r3, [r6, #12]
 80031a4:	6ca3      	ldr	r3, [r4, #72]	; 0x48
 80031a6:	682a      	ldr	r2, [r5, #0]
 80031a8:	3301      	adds	r3, #1
 80031aa:	64a3      	str	r3, [r4, #72]	; 0x48
 80031ac:	68ab      	ldr	r3, [r5, #8]
 80031ae:	429a      	cmp	r2, r3
 80031b0:	f340 829a 	ble.w	80036e8 <run_motores+0xae0>
 80031b4:	e9d5 7810 	ldrd	r7, r8, [r5, #64]	; 0x40
 80031b8:	e9d5 0104 	ldrd	r0, r1, [r5, #16]
 80031bc:	4379      	muls	r1, r7
 80031be:	fb08 1100 	mla	r1, r8, r0, r1
 80031c2:	fba0 0c07 	umull	r0, ip, r0, r7
 80031c6:	4b43      	ldr	r3, [pc, #268]	; (80032d4 <run_motores+0x6cc>)
 80031c8:	4461      	add	r1, ip
 80031ca:	681a      	ldr	r2, [r3, #0]
 80031cc:	2300      	movs	r3, #0
 80031ce:	f7fd fd81 	bl	8000cd4 <__aeabi_uldivmod>
 80031d2:	e9d5 230a 	ldrd	r2, r3, [r5, #40]	; 0x28
 80031d6:	1a10      	subs	r0, r2, r0
 80031d8:	eb63 0101 	sbc.w	r1, r3, r1
 80031dc:	3701      	adds	r7, #1
 80031de:	f148 0300 	adc.w	r3, r8, #0
 80031e2:	e9c5 7310 	strd	r7, r3, [r5, #64]	; 0x40
 80031e6:	e9d5 230c 	ldrd	r2, r3, [r5, #48]	; 0x30
 80031ea:	4290      	cmp	r0, r2
 80031ec:	e9c5 0108 	strd	r0, r1, [r5, #32]
 80031f0:	4199      	sbcs	r1, r3
 80031f2:	f2c0 82b3 	blt.w	800375c <run_motores+0xb54>
 80031f6:	e9d5 2306 	ldrd	r2, r3, [r5, #24]
 80031fa:	e9d5 0108 	ldrd	r0, r1, [r5, #32]
 80031fe:	4290      	cmp	r0, r2
 8003200:	4199      	sbcs	r1, r3
 8003202:	f2c0 82ec 	blt.w	80037de <run_motores+0xbd6>
 8003206:	e9c5 2308 	strd	r2, r3, [r5, #32]
 800320a:	2000      	movs	r0, #0
 800320c:	68f3      	ldr	r3, [r6, #12]
 800320e:	f8d5 c024 	ldr.w	ip, [r5, #36]	; 0x24
 8003212:	f023 0308 	bic.w	r3, r3, #8
 8003216:	60f3      	str	r3, [r6, #12]
 8003218:	6caf      	ldr	r7, [r5, #72]	; 0x48
 800321a:	6a2b      	ldr	r3, [r5, #32]
 800321c:	492d      	ldr	r1, [pc, #180]	; (80032d4 <run_motores+0x6cc>)
 800321e:	fba7 e303 	umull	lr, r3, r7, r3
 8003222:	fb07 330c 	mla	r3, r7, ip, r3
 8003226:	68ea      	ldr	r2, [r5, #12]
 8003228:	6809      	ldr	r1, [r1, #0]
 800322a:	eb1e 0802 	adds.w	r8, lr, r2
 800322e:	eb43 73e2 	adc.w	r3, r3, r2, asr #31
 8003232:	4541      	cmp	r1, r8
 8003234:	eb70 0303 	sbcs.w	r3, r0, r3
 8003238:	f280 8298 	bge.w	800376c <run_motores+0xb64>
 800323c:	e9d5 7300 	ldrd	r7, r3, [r5]
 8003240:	429f      	cmp	r7, r3
 8003242:	f000 8293 	beq.w	800376c <run_motores+0xb64>
 8003246:	1a53      	subs	r3, r2, r1
 8003248:	4473      	add	r3, lr
 800324a:	4299      	cmp	r1, r3
 800324c:	60eb      	str	r3, [r5, #12]
 800324e:	f080 8288 	bcs.w	8003762 <run_motores+0xb5a>
 8003252:	60e8      	str	r0, [r5, #12]
 8003254:	2300      	movs	r3, #0
 8003256:	64ab      	str	r3, [r5, #72]	; 0x48
 8003258:	682b      	ldr	r3, [r5, #0]
 800325a:	3301      	adds	r3, #1
 800325c:	602b      	str	r3, [r5, #0]
 800325e:	68f3      	ldr	r3, [r6, #12]
 8003260:	f043 0308 	orr.w	r3, r3, #8
 8003264:	60f3      	str	r3, [r6, #12]
 8003266:	6cab      	ldr	r3, [r5, #72]	; 0x48
 8003268:	3301      	adds	r3, #1
 800326a:	64ab      	str	r3, [r5, #72]	; 0x48
 800326c:	e9d4 2300 	ldrd	r2, r3, [r4]
 8003270:	1a9b      	subs	r3, r3, r2
 8003272:	686a      	ldr	r2, [r5, #4]
 8003274:	4413      	add	r3, r2
 8003276:	682a      	ldr	r2, [r5, #0]
 8003278:	4293      	cmp	r3, r2
 800327a:	f47f af2e 	bne.w	80030da <run_motores+0x4d2>
 800327e:	4b10      	ldr	r3, [pc, #64]	; (80032c0 <run_motores+0x6b8>)
 8003280:	4915      	ldr	r1, [pc, #84]	; (80032d8 <run_motores+0x6d0>)
 8003282:	68da      	ldr	r2, [r3, #12]
 8003284:	f422 5280 	bic.w	r2, r2, #4096	; 0x1000
 8003288:	60da      	str	r2, [r3, #12]
 800328a:	68da      	ldr	r2, [r3, #12]
 800328c:	f022 0208 	bic.w	r2, r2, #8
 8003290:	60da      	str	r2, [r3, #12]
 8003292:	e9db 2302 	ldrd	r2, r3, [fp, #8]
 8003296:	e9cb 2300 	strd	r2, r3, [fp]
 800329a:	e9d1 2302 	ldrd	r2, r3, [r1, #8]
 800329e:	e9c1 2300 	strd	r2, r3, [r1]
 80032a2:	490e      	ldr	r1, [pc, #56]	; (80032dc <run_motores+0x6d4>)
 80032a4:	e9d1 2302 	ldrd	r2, r3, [r1, #8]
 80032a8:	e9c1 2300 	strd	r2, r3, [r1]
 80032ac:	490c      	ldr	r1, [pc, #48]	; (80032e0 <run_motores+0x6d8>)
 80032ae:	e9d1 2302 	ldrd	r2, r3, [r1, #8]
 80032b2:	e9c1 2300 	strd	r2, r3, [r1]
 80032b6:	4b0b      	ldr	r3, [pc, #44]	; (80032e4 <run_motores+0x6dc>)
 80032b8:	e016      	b.n	80032e8 <run_motores+0x6e0>
 80032ba:	bf00      	nop
 80032bc:	20001150 	.word	0x20001150
 80032c0:	40010c00 	.word	0x40010c00
 80032c4:	20000cf8 	.word	0x20000cf8
 80032c8:	20001100 	.word	0x20001100
 80032cc:	40010800 	.word	0x40010800
 80032d0:	20001248 	.word	0x20001248
 80032d4:	20000010 	.word	0x20000010
 80032d8:	200001c0 	.word	0x200001c0
 80032dc:	20000210 	.word	0x20000210
 80032e0:	200000a8 	.word	0x200000a8
 80032e4:	200000f8 	.word	0x200000f8
 80032e8:	e9d3 0102 	ldrd	r0, r1, [r3, #8]
 80032ec:	e9c3 0100 	strd	r0, r1, [r3]
 80032f0:	b013      	add	sp, #76	; 0x4c
 80032f2:	e8bd 8ff0 	ldmia.w	sp!, {r4, r5, r6, r7, r8, r9, sl, fp, pc}
 80032f6:	4620      	mov	r0, r4
 80032f8:	4629      	mov	r1, r5
 80032fa:	f7fd fc5b 	bl	8000bb4 <__aeabi_d2uiz>
 80032fe:	f8c9 0014 	str.w	r0, [r9, #20]
 8003302:	e515      	b.n	8002d30 <run_motores+0x128>
 8003304:	e9d4 6a0e 	ldrd	r6, sl, [r4, #56]	; 0x38
 8003308:	e9d4 0104 	ldrd	r0, r1, [r4, #16]
 800330c:	4371      	muls	r1, r6
 800330e:	fb0a 1100 	mla	r1, sl, r0, r1
 8003312:	fba0 0c06 	umull	r0, ip, r0, r6
 8003316:	2300      	movs	r3, #0
 8003318:	f8d8 2000 	ldr.w	r2, [r8]
 800331c:	4461      	add	r1, ip
 800331e:	f7fd fcd9 	bl	8000cd4 <__aeabi_uldivmod>
 8003322:	3601      	adds	r6, #1
 8003324:	f14a 0300 	adc.w	r3, sl, #0
 8003328:	e9c4 0108 	strd	r0, r1, [r4, #32]
 800332c:	e9c4 010a 	strd	r0, r1, [r4, #40]	; 0x28
 8003330:	e9c4 630e 	strd	r6, r3, [r4, #56]	; 0x38
 8003334:	bf00      	nop
 8003336:	bf00      	nop
 8003338:	bf00      	nop
 800333a:	bf00      	nop
 800333c:	bf00      	nop
 800333e:	bf00      	nop
 8003340:	bf00      	nop
 8003342:	bf00      	nop
 8003344:	bf00      	nop
 8003346:	bf00      	nop
 8003348:	bf00      	nop
 800334a:	bf00      	nop
 800334c:	bf00      	nop
 800334e:	bf00      	nop
 8003350:	bf00      	nop
 8003352:	bf00      	nop
 8003354:	bf00      	nop
 8003356:	bf00      	nop
 8003358:	bf00      	nop
 800335a:	bf00      	nop
 800335c:	bf00      	nop
 800335e:	bf00      	nop
 8003360:	bf00      	nop
 8003362:	bf00      	nop
 8003364:	bf00      	nop
 8003366:	bf00      	nop
 8003368:	bf00      	nop
 800336a:	bf00      	nop
 800336c:	bf00      	nop
 800336e:	bf00      	nop
 8003370:	6822      	ldr	r2, [r4, #0]
 8003372:	68a3      	ldr	r3, [r4, #8]
 8003374:	429a      	cmp	r2, r3
 8003376:	f77f ad66 	ble.w	8002e46 <run_motores+0x23e>
 800337a:	e543      	b.n	8002e04 <run_motores+0x1fc>
 800337c:	e9c4 2308 	strd	r2, r3, [r4, #32]
 8003380:	e561      	b.n	8002e46 <run_motores+0x23e>
 8003382:	bf00      	nop
 8003384:	bf00      	nop
 8003386:	bf00      	nop
 8003388:	bf00      	nop
 800338a:	e58a      	b.n	8002ea2 <run_motores+0x29a>
 800338c:	bf00      	nop
 800338e:	bf00      	nop
 8003390:	bf00      	nop
 8003392:	bf00      	nop
 8003394:	bf00      	nop
 8003396:	bf00      	nop
 8003398:	bf00      	nop
 800339a:	bf00      	nop
 800339c:	bf00      	nop
 800339e:	bf00      	nop
 80033a0:	bf00      	nop
 80033a2:	bf00      	nop
 80033a4:	bf00      	nop
 80033a6:	bf00      	nop
 80033a8:	bf00      	nop
 80033aa:	bf00      	nop
 80033ac:	bf00      	nop
 80033ae:	bf00      	nop
 80033b0:	bf00      	nop
 80033b2:	bf00      	nop
 80033b4:	bf00      	nop
 80033b6:	bf00      	nop
 80033b8:	bf00      	nop
 80033ba:	bf00      	nop
 80033bc:	bf00      	nop
 80033be:	bf00      	nop
 80033c0:	bf00      	nop
 80033c2:	bf00      	nop
 80033c4:	bf00      	nop
 80033c6:	bf00      	nop
 80033c8:	bf00      	nop
 80033ca:	bf00      	nop
 80033cc:	bf00      	nop
 80033ce:	bf00      	nop
 80033d0:	bf00      	nop
 80033d2:	bf00      	nop
 80033d4:	bf00      	nop
 80033d6:	bf00      	nop
 80033d8:	bf00      	nop
 80033da:	bf00      	nop
 80033dc:	bf00      	nop
 80033de:	bf00      	nop
 80033e0:	bf00      	nop
 80033e2:	bf00      	nop
 80033e4:	bf00      	nop
 80033e6:	bf00      	nop
 80033e8:	bf00      	nop
 80033ea:	bf00      	nop
 80033ec:	bf00      	nop
 80033ee:	bf00      	nop
 80033f0:	bf00      	nop
 80033f2:	bf00      	nop
 80033f4:	bf00      	nop
 80033f6:	68fb      	ldr	r3, [r7, #12]
 80033f8:	f023 0301 	bic.w	r3, r3, #1
 80033fc:	e559      	b.n	8002eb2 <run_motores+0x2aa>
 80033fe:	e9d5 6a0e 	ldrd	r6, sl, [r5, #56]	; 0x38
 8003402:	e9d5 0104 	ldrd	r0, r1, [r5, #16]
 8003406:	4371      	muls	r1, r6
 8003408:	fb0a 1100 	mla	r1, sl, r0, r1
 800340c:	fba0 0c06 	umull	r0, ip, r0, r6
 8003410:	2300      	movs	r3, #0
 8003412:	f8d8 2000 	ldr.w	r2, [r8]
 8003416:	4461      	add	r1, ip
 8003418:	f7fd fc5c 	bl	8000cd4 <__aeabi_uldivmod>
 800341c:	3601      	adds	r6, #1
 800341e:	f14a 0300 	adc.w	r3, sl, #0
 8003422:	e9c5 0108 	strd	r0, r1, [r5, #32]
 8003426:	e9c5 010a 	strd	r0, r1, [r5, #40]	; 0x28
 800342a:	e9c5 630e 	strd	r6, r3, [r5, #56]	; 0x38
 800342e:	bf00      	nop
 8003430:	bf00      	nop
 8003432:	bf00      	nop
 8003434:	bf00      	nop
 8003436:	bf00      	nop
 8003438:	bf00      	nop
 800343a:	bf00      	nop
 800343c:	bf00      	nop
 800343e:	bf00      	nop
 8003440:	bf00      	nop
 8003442:	bf00      	nop
 8003444:	bf00      	nop
 8003446:	bf00      	nop
 8003448:	bf00      	nop
 800344a:	bf00      	nop
 800344c:	bf00      	nop
 800344e:	bf00      	nop
 8003450:	bf00      	nop
 8003452:	bf00      	nop
 8003454:	bf00      	nop
 8003456:	bf00      	nop
 8003458:	bf00      	nop
 800345a:	bf00      	nop
 800345c:	bf00      	nop
 800345e:	bf00      	nop
 8003460:	bf00      	nop
 8003462:	bf00      	nop
 8003464:	bf00      	nop
 8003466:	682a      	ldr	r2, [r5, #0]
 8003468:	68ab      	ldr	r3, [r5, #8]
 800346a:	429a      	cmp	r2, r3
 800346c:	f77f ad74 	ble.w	8002f58 <run_motores+0x350>
 8003470:	e528      	b.n	8002ec4 <run_motores+0x2bc>
 8003472:	e9c5 2308 	strd	r2, r3, [r5, #32]
 8003476:	e56f      	b.n	8002f58 <run_motores+0x350>
 8003478:	bf00      	nop
 800347a:	bf00      	nop
 800347c:	bf00      	nop
 800347e:	bf00      	nop
 8003480:	e598      	b.n	8002fb4 <run_motores+0x3ac>
 8003482:	bf00      	nop
 8003484:	bf00      	nop
 8003486:	bf00      	nop
 8003488:	bf00      	nop
 800348a:	bf00      	nop
 800348c:	bf00      	nop
 800348e:	bf00      	nop
 8003490:	bf00      	nop
 8003492:	bf00      	nop
 8003494:	bf00      	nop
 8003496:	bf00      	nop
 8003498:	bf00      	nop
 800349a:	bf00      	nop
 800349c:	bf00      	nop
 800349e:	bf00      	nop
 80034a0:	bf00      	nop
 80034a2:	bf00      	nop
 80034a4:	bf00      	nop
 80034a6:	bf00      	nop
 80034a8:	bf00      	nop
 80034aa:	bf00      	nop
 80034ac:	bf00      	nop
 80034ae:	bf00      	nop
 80034b0:	bf00      	nop
 80034b2:	bf00      	nop
 80034b4:	bf00      	nop
 80034b6:	bf00      	nop
 80034b8:	bf00      	nop
 80034ba:	bf00      	nop
 80034bc:	bf00      	nop
 80034be:	bf00      	nop
 80034c0:	bf00      	nop
 80034c2:	bf00      	nop
 80034c4:	bf00      	nop
 80034c6:	bf00      	nop
 80034c8:	bf00      	nop
 80034ca:	bf00      	nop
 80034cc:	bf00      	nop
 80034ce:	bf00      	nop
 80034d0:	bf00      	nop
 80034d2:	bf00      	nop
 80034d4:	bf00      	nop
 80034d6:	bf00      	nop
 80034d8:	bf00      	nop
 80034da:	bf00      	nop
 80034dc:	bf00      	nop
 80034de:	bf00      	nop
 80034e0:	bf00      	nop
 80034e2:	bf00      	nop
 80034e4:	bf00      	nop
 80034e6:	bf00      	nop
 80034e8:	bf00      	nop
 80034ea:	bf00      	nop
 80034ec:	68fb      	ldr	r3, [r7, #12]
 80034ee:	f423 6380 	bic.w	r3, r3, #1024	; 0x400
 80034f2:	e567      	b.n	8002fc4 <run_motores+0x3bc>
 80034f4:	e9d6 a30e 	ldrd	sl, r3, [r6, #56]	; 0x38
 80034f8:	e9d6 0104 	ldrd	r0, r1, [r6, #16]
 80034fc:	fb0a f101 	mul.w	r1, sl, r1
 8003500:	fb03 1100 	mla	r1, r3, r0, r1
 8003504:	fba0 0c0a 	umull	r0, ip, r0, sl
 8003508:	f8d8 2000 	ldr.w	r2, [r8]
 800350c:	9311      	str	r3, [sp, #68]	; 0x44
 800350e:	4461      	add	r1, ip
 8003510:	2300      	movs	r3, #0
 8003512:	f7fd fbdf 	bl	8000cd4 <__aeabi_uldivmod>
 8003516:	9a11      	ldr	r2, [sp, #68]	; 0x44
 8003518:	f11a 0301 	adds.w	r3, sl, #1
 800351c:	f142 0200 	adc.w	r2, r2, #0
 8003520:	e9c6 0108 	strd	r0, r1, [r6, #32]
 8003524:	e9c6 010a 	strd	r0, r1, [r6, #40]	; 0x28
 8003528:	e9c6 320e 	strd	r3, r2, [r6, #56]	; 0x38
 800352c:	bf00      	nop
 800352e:	bf00      	nop
 8003530:	bf00      	nop
 8003532:	bf00      	nop
 8003534:	bf00      	nop
 8003536:	bf00      	nop
 8003538:	bf00      	nop
 800353a:	bf00      	nop
 800353c:	bf00      	nop
 800353e:	bf00      	nop
 8003540:	bf00      	nop
 8003542:	bf00      	nop
 8003544:	bf00      	nop
 8003546:	bf00      	nop
 8003548:	bf00      	nop
 800354a:	bf00      	nop
 800354c:	bf00      	nop
 800354e:	bf00      	nop
 8003550:	bf00      	nop
 8003552:	bf00      	nop
 8003554:	bf00      	nop
 8003556:	bf00      	nop
 8003558:	bf00      	nop
 800355a:	bf00      	nop
 800355c:	bf00      	nop
 800355e:	bf00      	nop
 8003560:	bf00      	nop
 8003562:	bf00      	nop
 8003564:	6832      	ldr	r2, [r6, #0]
 8003566:	68b3      	ldr	r3, [r6, #8]
 8003568:	429a      	cmp	r2, r3
 800356a:	f77f ad5a 	ble.w	8003022 <run_motores+0x41a>
 800356e:	e533      	b.n	8002fd8 <run_motores+0x3d0>
 8003570:	e9c6 2308 	strd	r2, r3, [r6, #32]
 8003574:	e555      	b.n	8003022 <run_motores+0x41a>
 8003576:	bf00      	nop
 8003578:	bf00      	nop
 800357a:	bf00      	nop
 800357c:	bf00      	nop
 800357e:	e57f      	b.n	8003080 <run_motores+0x478>
 8003580:	bf00      	nop
 8003582:	bf00      	nop
 8003584:	bf00      	nop
 8003586:	bf00      	nop
 8003588:	bf00      	nop
 800358a:	bf00      	nop
 800358c:	bf00      	nop
 800358e:	bf00      	nop
 8003590:	bf00      	nop
 8003592:	bf00      	nop
 8003594:	bf00      	nop
 8003596:	bf00      	nop
 8003598:	bf00      	nop
 800359a:	bf00      	nop
 800359c:	bf00      	nop
 800359e:	bf00      	nop
 80035a0:	bf00      	nop
 80035a2:	bf00      	nop
 80035a4:	bf00      	nop
 80035a6:	bf00      	nop
 80035a8:	bf00      	nop
 80035aa:	bf00      	nop
 80035ac:	bf00      	nop
 80035ae:	bf00      	nop
 80035b0:	bf00      	nop
 80035b2:	bf00      	nop
 80035b4:	bf00      	nop
 80035b6:	bf00      	nop
 80035b8:	bf00      	nop
 80035ba:	bf00      	nop
 80035bc:	bf00      	nop
 80035be:	bf00      	nop
 80035c0:	bf00      	nop
 80035c2:	bf00      	nop
 80035c4:	bf00      	nop
 80035c6:	bf00      	nop
 80035c8:	bf00      	nop
 80035ca:	bf00      	nop
 80035cc:	bf00      	nop
 80035ce:	bf00      	nop
 80035d0:	bf00      	nop
 80035d2:	bf00      	nop
 80035d4:	bf00      	nop
 80035d6:	bf00      	nop
 80035d8:	bf00      	nop
 80035da:	bf00      	nop
 80035dc:	bf00      	nop
 80035de:	bf00      	nop
 80035e0:	bf00      	nop
 80035e2:	bf00      	nop
 80035e4:	bf00      	nop
 80035e6:	bf00      	nop
 80035e8:	bf00      	nop
 80035ea:	68fb      	ldr	r3, [r7, #12]
 80035ec:	f423 4380 	bic.w	r3, r3, #16384	; 0x4000
 80035f0:	e54f      	b.n	8003092 <run_motores+0x48a>
 80035f2:	e9d4 780e 	ldrd	r7, r8, [r4, #56]	; 0x38
 80035f6:	e9d4 0104 	ldrd	r0, r1, [r4, #16]
 80035fa:	4379      	muls	r1, r7
 80035fc:	fb08 1100 	mla	r1, r8, r0, r1
 8003600:	fba0 0c07 	umull	r0, ip, r0, r7
 8003604:	4b88      	ldr	r3, [pc, #544]	; (8003828 <run_motores+0xc20>)
 8003606:	4461      	add	r1, ip
 8003608:	681a      	ldr	r2, [r3, #0]
 800360a:	2300      	movs	r3, #0
 800360c:	f7fd fb62 	bl	8000cd4 <__aeabi_uldivmod>
 8003610:	3701      	adds	r7, #1
 8003612:	f148 0300 	adc.w	r3, r8, #0
 8003616:	e9c4 0108 	strd	r0, r1, [r4, #32]
 800361a:	e9c4 010a 	strd	r0, r1, [r4, #40]	; 0x28
 800361e:	e9c4 730e 	strd	r7, r3, [r4, #56]	; 0x38
 8003622:	bf00      	nop
 8003624:	bf00      	nop
 8003626:	bf00      	nop
 8003628:	bf00      	nop
 800362a:	bf00      	nop
 800362c:	bf00      	nop
 800362e:	bf00      	nop
 8003630:	bf00      	nop
 8003632:	bf00      	nop
 8003634:	bf00      	nop
 8003636:	bf00      	nop
 8003638:	bf00      	nop
 800363a:	bf00      	nop
 800363c:	bf00      	nop
 800363e:	bf00      	nop
 8003640:	bf00      	nop
 8003642:	bf00      	nop
 8003644:	bf00      	nop
 8003646:	bf00      	nop
 8003648:	bf00      	nop
 800364a:	bf00      	nop
 800364c:	bf00      	nop
 800364e:	bf00      	nop
 8003650:	bf00      	nop
 8003652:	bf00      	nop
 8003654:	bf00      	nop
 8003656:	bf00      	nop
 8003658:	bf00      	nop
 800365a:	6822      	ldr	r2, [r4, #0]
 800365c:	68a3      	ldr	r3, [r4, #8]
 800365e:	429a      	cmp	r2, r3
 8003660:	f77f ad68 	ble.w	8003134 <run_motores+0x52c>
 8003664:	e545      	b.n	80030f2 <run_motores+0x4ea>
 8003666:	e9c4 2308 	strd	r2, r3, [r4, #32]
 800366a:	e563      	b.n	8003134 <run_motores+0x52c>
 800366c:	bf00      	nop
 800366e:	bf00      	nop
 8003670:	bf00      	nop
 8003672:	bf00      	nop
 8003674:	e58d      	b.n	8003192 <run_motores+0x58a>
 8003676:	bf00      	nop
 8003678:	bf00      	nop
 800367a:	bf00      	nop
 800367c:	bf00      	nop
 800367e:	bf00      	nop
 8003680:	bf00      	nop
 8003682:	bf00      	nop
 8003684:	bf00      	nop
 8003686:	bf00      	nop
 8003688:	bf00      	nop
 800368a:	bf00      	nop
 800368c:	bf00      	nop
 800368e:	bf00      	nop
 8003690:	bf00      	nop
 8003692:	bf00      	nop
 8003694:	bf00      	nop
 8003696:	bf00      	nop
 8003698:	bf00      	nop
 800369a:	bf00      	nop
 800369c:	bf00      	nop
 800369e:	bf00      	nop
 80036a0:	bf00      	nop
 80036a2:	bf00      	nop
 80036a4:	bf00      	nop
 80036a6:	bf00      	nop
 80036a8:	bf00      	nop
 80036aa:	bf00      	nop
 80036ac:	bf00      	nop
 80036ae:	bf00      	nop
 80036b0:	bf00      	nop
 80036b2:	bf00      	nop
 80036b4:	bf00      	nop
 80036b6:	bf00      	nop
 80036b8:	bf00      	nop
 80036ba:	bf00      	nop
 80036bc:	bf00      	nop
 80036be:	bf00      	nop
 80036c0:	bf00      	nop
 80036c2:	bf00      	nop
 80036c4:	bf00      	nop
 80036c6:	bf00      	nop
 80036c8:	bf00      	nop
 80036ca:	bf00      	nop
 80036cc:	bf00      	nop
 80036ce:	bf00      	nop
 80036d0:	bf00      	nop
 80036d2:	bf00      	nop
 80036d4:	bf00      	nop
 80036d6:	bf00      	nop
 80036d8:	bf00      	nop
 80036da:	bf00      	nop
 80036dc:	bf00      	nop
 80036de:	bf00      	nop
 80036e0:	68f3      	ldr	r3, [r6, #12]
 80036e2:	f423 5380 	bic.w	r3, r3, #4096	; 0x1000
 80036e6:	e55c      	b.n	80031a2 <run_motores+0x59a>
 80036e8:	e9d5 780e 	ldrd	r7, r8, [r5, #56]	; 0x38
 80036ec:	e9d5 0104 	ldrd	r0, r1, [r5, #16]
 80036f0:	4379      	muls	r1, r7
 80036f2:	fb08 1100 	mla	r1, r8, r0, r1
 80036f6:	fba0 0c07 	umull	r0, ip, r0, r7
 80036fa:	4b4b      	ldr	r3, [pc, #300]	; (8003828 <run_motores+0xc20>)
 80036fc:	4461      	add	r1, ip
 80036fe:	681a      	ldr	r2, [r3, #0]
 8003700:	2300      	movs	r3, #0
 8003702:	f7fd fae7 	bl	8000cd4 <__aeabi_uldivmod>
 8003706:	3701      	adds	r7, #1
 8003708:	f148 0300 	adc.w	r3, r8, #0
 800370c:	e9c5 0108 	strd	r0, r1, [r5, #32]
 8003710:	e9c5 010a 	strd	r0, r1, [r5, #40]	; 0x28
 8003714:	e9c5 730e 	strd	r7, r3, [r5, #56]	; 0x38
 8003718:	bf00      	nop
 800371a:	bf00      	nop
 800371c:	bf00      	nop
 800371e:	bf00      	nop
 8003720:	bf00      	nop
 8003722:	bf00      	nop
 8003724:	bf00      	nop
 8003726:	bf00      	nop
 8003728:	bf00      	nop
 800372a:	bf00      	nop
 800372c:	bf00      	nop
 800372e:	bf00      	nop
 8003730:	bf00      	nop
 8003732:	bf00      	nop
 8003734:	bf00      	nop
 8003736:	bf00      	nop
 8003738:	bf00      	nop
 800373a:	bf00      	nop
 800373c:	bf00      	nop
 800373e:	bf00      	nop
 8003740:	bf00      	nop
 8003742:	bf00      	nop
 8003744:	bf00      	nop
 8003746:	bf00      	nop
 8003748:	bf00      	nop
 800374a:	bf00      	nop
 800374c:	bf00      	nop
 800374e:	bf00      	nop
 8003750:	682a      	ldr	r2, [r5, #0]
 8003752:	68ab      	ldr	r3, [r5, #8]
 8003754:	429a      	cmp	r2, r3
 8003756:	f77f ad4e 	ble.w	80031f6 <run_motores+0x5ee>
 800375a:	e52b      	b.n	80031b4 <run_motores+0x5ac>
 800375c:	e9c5 2308 	strd	r2, r3, [r5, #32]
 8003760:	e549      	b.n	80031f6 <run_motores+0x5ee>
 8003762:	bf00      	nop
 8003764:	bf00      	nop
 8003766:	bf00      	nop
 8003768:	bf00      	nop
 800376a:	e573      	b.n	8003254 <run_motores+0x64c>
 800376c:	bf00      	nop
 800376e:	bf00      	nop
 8003770:	bf00      	nop
 8003772:	bf00      	nop
 8003774:	bf00      	nop
 8003776:	bf00      	nop
 8003778:	bf00      	nop
 800377a:	bf00      	nop
 800377c:	bf00      	nop
 800377e:	bf00      	nop
 8003780:	bf00      	nop
 8003782:	bf00      	nop
 8003784:	bf00      	nop
 8003786:	bf00      	nop
 8003788:	bf00      	nop
 800378a:	bf00      	nop
 800378c:	bf00      	nop
 800378e:	bf00      	nop
 8003790:	bf00      	nop
 8003792:	bf00      	nop
 8003794:	bf00      	nop
 8003796:	bf00      	nop
 8003798:	bf00      	nop
 800379a:	bf00      	nop
 800379c:	bf00      	nop
 800379e:	bf00      	nop
 80037a0:	bf00      	nop
 80037a2:	bf00      	nop
 80037a4:	bf00      	nop
 80037a6:	bf00      	nop
 80037a8:	bf00      	nop
 80037aa:	bf00      	nop
 80037ac:	bf00      	nop
 80037ae:	bf00      	nop
 80037b0:	bf00      	nop
 80037b2:	bf00      	nop
 80037b4:	bf00      	nop
 80037b6:	bf00      	nop
 80037b8:	bf00      	nop
 80037ba:	bf00      	nop
 80037bc:	bf00      	nop
 80037be:	bf00      	nop
 80037c0:	bf00      	nop
 80037c2:	bf00      	nop
 80037c4:	bf00      	nop
 80037c6:	bf00      	nop
 80037c8:	bf00      	nop
 80037ca:	bf00      	nop
 80037cc:	bf00      	nop
 80037ce:	bf00      	nop
 80037d0:	bf00      	nop
 80037d2:	bf00      	nop
 80037d4:	bf00      	nop
 80037d6:	68f3      	ldr	r3, [r6, #12]
 80037d8:	f023 0308 	bic.w	r3, r3, #8
 80037dc:	e542      	b.n	8003264 <run_motores+0x65c>
 80037de:	bf00      	nop
 80037e0:	bf00      	nop
 80037e2:	bf00      	nop
 80037e4:	bf00      	nop
 80037e6:	bf00      	nop
 80037e8:	bf00      	nop
 80037ea:	bf00      	nop
 80037ec:	bf00      	nop
 80037ee:	e50c      	b.n	800320a <run_motores+0x602>
 80037f0:	bf00      	nop
 80037f2:	bf00      	nop
 80037f4:	bf00      	nop
 80037f6:	bf00      	nop
 80037f8:	bf00      	nop
 80037fa:	bf00      	nop
 80037fc:	bf00      	nop
 80037fe:	bf00      	nop
 8003800:	e4a2      	b.n	8003148 <run_motores+0x540>
 8003802:	bf00      	nop
 8003804:	bf00      	nop
 8003806:	bf00      	nop
 8003808:	bf00      	nop
 800380a:	bf00      	nop
 800380c:	bf00      	nop
 800380e:	bf00      	nop
 8003810:	bf00      	nop
 8003812:	e410      	b.n	8003036 <run_motores+0x42e>
 8003814:	bf00      	nop
 8003816:	bf00      	nop
 8003818:	bf00      	nop
 800381a:	bf00      	nop
 800381c:	bf00      	nop
 800381e:	bf00      	nop
 8003820:	bf00      	nop
 8003822:	bf00      	nop
 8003824:	f7ff bba2 	b.w	8002f6c <run_motores+0x364>
 8003828:	20000010 	.word	0x20000010
 800382c:	bf00      	nop
 800382e:	bf00      	nop
 8003830:	bf00      	nop
 8003832:	bf00      	nop
 8003834:	bf00      	nop
 8003836:	bf00      	nop
 8003838:	bf00      	nop
 800383a:	bf00      	nop
 800383c:	f7ff bb0d 	b.w	8002e5a <run_motores+0x252>

08003840 <HAL_MspInit>:
 8003840:	4b0e      	ldr	r3, [pc, #56]	; (800387c <HAL_MspInit+0x3c>)
 8003842:	b082      	sub	sp, #8
 8003844:	699a      	ldr	r2, [r3, #24]
 8003846:	f042 0201 	orr.w	r2, r2, #1
 800384a:	619a      	str	r2, [r3, #24]
 800384c:	699a      	ldr	r2, [r3, #24]
 800384e:	f002 0201 	and.w	r2, r2, #1
 8003852:	9200      	str	r2, [sp, #0]
 8003854:	9a00      	ldr	r2, [sp, #0]
 8003856:	69da      	ldr	r2, [r3, #28]
 8003858:	f042 5280 	orr.w	r2, r2, #268435456	; 0x10000000
 800385c:	61da      	str	r2, [r3, #28]
 800385e:	69db      	ldr	r3, [r3, #28]
 8003860:	4a07      	ldr	r2, [pc, #28]	; (8003880 <HAL_MspInit+0x40>)
 8003862:	f003 5380 	and.w	r3, r3, #268435456	; 0x10000000
 8003866:	9301      	str	r3, [sp, #4]
 8003868:	9b01      	ldr	r3, [sp, #4]
 800386a:	6853      	ldr	r3, [r2, #4]
 800386c:	f023 63e0 	bic.w	r3, r3, #117440512	; 0x7000000
 8003870:	f043 7300 	orr.w	r3, r3, #33554432	; 0x2000000
 8003874:	6053      	str	r3, [r2, #4]
 8003876:	b002      	add	sp, #8
 8003878:	4770      	bx	lr
 800387a:	bf00      	nop
 800387c:	40021000 	.word	0x40021000
 8003880:	40010000 	.word	0x40010000

08003884 <HAL_TIM_Base_MspInit>:
 8003884:	6802      	ldr	r2, [r0, #0]
 8003886:	4b08      	ldr	r3, [pc, #32]	; (80038a8 <HAL_TIM_Base_MspInit+0x24>)
 8003888:	b082      	sub	sp, #8
 800388a:	429a      	cmp	r2, r3
 800388c:	d10a      	bne.n	80038a4 <HAL_TIM_Base_MspInit+0x20>
 800388e:	f503 3303 	add.w	r3, r3, #134144	; 0x20c00
 8003892:	69da      	ldr	r2, [r3, #28]
 8003894:	f042 0202 	orr.w	r2, r2, #2
 8003898:	61da      	str	r2, [r3, #28]
 800389a:	69db      	ldr	r3, [r3, #28]
 800389c:	f003 0302 	and.w	r3, r3, #2
 80038a0:	9301      	str	r3, [sp, #4]
 80038a2:	9b01      	ldr	r3, [sp, #4]
 80038a4:	b002      	add	sp, #8
 80038a6:	4770      	bx	lr
 80038a8:	40000400 	.word	0x40000400

080038ac <HAL_TIM_MspPostInit>:
 80038ac:	b510      	push	{r4, lr}
 80038ae:	4604      	mov	r4, r0
 80038b0:	b086      	sub	sp, #24
 80038b2:	2210      	movs	r2, #16
 80038b4:	2100      	movs	r1, #0
 80038b6:	a802      	add	r0, sp, #8
 80038b8:	f001 fc0a 	bl	80050d0 <memset>
 80038bc:	6822      	ldr	r2, [r4, #0]
 80038be:	4b0c      	ldr	r3, [pc, #48]	; (80038f0 <HAL_TIM_MspPostInit+0x44>)
 80038c0:	429a      	cmp	r2, r3
 80038c2:	d113      	bne.n	80038ec <HAL_TIM_MspPostInit+0x40>
 80038c4:	f503 3303 	add.w	r3, r3, #134144	; 0x20c00
 80038c8:	699a      	ldr	r2, [r3, #24]
 80038ca:	480a      	ldr	r0, [pc, #40]	; (80038f4 <HAL_TIM_MspPostInit+0x48>)
 80038cc:	f042 0204 	orr.w	r2, r2, #4
 80038d0:	619a      	str	r2, [r3, #24]
 80038d2:	699b      	ldr	r3, [r3, #24]
 80038d4:	22c0      	movs	r2, #192	; 0xc0
 80038d6:	f003 0304 	and.w	r3, r3, #4
 80038da:	9301      	str	r3, [sp, #4]
 80038dc:	9b01      	ldr	r3, [sp, #4]
 80038de:	2302      	movs	r3, #2
 80038e0:	a902      	add	r1, sp, #8
 80038e2:	e9cd 2302 	strd	r2, r3, [sp, #8]
 80038e6:	9305      	str	r3, [sp, #20]
 80038e8:	f000 fb00 	bl	8003eec <HAL_GPIO_Init>
 80038ec:	b006      	add	sp, #24
 80038ee:	bd10      	pop	{r4, pc}
 80038f0:	40000400 	.word	0x40000400
 80038f4:	40010800 	.word	0x40010800

080038f8 <HAL_UART_MspInit>:
 80038f8:	b510      	push	{r4, lr}
 80038fa:	4604      	mov	r4, r0
 80038fc:	b086      	sub	sp, #24
 80038fe:	2210      	movs	r2, #16
 8003900:	2100      	movs	r1, #0
 8003902:	a802      	add	r0, sp, #8
 8003904:	f001 fbe4 	bl	80050d0 <memset>
 8003908:	6822      	ldr	r2, [r4, #0]
 800390a:	4b1b      	ldr	r3, [pc, #108]	; (8003978 <HAL_UART_MspInit+0x80>)
 800390c:	429a      	cmp	r2, r3
 800390e:	d130      	bne.n	8003972 <HAL_UART_MspInit+0x7a>
 8003910:	f503 4358 	add.w	r3, r3, #55296	; 0xd800
 8003914:	699a      	ldr	r2, [r3, #24]
 8003916:	4819      	ldr	r0, [pc, #100]	; (800397c <HAL_UART_MspInit+0x84>)
 8003918:	f442 4280 	orr.w	r2, r2, #16384	; 0x4000
 800391c:	619a      	str	r2, [r3, #24]
 800391e:	699a      	ldr	r2, [r3, #24]
 8003920:	a902      	add	r1, sp, #8
 8003922:	f402 4280 	and.w	r2, r2, #16384	; 0x4000
 8003926:	9200      	str	r2, [sp, #0]
 8003928:	9a00      	ldr	r2, [sp, #0]
 800392a:	699a      	ldr	r2, [r3, #24]
 800392c:	2400      	movs	r4, #0
 800392e:	f042 0204 	orr.w	r2, r2, #4
 8003932:	619a      	str	r2, [r3, #24]
 8003934:	699b      	ldr	r3, [r3, #24]
 8003936:	f44f 7200 	mov.w	r2, #512	; 0x200
 800393a:	f003 0304 	and.w	r3, r3, #4
 800393e:	9301      	str	r3, [sp, #4]
 8003940:	9b01      	ldr	r3, [sp, #4]
 8003942:	2302      	movs	r3, #2
 8003944:	e9cd 2302 	strd	r2, r3, [sp, #8]
 8003948:	2303      	movs	r3, #3
 800394a:	9305      	str	r3, [sp, #20]
 800394c:	f000 face 	bl	8003eec <HAL_GPIO_Init>
 8003950:	f44f 6380 	mov.w	r3, #1024	; 0x400
 8003954:	4809      	ldr	r0, [pc, #36]	; (800397c <HAL_UART_MspInit+0x84>)
 8003956:	a902      	add	r1, sp, #8
 8003958:	e9cd 3402 	strd	r3, r4, [sp, #8]
 800395c:	9404      	str	r4, [sp, #16]
 800395e:	f000 fac5 	bl	8003eec <HAL_GPIO_Init>
 8003962:	2025      	movs	r0, #37	; 0x25
 8003964:	4622      	mov	r2, r4
 8003966:	4621      	mov	r1, r4
 8003968:	f000 f8e4 	bl	8003b34 <HAL_NVIC_SetPriority>
 800396c:	2025      	movs	r0, #37	; 0x25
 800396e:	f000 f913 	bl	8003b98 <HAL_NVIC_EnableIRQ>
 8003972:	b006      	add	sp, #24
 8003974:	bd10      	pop	{r4, pc}
 8003976:	bf00      	nop
 8003978:	40013800 	.word	0x40013800
 800397c:	40010800 	.word	0x40010800

08003980 <NMI_Handler>:
 8003980:	e7fe      	b.n	8003980 <NMI_Handler>

08003982 <HardFault_Handler>:
 8003982:	e7fe      	b.n	8003982 <HardFault_Handler>

08003984 <MemManage_Handler>:
 8003984:	e7fe      	b.n	8003984 <MemManage_Handler>

08003986 <BusFault_Handler>:
 8003986:	e7fe      	b.n	8003986 <BusFault_Handler>

08003988 <UsageFault_Handler>:
 8003988:	e7fe      	b.n	8003988 <UsageFault_Handler>

0800398a <SVC_Handler>:
 800398a:	4770      	bx	lr

0800398c <DebugMon_Handler>:
 800398c:	4770      	bx	lr

0800398e <PendSV_Handler>:
 800398e:	4770      	bx	lr

08003990 <SysTick_Handler>:
 8003990:	f000 b8ac 	b.w	8003aec <HAL_IncTick>

08003994 <USART1_IRQHandler>:
 8003994:	4801      	ldr	r0, [pc, #4]	; (800399c <USART1_IRQHandler+0x8>)
 8003996:	f001 ba37 	b.w	8004e08 <HAL_UART_IRQHandler>
 800399a:	bf00      	nop
 800399c:	20000cac 	.word	0x20000cac

080039a0 <_read>:
 80039a0:	b570      	push	{r4, r5, r6, lr}
 80039a2:	460d      	mov	r5, r1
 80039a4:	4614      	mov	r4, r2
 80039a6:	460e      	mov	r6, r1
 80039a8:	1b73      	subs	r3, r6, r5
 80039aa:	429c      	cmp	r4, r3
 80039ac:	dc01      	bgt.n	80039b2 <_read+0x12>
 80039ae:	4620      	mov	r0, r4
 80039b0:	bd70      	pop	{r4, r5, r6, pc}
 80039b2:	f3af 8000 	nop.w
 80039b6:	f806 0b01 	strb.w	r0, [r6], #1
 80039ba:	e7f5      	b.n	80039a8 <_read+0x8>

080039bc <_write>:
 80039bc:	b570      	push	{r4, r5, r6, lr}
 80039be:	460d      	mov	r5, r1
 80039c0:	4614      	mov	r4, r2
 80039c2:	460e      	mov	r6, r1
 80039c4:	1b73      	subs	r3, r6, r5
 80039c6:	429c      	cmp	r4, r3
 80039c8:	dc01      	bgt.n	80039ce <_write+0x12>
 80039ca:	4620      	mov	r0, r4
 80039cc:	bd70      	pop	{r4, r5, r6, pc}
 80039ce:	f816 0b01 	ldrb.w	r0, [r6], #1
 80039d2:	f7fd fd63 	bl	800149c <__io_putchar>
 80039d6:	e7f5      	b.n	80039c4 <_write+0x8>

080039d8 <_close>:
 80039d8:	f04f 30ff 	mov.w	r0, #4294967295
 80039dc:	4770      	bx	lr

080039de <_fstat>:
 80039de:	f44f 5300 	mov.w	r3, #8192	; 0x2000
 80039e2:	2000      	movs	r0, #0
 80039e4:	604b      	str	r3, [r1, #4]
 80039e6:	4770      	bx	lr

080039e8 <_isatty>:
 80039e8:	2001      	movs	r0, #1
 80039ea:	4770      	bx	lr

080039ec <_lseek>:
 80039ec:	2000      	movs	r0, #0
 80039ee:	4770      	bx	lr

080039f0 <_sbrk>:
 80039f0:	4a0b      	ldr	r2, [pc, #44]	; (8003a20 <_sbrk+0x30>)
 80039f2:	4603      	mov	r3, r0
 80039f4:	6811      	ldr	r1, [r2, #0]
 80039f6:	b510      	push	{r4, lr}
 80039f8:	b909      	cbnz	r1, 80039fe <_sbrk+0xe>
 80039fa:	490a      	ldr	r1, [pc, #40]	; (8003a24 <_sbrk+0x34>)
 80039fc:	6011      	str	r1, [r2, #0]
 80039fe:	6810      	ldr	r0, [r2, #0]
 8003a00:	4909      	ldr	r1, [pc, #36]	; (8003a28 <_sbrk+0x38>)
 8003a02:	4c0a      	ldr	r4, [pc, #40]	; (8003a2c <_sbrk+0x3c>)
 8003a04:	4403      	add	r3, r0
 8003a06:	1b09      	subs	r1, r1, r4
 8003a08:	428b      	cmp	r3, r1
 8003a0a:	d906      	bls.n	8003a1a <_sbrk+0x2a>
 8003a0c:	f001 fb36 	bl	800507c <__errno>
 8003a10:	230c      	movs	r3, #12
 8003a12:	6003      	str	r3, [r0, #0]
 8003a14:	f04f 30ff 	mov.w	r0, #4294967295
 8003a18:	bd10      	pop	{r4, pc}
 8003a1a:	6013      	str	r3, [r2, #0]
 8003a1c:	e7fc      	b.n	8003a18 <_sbrk+0x28>
 8003a1e:	bf00      	nop
 8003a20:	20001298 	.word	0x20001298
 8003a24:	200012d0 	.word	0x200012d0
 8003a28:	20005000 	.word	0x20005000
 8003a2c:	00000400 	.word	0x00000400

08003a30 <SystemInit>:
 8003a30:	4770      	bx	lr
	...

08003a34 <Reset_Handler>:
 8003a34:	480c      	ldr	r0, [pc, #48]	; (8003a68 <LoopFillZerobss+0x12>)
 8003a36:	490d      	ldr	r1, [pc, #52]	; (8003a6c <LoopFillZerobss+0x16>)
 8003a38:	4a0d      	ldr	r2, [pc, #52]	; (8003a70 <LoopFillZerobss+0x1a>)
 8003a3a:	2300      	movs	r3, #0
 8003a3c:	e002      	b.n	8003a44 <LoopCopyDataInit>

08003a3e <CopyDataInit>:
 8003a3e:	58d4      	ldr	r4, [r2, r3]
 8003a40:	50c4      	str	r4, [r0, r3]
 8003a42:	3304      	adds	r3, #4

08003a44 <LoopCopyDataInit>:
 8003a44:	18c4      	adds	r4, r0, r3
 8003a46:	428c      	cmp	r4, r1
 8003a48:	d3f9      	bcc.n	8003a3e <CopyDataInit>
 8003a4a:	4a0a      	ldr	r2, [pc, #40]	; (8003a74 <LoopFillZerobss+0x1e>)
 8003a4c:	4c0a      	ldr	r4, [pc, #40]	; (8003a78 <LoopFillZerobss+0x22>)
 8003a4e:	2300      	movs	r3, #0
 8003a50:	e001      	b.n	8003a56 <LoopFillZerobss>

08003a52 <FillZerobss>:
 8003a52:	6013      	str	r3, [r2, #0]
 8003a54:	3204      	adds	r2, #4

08003a56 <LoopFillZerobss>:
 8003a56:	42a2      	cmp	r2, r4
 8003a58:	d3fb      	bcc.n	8003a52 <FillZerobss>
 8003a5a:	f7ff ffe9 	bl	8003a30 <SystemInit>
 8003a5e:	f001 fb13 	bl	8005088 <__libc_init_array>
 8003a62:	f7fe fd89 	bl	8002578 <main>
 8003a66:	4770      	bx	lr
 8003a68:	20000000 	.word	0x20000000
 8003a6c:	20000088 	.word	0x20000088
 8003a70:	08006368 	.word	0x08006368
 8003a74:	20000088 	.word	0x20000088
 8003a78:	200012d0 	.word	0x200012d0

08003a7c <ADC1_2_IRQHandler>:
 8003a7c:	e7fe      	b.n	8003a7c <ADC1_2_IRQHandler>
	...

08003a80 <HAL_InitTick>:
 8003a80:	b538      	push	{r3, r4, r5, lr}
 8003a82:	4b0e      	ldr	r3, [pc, #56]	; (8003abc <HAL_InitTick+0x3c>)
 8003a84:	4605      	mov	r5, r0
 8003a86:	7818      	ldrb	r0, [r3, #0]
 8003a88:	f44f 737a 	mov.w	r3, #1000	; 0x3e8
 8003a8c:	fbb3 f3f0 	udiv	r3, r3, r0
 8003a90:	4a0b      	ldr	r2, [pc, #44]	; (8003ac0 <HAL_InitTick+0x40>)
 8003a92:	6810      	ldr	r0, [r2, #0]
 8003a94:	fbb0 f0f3 	udiv	r0, r0, r3
 8003a98:	f000 f88c 	bl	8003bb4 <HAL_SYSTICK_Config>
 8003a9c:	4604      	mov	r4, r0
 8003a9e:	b958      	cbnz	r0, 8003ab8 <HAL_InitTick+0x38>
 8003aa0:	2d0f      	cmp	r5, #15
 8003aa2:	d809      	bhi.n	8003ab8 <HAL_InitTick+0x38>
 8003aa4:	4602      	mov	r2, r0
 8003aa6:	4629      	mov	r1, r5
 8003aa8:	f04f 30ff 	mov.w	r0, #4294967295
 8003aac:	f000 f842 	bl	8003b34 <HAL_NVIC_SetPriority>
 8003ab0:	4620      	mov	r0, r4
 8003ab2:	4b04      	ldr	r3, [pc, #16]	; (8003ac4 <HAL_InitTick+0x44>)
 8003ab4:	601d      	str	r5, [r3, #0]
 8003ab6:	bd38      	pop	{r3, r4, r5, pc}
 8003ab8:	2001      	movs	r0, #1
 8003aba:	e7fc      	b.n	8003ab6 <HAL_InitTick+0x36>
 8003abc:	2000001c 	.word	0x2000001c
 8003ac0:	20000018 	.word	0x20000018
 8003ac4:	20000020 	.word	0x20000020

08003ac8 <HAL_Init>:
 8003ac8:	4a07      	ldr	r2, [pc, #28]	; (8003ae8 <HAL_Init+0x20>)
 8003aca:	b508      	push	{r3, lr}
 8003acc:	6813      	ldr	r3, [r2, #0]
 8003ace:	2003      	movs	r0, #3
 8003ad0:	f043 0310 	orr.w	r3, r3, #16
 8003ad4:	6013      	str	r3, [r2, #0]
 8003ad6:	f000 f81b 	bl	8003b10 <HAL_NVIC_SetPriorityGrouping>
 8003ada:	200f      	movs	r0, #15
 8003adc:	f7ff ffd0 	bl	8003a80 <HAL_InitTick>
 8003ae0:	f7ff feae 	bl	8003840 <HAL_MspInit>
 8003ae4:	2000      	movs	r0, #0
 8003ae6:	bd08      	pop	{r3, pc}
 8003ae8:	40022000 	.word	0x40022000

08003aec <HAL_IncTick>:
 8003aec:	4a03      	ldr	r2, [pc, #12]	; (8003afc <HAL_IncTick+0x10>)
 8003aee:	4b04      	ldr	r3, [pc, #16]	; (8003b00 <HAL_IncTick+0x14>)
 8003af0:	6811      	ldr	r1, [r2, #0]
 8003af2:	781b      	ldrb	r3, [r3, #0]
 8003af4:	440b      	add	r3, r1
 8003af6:	6013      	str	r3, [r2, #0]
 8003af8:	4770      	bx	lr
 8003afa:	bf00      	nop
 8003afc:	2000129c 	.word	0x2000129c
 8003b00:	2000001c 	.word	0x2000001c

08003b04 <HAL_GetTick>:
 8003b04:	4b01      	ldr	r3, [pc, #4]	; (8003b0c <HAL_GetTick+0x8>)
 8003b06:	6818      	ldr	r0, [r3, #0]
 8003b08:	4770      	bx	lr
 8003b0a:	bf00      	nop
 8003b0c:	2000129c 	.word	0x2000129c

08003b10 <HAL_NVIC_SetPriorityGrouping>:
 8003b10:	4907      	ldr	r1, [pc, #28]	; (8003b30 <HAL_NVIC_SetPriorityGrouping+0x20>)
 8003b12:	0203      	lsls	r3, r0, #8
 8003b14:	68ca      	ldr	r2, [r1, #12]
 8003b16:	f403 63e0 	and.w	r3, r3, #1792	; 0x700
 8003b1a:	f422 62e0 	bic.w	r2, r2, #1792	; 0x700
 8003b1e:	0412      	lsls	r2, r2, #16
 8003b20:	0c12      	lsrs	r2, r2, #16
 8003b22:	4313      	orrs	r3, r2
 8003b24:	f043 63bf 	orr.w	r3, r3, #100139008	; 0x5f80000
 8003b28:	f443 3300 	orr.w	r3, r3, #131072	; 0x20000
 8003b2c:	60cb      	str	r3, [r1, #12]
 8003b2e:	4770      	bx	lr
 8003b30:	e000ed00 	.word	0xe000ed00

08003b34 <HAL_NVIC_SetPriority>:
 8003b34:	4b16      	ldr	r3, [pc, #88]	; (8003b90 <HAL_NVIC_SetPriority+0x5c>)
 8003b36:	b530      	push	{r4, r5, lr}
 8003b38:	68dc      	ldr	r4, [r3, #12]
 8003b3a:	f3c4 2402 	ubfx	r4, r4, #8, #3
 8003b3e:	f1c4 0307 	rsb	r3, r4, #7
 8003b42:	1d25      	adds	r5, r4, #4
 8003b44:	2b04      	cmp	r3, #4
 8003b46:	bf28      	it	cs
 8003b48:	2304      	movcs	r3, #4
 8003b4a:	2d06      	cmp	r5, #6
 8003b4c:	f04f 35ff 	mov.w	r5, #4294967295
 8003b50:	bf98      	it	ls
 8003b52:	2400      	movls	r4, #0
 8003b54:	fa05 f303 	lsl.w	r3, r5, r3
 8003b58:	bf88      	it	hi
 8003b5a:	3c03      	subhi	r4, #3
 8003b5c:	ea21 0303 	bic.w	r3, r1, r3
 8003b60:	40a3      	lsls	r3, r4
 8003b62:	fa05 f404 	lsl.w	r4, r5, r4
 8003b66:	ea22 0204 	bic.w	r2, r2, r4
 8003b6a:	2800      	cmp	r0, #0
 8003b6c:	ea43 0302 	orr.w	r3, r3, r2
 8003b70:	bfac      	ite	ge
 8003b72:	f100 4060 	addge.w	r0, r0, #3758096384	; 0xe0000000
 8003b76:	4a07      	ldrlt	r2, [pc, #28]	; (8003b94 <HAL_NVIC_SetPriority+0x60>)
 8003b78:	ea4f 1303 	mov.w	r3, r3, lsl #4
 8003b7c:	b2db      	uxtb	r3, r3
 8003b7e:	bfab      	itete	ge
 8003b80:	f500 4061 	addge.w	r0, r0, #57600	; 0xe100
 8003b84:	f000 000f 	andlt.w	r0, r0, #15
 8003b88:	f880 3300 	strbge.w	r3, [r0, #768]	; 0x300
 8003b8c:	5413      	strblt	r3, [r2, r0]
 8003b8e:	bd30      	pop	{r4, r5, pc}
 8003b90:	e000ed00 	.word	0xe000ed00
 8003b94:	e000ed14 	.word	0xe000ed14

08003b98 <HAL_NVIC_EnableIRQ>:
 8003b98:	2800      	cmp	r0, #0
 8003b9a:	db08      	blt.n	8003bae <HAL_NVIC_EnableIRQ+0x16>
 8003b9c:	2301      	movs	r3, #1
 8003b9e:	0942      	lsrs	r2, r0, #5
 8003ba0:	f000 001f 	and.w	r0, r0, #31
 8003ba4:	fa03 f000 	lsl.w	r0, r3, r0
 8003ba8:	4b01      	ldr	r3, [pc, #4]	; (8003bb0 <HAL_NVIC_EnableIRQ+0x18>)
 8003baa:	f843 0022 	str.w	r0, [r3, r2, lsl #2]
 8003bae:	4770      	bx	lr
 8003bb0:	e000e100 	.word	0xe000e100

08003bb4 <HAL_SYSTICK_Config>:
 8003bb4:	3801      	subs	r0, #1
 8003bb6:	f1b0 7f80 	cmp.w	r0, #16777216	; 0x1000000
 8003bba:	d20b      	bcs.n	8003bd4 <HAL_SYSTICK_Config+0x20>
 8003bbc:	f04f 23e0 	mov.w	r3, #3758153728	; 0xe000e000
 8003bc0:	21f0      	movs	r1, #240	; 0xf0
 8003bc2:	4a05      	ldr	r2, [pc, #20]	; (8003bd8 <HAL_SYSTICK_Config+0x24>)
 8003bc4:	6158      	str	r0, [r3, #20]
 8003bc6:	f882 1023 	strb.w	r1, [r2, #35]	; 0x23
 8003bca:	2000      	movs	r0, #0
 8003bcc:	2207      	movs	r2, #7
 8003bce:	6198      	str	r0, [r3, #24]
 8003bd0:	611a      	str	r2, [r3, #16]
 8003bd2:	4770      	bx	lr
 8003bd4:	2001      	movs	r0, #1
 8003bd6:	4770      	bx	lr
 8003bd8:	e000ed00 	.word	0xe000ed00

08003bdc <HAL_DMA_Abort>:
 8003bdc:	f890 3021 	ldrb.w	r3, [r0, #33]	; 0x21
 8003be0:	2b02      	cmp	r3, #2
 8003be2:	d006      	beq.n	8003bf2 <HAL_DMA_Abort+0x16>
 8003be4:	2304      	movs	r3, #4
 8003be6:	6383      	str	r3, [r0, #56]	; 0x38
 8003be8:	2300      	movs	r3, #0
 8003bea:	f880 3020 	strb.w	r3, [r0, #32]
 8003bee:	2001      	movs	r0, #1
 8003bf0:	4770      	bx	lr
 8003bf2:	6803      	ldr	r3, [r0, #0]
 8003bf4:	681a      	ldr	r2, [r3, #0]
 8003bf6:	f022 020e 	bic.w	r2, r2, #14
 8003bfa:	601a      	str	r2, [r3, #0]
 8003bfc:	681a      	ldr	r2, [r3, #0]
 8003bfe:	f022 0201 	bic.w	r2, r2, #1
 8003c02:	601a      	str	r2, [r3, #0]
 8003c04:	2301      	movs	r3, #1
 8003c06:	e9d0 210f 	ldrd	r2, r1, [r0, #60]	; 0x3c
 8003c0a:	408b      	lsls	r3, r1
 8003c0c:	6053      	str	r3, [r2, #4]
 8003c0e:	f44f 7380 	mov.w	r3, #256	; 0x100
 8003c12:	8403      	strh	r3, [r0, #32]
 8003c14:	2000      	movs	r0, #0
 8003c16:	4770      	bx	lr

08003c18 <HAL_DMA_Abort_IT>:
 8003c18:	b508      	push	{r3, lr}
 8003c1a:	f890 3021 	ldrb.w	r3, [r0, #33]	; 0x21
 8003c1e:	2b02      	cmp	r3, #2
 8003c20:	d003      	beq.n	8003c2a <HAL_DMA_Abort_IT+0x12>
 8003c22:	2304      	movs	r3, #4
 8003c24:	6383      	str	r3, [r0, #56]	; 0x38
 8003c26:	2001      	movs	r0, #1
 8003c28:	bd08      	pop	{r3, pc}
 8003c2a:	6803      	ldr	r3, [r0, #0]
 8003c2c:	681a      	ldr	r2, [r3, #0]
 8003c2e:	f022 020e 	bic.w	r2, r2, #14
 8003c32:	601a      	str	r2, [r3, #0]
 8003c34:	681a      	ldr	r2, [r3, #0]
 8003c36:	f022 0201 	bic.w	r2, r2, #1
 8003c3a:	601a      	str	r2, [r3, #0]
 8003c3c:	4a17      	ldr	r2, [pc, #92]	; (8003c9c <HAL_DMA_Abort_IT+0x84>)
 8003c3e:	4293      	cmp	r3, r2
 8003c40:	d01c      	beq.n	8003c7c <HAL_DMA_Abort_IT+0x64>
 8003c42:	3214      	adds	r2, #20
 8003c44:	4293      	cmp	r3, r2
 8003c46:	d01b      	beq.n	8003c80 <HAL_DMA_Abort_IT+0x68>
 8003c48:	3214      	adds	r2, #20
 8003c4a:	4293      	cmp	r3, r2
 8003c4c:	d01a      	beq.n	8003c84 <HAL_DMA_Abort_IT+0x6c>
 8003c4e:	3214      	adds	r2, #20
 8003c50:	4293      	cmp	r3, r2
 8003c52:	d01a      	beq.n	8003c8a <HAL_DMA_Abort_IT+0x72>
 8003c54:	3214      	adds	r2, #20
 8003c56:	4293      	cmp	r3, r2
 8003c58:	d01a      	beq.n	8003c90 <HAL_DMA_Abort_IT+0x78>
 8003c5a:	3214      	adds	r2, #20
 8003c5c:	4293      	cmp	r3, r2
 8003c5e:	bf0c      	ite	eq
 8003c60:	f44f 1380 	moveq.w	r3, #1048576	; 0x100000
 8003c64:	f04f 7380 	movne.w	r3, #16777216	; 0x1000000
 8003c68:	4a0d      	ldr	r2, [pc, #52]	; (8003ca0 <HAL_DMA_Abort_IT+0x88>)
 8003c6a:	6053      	str	r3, [r2, #4]
 8003c6c:	f44f 7380 	mov.w	r3, #256	; 0x100
 8003c70:	8403      	strh	r3, [r0, #32]
 8003c72:	6b43      	ldr	r3, [r0, #52]	; 0x34
 8003c74:	b17b      	cbz	r3, 8003c96 <HAL_DMA_Abort_IT+0x7e>
 8003c76:	4798      	blx	r3
 8003c78:	2000      	movs	r0, #0
 8003c7a:	e7d5      	b.n	8003c28 <HAL_DMA_Abort_IT+0x10>
 8003c7c:	2301      	movs	r3, #1
 8003c7e:	e7f3      	b.n	8003c68 <HAL_DMA_Abort_IT+0x50>
 8003c80:	2310      	movs	r3, #16
 8003c82:	e7f1      	b.n	8003c68 <HAL_DMA_Abort_IT+0x50>
 8003c84:	f44f 7380 	mov.w	r3, #256	; 0x100
 8003c88:	e7ee      	b.n	8003c68 <HAL_DMA_Abort_IT+0x50>
 8003c8a:	f44f 5380 	mov.w	r3, #4096	; 0x1000
 8003c8e:	e7eb      	b.n	8003c68 <HAL_DMA_Abort_IT+0x50>
 8003c90:	f44f 3380 	mov.w	r3, #65536	; 0x10000
 8003c94:	e7e8      	b.n	8003c68 <HAL_DMA_Abort_IT+0x50>
 8003c96:	4618      	mov	r0, r3
 8003c98:	e7c6      	b.n	8003c28 <HAL_DMA_Abort_IT+0x10>
 8003c9a:	bf00      	nop
 8003c9c:	40020008 	.word	0x40020008
 8003ca0:	40020000 	.word	0x40020000

08003ca4 <FLASH_SetErrorCode>:
 8003ca4:	4a11      	ldr	r2, [pc, #68]	; (8003cec <FLASH_SetErrorCode+0x48>)
 8003ca6:	68d3      	ldr	r3, [r2, #12]
 8003ca8:	f013 0310 	ands.w	r3, r3, #16
 8003cac:	d005      	beq.n	8003cba <FLASH_SetErrorCode+0x16>
 8003cae:	4910      	ldr	r1, [pc, #64]	; (8003cf0 <FLASH_SetErrorCode+0x4c>)
 8003cb0:	69cb      	ldr	r3, [r1, #28]
 8003cb2:	f043 0302 	orr.w	r3, r3, #2
 8003cb6:	61cb      	str	r3, [r1, #28]
 8003cb8:	2310      	movs	r3, #16
 8003cba:	68d2      	ldr	r2, [r2, #12]
 8003cbc:	0750      	lsls	r0, r2, #29
 8003cbe:	d506      	bpl.n	8003cce <FLASH_SetErrorCode+0x2a>
 8003cc0:	490b      	ldr	r1, [pc, #44]	; (8003cf0 <FLASH_SetErrorCode+0x4c>)
 8003cc2:	f043 0304 	orr.w	r3, r3, #4
 8003cc6:	69ca      	ldr	r2, [r1, #28]
 8003cc8:	f042 0201 	orr.w	r2, r2, #1
 8003ccc:	61ca      	str	r2, [r1, #28]
 8003cce:	4a07      	ldr	r2, [pc, #28]	; (8003cec <FLASH_SetErrorCode+0x48>)
 8003cd0:	69d1      	ldr	r1, [r2, #28]
 8003cd2:	07c9      	lsls	r1, r1, #31
 8003cd4:	d508      	bpl.n	8003ce8 <FLASH_SetErrorCode+0x44>
 8003cd6:	4806      	ldr	r0, [pc, #24]	; (8003cf0 <FLASH_SetErrorCode+0x4c>)
 8003cd8:	69c1      	ldr	r1, [r0, #28]
 8003cda:	f041 0104 	orr.w	r1, r1, #4
 8003cde:	61c1      	str	r1, [r0, #28]
 8003ce0:	69d1      	ldr	r1, [r2, #28]
 8003ce2:	f021 0101 	bic.w	r1, r1, #1
 8003ce6:	61d1      	str	r1, [r2, #28]
 8003ce8:	60d3      	str	r3, [r2, #12]
 8003cea:	4770      	bx	lr
 8003cec:	40022000 	.word	0x40022000
 8003cf0:	200012a0 	.word	0x200012a0

08003cf4 <HAL_FLASH_Unlock>:
 8003cf4:	4b06      	ldr	r3, [pc, #24]	; (8003d10 <HAL_FLASH_Unlock+0x1c>)
 8003cf6:	6918      	ldr	r0, [r3, #16]
 8003cf8:	f010 0080 	ands.w	r0, r0, #128	; 0x80
 8003cfc:	d007      	beq.n	8003d0e <HAL_FLASH_Unlock+0x1a>
 8003cfe:	4a05      	ldr	r2, [pc, #20]	; (8003d14 <HAL_FLASH_Unlock+0x20>)
 8003d00:	605a      	str	r2, [r3, #4]
 8003d02:	f102 3288 	add.w	r2, r2, #2290649224	; 0x88888888
 8003d06:	605a      	str	r2, [r3, #4]
 8003d08:	6918      	ldr	r0, [r3, #16]
 8003d0a:	f3c0 10c0 	ubfx	r0, r0, #7, #1
 8003d0e:	4770      	bx	lr
 8003d10:	40022000 	.word	0x40022000
 8003d14:	45670123 	.word	0x45670123

08003d18 <HAL_FLASH_Lock>:
 8003d18:	4a03      	ldr	r2, [pc, #12]	; (8003d28 <HAL_FLASH_Lock+0x10>)
 8003d1a:	2000      	movs	r0, #0
 8003d1c:	6913      	ldr	r3, [r2, #16]
 8003d1e:	f043 0380 	orr.w	r3, r3, #128	; 0x80
 8003d22:	6113      	str	r3, [r2, #16]
 8003d24:	4770      	bx	lr
 8003d26:	bf00      	nop
 8003d28:	40022000 	.word	0x40022000

08003d2c <FLASH_WaitForLastOperation>:
 8003d2c:	b570      	push	{r4, r5, r6, lr}
 8003d2e:	4605      	mov	r5, r0
 8003d30:	f7ff fee8 	bl	8003b04 <HAL_GetTick>
 8003d34:	4606      	mov	r6, r0
 8003d36:	4c11      	ldr	r4, [pc, #68]	; (8003d7c <FLASH_WaitForLastOperation+0x50>)
 8003d38:	68e3      	ldr	r3, [r4, #12]
 8003d3a:	07d8      	lsls	r0, r3, #31
 8003d3c:	d412      	bmi.n	8003d64 <FLASH_WaitForLastOperation+0x38>
 8003d3e:	68e3      	ldr	r3, [r4, #12]
 8003d40:	0699      	lsls	r1, r3, #26
 8003d42:	bf44      	itt	mi
 8003d44:	2320      	movmi	r3, #32
 8003d46:	60e3      	strmi	r3, [r4, #12]
 8003d48:	68e3      	ldr	r3, [r4, #12]
 8003d4a:	06da      	lsls	r2, r3, #27
 8003d4c:	d406      	bmi.n	8003d5c <FLASH_WaitForLastOperation+0x30>
 8003d4e:	69e3      	ldr	r3, [r4, #28]
 8003d50:	07db      	lsls	r3, r3, #31
 8003d52:	d403      	bmi.n	8003d5c <FLASH_WaitForLastOperation+0x30>
 8003d54:	68e0      	ldr	r0, [r4, #12]
 8003d56:	f010 0004 	ands.w	r0, r0, #4
 8003d5a:	d007      	beq.n	8003d6c <FLASH_WaitForLastOperation+0x40>
 8003d5c:	f7ff ffa2 	bl	8003ca4 <FLASH_SetErrorCode>
 8003d60:	2001      	movs	r0, #1
 8003d62:	e003      	b.n	8003d6c <FLASH_WaitForLastOperation+0x40>
 8003d64:	1c6b      	adds	r3, r5, #1
 8003d66:	d0e7      	beq.n	8003d38 <FLASH_WaitForLastOperation+0xc>
 8003d68:	b90d      	cbnz	r5, 8003d6e <FLASH_WaitForLastOperation+0x42>
 8003d6a:	2003      	movs	r0, #3
 8003d6c:	bd70      	pop	{r4, r5, r6, pc}
 8003d6e:	f7ff fec9 	bl	8003b04 <HAL_GetTick>
 8003d72:	1b80      	subs	r0, r0, r6
 8003d74:	42a8      	cmp	r0, r5
 8003d76:	d9df      	bls.n	8003d38 <FLASH_WaitForLastOperation+0xc>
 8003d78:	e7f7      	b.n	8003d6a <FLASH_WaitForLastOperation+0x3e>
 8003d7a:	bf00      	nop
 8003d7c:	40022000 	.word	0x40022000

08003d80 <HAL_FLASH_Program>:
 8003d80:	e92d 4ff8 	stmdb	sp!, {r3, r4, r5, r6, r7, r8, r9, sl, fp, lr}
 8003d84:	f8df 9090 	ldr.w	r9, [pc, #144]	; 8003e18 <HAL_FLASH_Program+0x98>
 8003d88:	461e      	mov	r6, r3
 8003d8a:	f899 3018 	ldrb.w	r3, [r9, #24]
 8003d8e:	4604      	mov	r4, r0
 8003d90:	2b01      	cmp	r3, #1
 8003d92:	460f      	mov	r7, r1
 8003d94:	4690      	mov	r8, r2
 8003d96:	d03d      	beq.n	8003e14 <HAL_FLASH_Program+0x94>
 8003d98:	2301      	movs	r3, #1
 8003d9a:	f24c 3050 	movw	r0, #50000	; 0xc350
 8003d9e:	f889 3018 	strb.w	r3, [r9, #24]
 8003da2:	f7ff ffc3 	bl	8003d2c <FLASH_WaitForLastOperation>
 8003da6:	bb80      	cbnz	r0, 8003e0a <HAL_FLASH_Program+0x8a>
 8003da8:	2c01      	cmp	r4, #1
 8003daa:	d003      	beq.n	8003db4 <HAL_FLASH_Program+0x34>
 8003dac:	2c02      	cmp	r4, #2
 8003dae:	bf0c      	ite	eq
 8003db0:	2402      	moveq	r4, #2
 8003db2:	2404      	movne	r4, #4
 8003db4:	2500      	movs	r5, #0
 8003db6:	46ab      	mov	fp, r5
 8003db8:	f8df a060 	ldr.w	sl, [pc, #96]	; 8003e1c <HAL_FLASH_Program+0x9c>
 8003dbc:	0128      	lsls	r0, r5, #4
 8003dbe:	f1c0 0220 	rsb	r2, r0, #32
 8003dc2:	f1a0 0320 	sub.w	r3, r0, #32
 8003dc6:	fa06 f202 	lsl.w	r2, r6, r2
 8003dca:	fa28 f000 	lsr.w	r0, r8, r0
 8003dce:	f8c9 b01c 	str.w	fp, [r9, #28]
 8003dd2:	4310      	orrs	r0, r2
 8003dd4:	fa26 f303 	lsr.w	r3, r6, r3
 8003dd8:	4318      	orrs	r0, r3
 8003dda:	f8da 3010 	ldr.w	r3, [sl, #16]
 8003dde:	b280      	uxth	r0, r0
 8003de0:	f043 0301 	orr.w	r3, r3, #1
 8003de4:	f8ca 3010 	str.w	r3, [sl, #16]
 8003de8:	f827 0015 	strh.w	r0, [r7, r5, lsl #1]
 8003dec:	f24c 3050 	movw	r0, #50000	; 0xc350
 8003df0:	f7ff ff9c 	bl	8003d2c <FLASH_WaitForLastOperation>
 8003df4:	f8da 3010 	ldr.w	r3, [sl, #16]
 8003df8:	f023 0301 	bic.w	r3, r3, #1
 8003dfc:	f8ca 3010 	str.w	r3, [sl, #16]
 8003e00:	b918      	cbnz	r0, 8003e0a <HAL_FLASH_Program+0x8a>
 8003e02:	3501      	adds	r5, #1
 8003e04:	b2eb      	uxtb	r3, r5
 8003e06:	429c      	cmp	r4, r3
 8003e08:	d8d8      	bhi.n	8003dbc <HAL_FLASH_Program+0x3c>
 8003e0a:	2300      	movs	r3, #0
 8003e0c:	f889 3018 	strb.w	r3, [r9, #24]
 8003e10:	e8bd 8ff8 	ldmia.w	sp!, {r3, r4, r5, r6, r7, r8, r9, sl, fp, pc}
 8003e14:	2002      	movs	r0, #2
 8003e16:	e7fb      	b.n	8003e10 <HAL_FLASH_Program+0x90>
 8003e18:	200012a0 	.word	0x200012a0
 8003e1c:	40022000 	.word	0x40022000

08003e20 <FLASH_PageErase>:
 8003e20:	2200      	movs	r2, #0
 8003e22:	4b06      	ldr	r3, [pc, #24]	; (8003e3c <FLASH_PageErase+0x1c>)
 8003e24:	61da      	str	r2, [r3, #28]
 8003e26:	4b06      	ldr	r3, [pc, #24]	; (8003e40 <FLASH_PageErase+0x20>)
 8003e28:	691a      	ldr	r2, [r3, #16]
 8003e2a:	f042 0202 	orr.w	r2, r2, #2
 8003e2e:	611a      	str	r2, [r3, #16]
 8003e30:	6158      	str	r0, [r3, #20]
 8003e32:	691a      	ldr	r2, [r3, #16]
 8003e34:	f042 0240 	orr.w	r2, r2, #64	; 0x40
 8003e38:	611a      	str	r2, [r3, #16]
 8003e3a:	4770      	bx	lr
 8003e3c:	200012a0 	.word	0x200012a0
 8003e40:	40022000 	.word	0x40022000

08003e44 <HAL_FLASHEx_Erase>:
 8003e44:	e92d 41f0 	stmdb	sp!, {r4, r5, r6, r7, r8, lr}
 8003e48:	4f26      	ldr	r7, [pc, #152]	; (8003ee4 <HAL_FLASHEx_Erase+0xa0>)
 8003e4a:	4605      	mov	r5, r0
 8003e4c:	7e3b      	ldrb	r3, [r7, #24]
 8003e4e:	4688      	mov	r8, r1
 8003e50:	2b01      	cmp	r3, #1
 8003e52:	d044      	beq.n	8003ede <HAL_FLASHEx_Erase+0x9a>
 8003e54:	2401      	movs	r4, #1
 8003e56:	763c      	strb	r4, [r7, #24]
 8003e58:	6803      	ldr	r3, [r0, #0]
 8003e5a:	f24c 3050 	movw	r0, #50000	; 0xc350
 8003e5e:	2b02      	cmp	r3, #2
 8003e60:	d11a      	bne.n	8003e98 <HAL_FLASHEx_Erase+0x54>
 8003e62:	f7ff ff63 	bl	8003d2c <FLASH_WaitForLastOperation>
 8003e66:	b120      	cbz	r0, 8003e72 <HAL_FLASHEx_Erase+0x2e>
 8003e68:	2001      	movs	r0, #1
 8003e6a:	2300      	movs	r3, #0
 8003e6c:	763b      	strb	r3, [r7, #24]
 8003e6e:	e8bd 81f0 	ldmia.w	sp!, {r4, r5, r6, r7, r8, pc}
 8003e72:	4c1d      	ldr	r4, [pc, #116]	; (8003ee8 <HAL_FLASHEx_Erase+0xa4>)
 8003e74:	61f8      	str	r0, [r7, #28]
 8003e76:	6923      	ldr	r3, [r4, #16]
 8003e78:	f24c 3050 	movw	r0, #50000	; 0xc350
 8003e7c:	f043 0304 	orr.w	r3, r3, #4
 8003e80:	6123      	str	r3, [r4, #16]
 8003e82:	6923      	ldr	r3, [r4, #16]
 8003e84:	f043 0340 	orr.w	r3, r3, #64	; 0x40
 8003e88:	6123      	str	r3, [r4, #16]
 8003e8a:	f7ff ff4f 	bl	8003d2c <FLASH_WaitForLastOperation>
 8003e8e:	6923      	ldr	r3, [r4, #16]
 8003e90:	f023 0304 	bic.w	r3, r3, #4
 8003e94:	6123      	str	r3, [r4, #16]
 8003e96:	e7e8      	b.n	8003e6a <HAL_FLASHEx_Erase+0x26>
 8003e98:	f7ff ff48 	bl	8003d2c <FLASH_WaitForLastOperation>
 8003e9c:	2800      	cmp	r0, #0
 8003e9e:	d1e3      	bne.n	8003e68 <HAL_FLASHEx_Erase+0x24>
 8003ea0:	f04f 33ff 	mov.w	r3, #4294967295
 8003ea4:	f8c8 3000 	str.w	r3, [r8]
 8003ea8:	4620      	mov	r0, r4
 8003eaa:	68ae      	ldr	r6, [r5, #8]
 8003eac:	4c0e      	ldr	r4, [pc, #56]	; (8003ee8 <HAL_FLASHEx_Erase+0xa4>)
 8003eae:	e9d5 3202 	ldrd	r3, r2, [r5, #8]
 8003eb2:	eb03 2382 	add.w	r3, r3, r2, lsl #10
 8003eb6:	42b3      	cmp	r3, r6
 8003eb8:	d9d7      	bls.n	8003e6a <HAL_FLASHEx_Erase+0x26>
 8003eba:	4630      	mov	r0, r6
 8003ebc:	f7ff ffb0 	bl	8003e20 <FLASH_PageErase>
 8003ec0:	f24c 3050 	movw	r0, #50000	; 0xc350
 8003ec4:	f7ff ff32 	bl	8003d2c <FLASH_WaitForLastOperation>
 8003ec8:	6923      	ldr	r3, [r4, #16]
 8003eca:	f023 0302 	bic.w	r3, r3, #2
 8003ece:	6123      	str	r3, [r4, #16]
 8003ed0:	b110      	cbz	r0, 8003ed8 <HAL_FLASHEx_Erase+0x94>
 8003ed2:	f8c8 6000 	str.w	r6, [r8]
 8003ed6:	e7c8      	b.n	8003e6a <HAL_FLASHEx_Erase+0x26>
 8003ed8:	f506 6680 	add.w	r6, r6, #1024	; 0x400
 8003edc:	e7e7      	b.n	8003eae <HAL_FLASHEx_Erase+0x6a>
 8003ede:	2002      	movs	r0, #2
 8003ee0:	e7c5      	b.n	8003e6e <HAL_FLASHEx_Erase+0x2a>
 8003ee2:	bf00      	nop
 8003ee4:	200012a0 	.word	0x200012a0
 8003ee8:	40022000 	.word	0x40022000

08003eec <HAL_GPIO_Init>:
 8003eec:	e92d 4ff7 	stmdb	sp!, {r0, r1, r2, r4, r5, r6, r7, r8, r9, sl, fp, lr}
 8003ef0:	2200      	movs	r2, #0
 8003ef2:	4616      	mov	r6, r2
 8003ef4:	4f64      	ldr	r7, [pc, #400]	; (8004088 <HAL_GPIO_Init+0x19c>)
 8003ef6:	4b65      	ldr	r3, [pc, #404]	; (800408c <HAL_GPIO_Init+0x1a0>)
 8003ef8:	f8df c194 	ldr.w	ip, [pc, #404]	; 8004090 <HAL_GPIO_Init+0x1a4>
 8003efc:	f8df e194 	ldr.w	lr, [pc, #404]	; 8004094 <HAL_GPIO_Init+0x1a8>
 8003f00:	680d      	ldr	r5, [r1, #0]
 8003f02:	fa35 f406 	lsrs.w	r4, r5, r6
 8003f06:	d102      	bne.n	8003f0e <HAL_GPIO_Init+0x22>
 8003f08:	b003      	add	sp, #12
 8003f0a:	e8bd 8ff0 	ldmia.w	sp!, {r4, r5, r6, r7, r8, r9, sl, fp, pc}
 8003f0e:	f04f 0801 	mov.w	r8, #1
 8003f12:	fa08 f806 	lsl.w	r8, r8, r6
 8003f16:	ea05 0408 	and.w	r4, r5, r8
 8003f1a:	ea38 0505 	bics.w	r5, r8, r5
 8003f1e:	d17b      	bne.n	8004018 <HAL_GPIO_Init+0x12c>
 8003f20:	684d      	ldr	r5, [r1, #4]
 8003f22:	2d03      	cmp	r5, #3
 8003f24:	d807      	bhi.n	8003f36 <HAL_GPIO_Init+0x4a>
 8003f26:	3d01      	subs	r5, #1
 8003f28:	2d02      	cmp	r5, #2
 8003f2a:	f200 8088 	bhi.w	800403e <HAL_GPIO_Init+0x152>
 8003f2e:	e8df f005 	tbb	[pc, r5]
 8003f32:	9b96      	.short	0x9b96
 8003f34:	a1          	.byte	0xa1
 8003f35:	00          	.byte	0x00
 8003f36:	2d12      	cmp	r5, #18
 8003f38:	f000 8099 	beq.w	800406e <HAL_GPIO_Init+0x182>
 8003f3c:	d86e      	bhi.n	800401c <HAL_GPIO_Init+0x130>
 8003f3e:	2d11      	cmp	r5, #17
 8003f40:	f000 808f 	beq.w	8004062 <HAL_GPIO_Init+0x176>
 8003f44:	2cff      	cmp	r4, #255	; 0xff
 8003f46:	bf98      	it	ls
 8003f48:	4682      	movls	sl, r0
 8003f4a:	f04f 090f 	mov.w	r9, #15
 8003f4e:	bf88      	it	hi
 8003f50:	f100 0a04 	addhi.w	sl, r0, #4
 8003f54:	ea4f 0586 	mov.w	r5, r6, lsl #2
 8003f58:	f8da 8000 	ldr.w	r8, [sl]
 8003f5c:	bf88      	it	hi
 8003f5e:	3d20      	subhi	r5, #32
 8003f60:	fa09 fb05 	lsl.w	fp, r9, r5
 8003f64:	ea28 080b 	bic.w	r8, r8, fp
 8003f68:	fa02 f505 	lsl.w	r5, r2, r5
 8003f6c:	ea48 0505 	orr.w	r5, r8, r5
 8003f70:	f8ca 5000 	str.w	r5, [sl]
 8003f74:	f8d1 a004 	ldr.w	sl, [r1, #4]
 8003f78:	f01a 5f80 	tst.w	sl, #268435456	; 0x10000000
 8003f7c:	d04c      	beq.n	8004018 <HAL_GPIO_Init+0x12c>
 8003f7e:	69bd      	ldr	r5, [r7, #24]
 8003f80:	f026 0803 	bic.w	r8, r6, #3
 8003f84:	f045 0501 	orr.w	r5, r5, #1
 8003f88:	61bd      	str	r5, [r7, #24]
 8003f8a:	69bd      	ldr	r5, [r7, #24]
 8003f8c:	f108 4880 	add.w	r8, r8, #1073741824	; 0x40000000
 8003f90:	f005 0501 	and.w	r5, r5, #1
 8003f94:	9501      	str	r5, [sp, #4]
 8003f96:	f508 3880 	add.w	r8, r8, #65536	; 0x10000
 8003f9a:	f006 0b03 	and.w	fp, r6, #3
 8003f9e:	9d01      	ldr	r5, [sp, #4]
 8003fa0:	ea4f 0b8b 	mov.w	fp, fp, lsl #2
 8003fa4:	f8d8 5008 	ldr.w	r5, [r8, #8]
 8003fa8:	fa09 f90b 	lsl.w	r9, r9, fp
 8003fac:	ea25 0909 	bic.w	r9, r5, r9
 8003fb0:	4d39      	ldr	r5, [pc, #228]	; (8004098 <HAL_GPIO_Init+0x1ac>)
 8003fb2:	42a8      	cmp	r0, r5
 8003fb4:	d062      	beq.n	800407c <HAL_GPIO_Init+0x190>
 8003fb6:	f505 6580 	add.w	r5, r5, #1024	; 0x400
 8003fba:	42a8      	cmp	r0, r5
 8003fbc:	d060      	beq.n	8004080 <HAL_GPIO_Init+0x194>
 8003fbe:	f505 6580 	add.w	r5, r5, #1024	; 0x400
 8003fc2:	42a8      	cmp	r0, r5
 8003fc4:	d05e      	beq.n	8004084 <HAL_GPIO_Init+0x198>
 8003fc6:	f505 6580 	add.w	r5, r5, #1024	; 0x400
 8003fca:	42a8      	cmp	r0, r5
 8003fcc:	bf0c      	ite	eq
 8003fce:	2503      	moveq	r5, #3
 8003fd0:	2504      	movne	r5, #4
 8003fd2:	fa05 f50b 	lsl.w	r5, r5, fp
 8003fd6:	ea45 0509 	orr.w	r5, r5, r9
 8003fda:	f8c8 5008 	str.w	r5, [r8, #8]
 8003fde:	681d      	ldr	r5, [r3, #0]
 8003fe0:	f41a 3f80 	tst.w	sl, #65536	; 0x10000
 8003fe4:	bf14      	ite	ne
 8003fe6:	4325      	orrne	r5, r4
 8003fe8:	43a5      	biceq	r5, r4
 8003fea:	601d      	str	r5, [r3, #0]
 8003fec:	685d      	ldr	r5, [r3, #4]
 8003fee:	f41a 3f00 	tst.w	sl, #131072	; 0x20000
 8003ff2:	bf14      	ite	ne
 8003ff4:	4325      	orrne	r5, r4
 8003ff6:	43a5      	biceq	r5, r4
 8003ff8:	605d      	str	r5, [r3, #4]
 8003ffa:	689d      	ldr	r5, [r3, #8]
 8003ffc:	f41a 1f80 	tst.w	sl, #1048576	; 0x100000
 8004000:	bf14      	ite	ne
 8004002:	4325      	orrne	r5, r4
 8004004:	43a5      	biceq	r5, r4
 8004006:	609d      	str	r5, [r3, #8]
 8004008:	68dd      	ldr	r5, [r3, #12]
 800400a:	f41a 1f00 	tst.w	sl, #2097152	; 0x200000
 800400e:	bf14      	ite	ne
 8004010:	432c      	orrne	r4, r5
 8004012:	ea25 0404 	biceq.w	r4, r5, r4
 8004016:	60dc      	str	r4, [r3, #12]
 8004018:	3601      	adds	r6, #1
 800401a:	e771      	b.n	8003f00 <HAL_GPIO_Init+0x14>
 800401c:	f8df 907c 	ldr.w	r9, [pc, #124]	; 800409c <HAL_GPIO_Init+0x1b0>
 8004020:	454d      	cmp	r5, r9
 8004022:	d00c      	beq.n	800403e <HAL_GPIO_Init+0x152>
 8004024:	d817      	bhi.n	8004056 <HAL_GPIO_Init+0x16a>
 8004026:	f5a9 1980 	sub.w	r9, r9, #1048576	; 0x100000
 800402a:	454d      	cmp	r5, r9
 800402c:	d007      	beq.n	800403e <HAL_GPIO_Init+0x152>
 800402e:	f509 2970 	add.w	r9, r9, #983040	; 0xf0000
 8004032:	454d      	cmp	r5, r9
 8004034:	d003      	beq.n	800403e <HAL_GPIO_Init+0x152>
 8004036:	f5a9 1980 	sub.w	r9, r9, #1048576	; 0x100000
 800403a:	454d      	cmp	r5, r9
 800403c:	d182      	bne.n	8003f44 <HAL_GPIO_Init+0x58>
 800403e:	688a      	ldr	r2, [r1, #8]
 8004040:	b1d2      	cbz	r2, 8004078 <HAL_GPIO_Init+0x18c>
 8004042:	2a01      	cmp	r2, #1
 8004044:	bf08      	it	eq
 8004046:	f8c0 8010 	streq.w	r8, [r0, #16]
 800404a:	f04f 0208 	mov.w	r2, #8
 800404e:	bf18      	it	ne
 8004050:	f8c0 8014 	strne.w	r8, [r0, #20]
 8004054:	e776      	b.n	8003f44 <HAL_GPIO_Init+0x58>
 8004056:	4565      	cmp	r5, ip
 8004058:	d0f1      	beq.n	800403e <HAL_GPIO_Init+0x152>
 800405a:	4575      	cmp	r5, lr
 800405c:	e7ee      	b.n	800403c <HAL_GPIO_Init+0x150>
 800405e:	68ca      	ldr	r2, [r1, #12]
 8004060:	e770      	b.n	8003f44 <HAL_GPIO_Init+0x58>
 8004062:	68ca      	ldr	r2, [r1, #12]
 8004064:	3204      	adds	r2, #4
 8004066:	e76d      	b.n	8003f44 <HAL_GPIO_Init+0x58>
 8004068:	68ca      	ldr	r2, [r1, #12]
 800406a:	3208      	adds	r2, #8
 800406c:	e76a      	b.n	8003f44 <HAL_GPIO_Init+0x58>
 800406e:	68ca      	ldr	r2, [r1, #12]
 8004070:	320c      	adds	r2, #12
 8004072:	e767      	b.n	8003f44 <HAL_GPIO_Init+0x58>
 8004074:	2200      	movs	r2, #0
 8004076:	e765      	b.n	8003f44 <HAL_GPIO_Init+0x58>
 8004078:	2204      	movs	r2, #4
 800407a:	e763      	b.n	8003f44 <HAL_GPIO_Init+0x58>
 800407c:	2500      	movs	r5, #0
 800407e:	e7a8      	b.n	8003fd2 <HAL_GPIO_Init+0xe6>
 8004080:	2501      	movs	r5, #1
 8004082:	e7a6      	b.n	8003fd2 <HAL_GPIO_Init+0xe6>
 8004084:	2502      	movs	r5, #2
 8004086:	e7a4      	b.n	8003fd2 <HAL_GPIO_Init+0xe6>
 8004088:	40021000 	.word	0x40021000
 800408c:	40010400 	.word	0x40010400
 8004090:	10310000 	.word	0x10310000
 8004094:	10320000 	.word	0x10320000
 8004098:	40010800 	.word	0x40010800
 800409c:	10220000 	.word	0x10220000

080040a0 <HAL_GPIO_ReadPin>:
 80040a0:	6883      	ldr	r3, [r0, #8]
 80040a2:	4219      	tst	r1, r3
 80040a4:	bf14      	ite	ne
 80040a6:	2001      	movne	r0, #1
 80040a8:	2000      	moveq	r0, #0
 80040aa:	4770      	bx	lr

080040ac <HAL_GPIO_WritePin>:
 80040ac:	b10a      	cbz	r2, 80040b2 <HAL_GPIO_WritePin+0x6>
 80040ae:	6101      	str	r1, [r0, #16]
 80040b0:	4770      	bx	lr
 80040b2:	0409      	lsls	r1, r1, #16
 80040b4:	e7fb      	b.n	80040ae <HAL_GPIO_WritePin+0x2>

080040b6 <HAL_GPIO_TogglePin>:
 80040b6:	68c3      	ldr	r3, [r0, #12]
 80040b8:	ea01 0203 	and.w	r2, r1, r3
 80040bc:	ea21 0103 	bic.w	r1, r1, r3
 80040c0:	ea41 4102 	orr.w	r1, r1, r2, lsl #16
 80040c4:	6101      	str	r1, [r0, #16]
 80040c6:	4770      	bx	lr

080040c8 <HAL_RCC_OscConfig>:
 80040c8:	e92d 41f3 	stmdb	sp!, {r0, r1, r4, r5, r6, r7, r8, lr}
 80040cc:	4605      	mov	r5, r0
 80040ce:	b338      	cbz	r0, 8004120 <HAL_RCC_OscConfig+0x58>
 80040d0:	6803      	ldr	r3, [r0, #0]
 80040d2:	07db      	lsls	r3, r3, #31
 80040d4:	d410      	bmi.n	80040f8 <HAL_RCC_OscConfig+0x30>
 80040d6:	682b      	ldr	r3, [r5, #0]
 80040d8:	079f      	lsls	r7, r3, #30
 80040da:	d45e      	bmi.n	800419a <HAL_RCC_OscConfig+0xd2>
 80040dc:	682b      	ldr	r3, [r5, #0]
 80040de:	0719      	lsls	r1, r3, #28
 80040e0:	f100 8095 	bmi.w	800420e <HAL_RCC_OscConfig+0x146>
 80040e4:	682b      	ldr	r3, [r5, #0]
 80040e6:	075a      	lsls	r2, r3, #29
 80040e8:	f100 80c1 	bmi.w	800426e <HAL_RCC_OscConfig+0x1a6>
 80040ec:	69e8      	ldr	r0, [r5, #28]
 80040ee:	2800      	cmp	r0, #0
 80040f0:	f040 812c 	bne.w	800434c <HAL_RCC_OscConfig+0x284>
 80040f4:	2000      	movs	r0, #0
 80040f6:	e029      	b.n	800414c <HAL_RCC_OscConfig+0x84>
 80040f8:	4c90      	ldr	r4, [pc, #576]	; (800433c <HAL_RCC_OscConfig+0x274>)
 80040fa:	6863      	ldr	r3, [r4, #4]
 80040fc:	f003 030c 	and.w	r3, r3, #12
 8004100:	2b04      	cmp	r3, #4
 8004102:	d007      	beq.n	8004114 <HAL_RCC_OscConfig+0x4c>
 8004104:	6863      	ldr	r3, [r4, #4]
 8004106:	f003 030c 	and.w	r3, r3, #12
 800410a:	2b08      	cmp	r3, #8
 800410c:	d10a      	bne.n	8004124 <HAL_RCC_OscConfig+0x5c>
 800410e:	6863      	ldr	r3, [r4, #4]
 8004110:	03de      	lsls	r6, r3, #15
 8004112:	d507      	bpl.n	8004124 <HAL_RCC_OscConfig+0x5c>
 8004114:	6823      	ldr	r3, [r4, #0]
 8004116:	039c      	lsls	r4, r3, #14
 8004118:	d5dd      	bpl.n	80040d6 <HAL_RCC_OscConfig+0xe>
 800411a:	686b      	ldr	r3, [r5, #4]
 800411c:	2b00      	cmp	r3, #0
 800411e:	d1da      	bne.n	80040d6 <HAL_RCC_OscConfig+0xe>
 8004120:	2001      	movs	r0, #1
 8004122:	e013      	b.n	800414c <HAL_RCC_OscConfig+0x84>
 8004124:	686b      	ldr	r3, [r5, #4]
 8004126:	f5b3 3f80 	cmp.w	r3, #65536	; 0x10000
 800412a:	d112      	bne.n	8004152 <HAL_RCC_OscConfig+0x8a>
 800412c:	6823      	ldr	r3, [r4, #0]
 800412e:	f443 3380 	orr.w	r3, r3, #65536	; 0x10000
 8004132:	6023      	str	r3, [r4, #0]
 8004134:	f7ff fce6 	bl	8003b04 <HAL_GetTick>
 8004138:	4606      	mov	r6, r0
 800413a:	6823      	ldr	r3, [r4, #0]
 800413c:	0398      	lsls	r0, r3, #14
 800413e:	d4ca      	bmi.n	80040d6 <HAL_RCC_OscConfig+0xe>
 8004140:	f7ff fce0 	bl	8003b04 <HAL_GetTick>
 8004144:	1b80      	subs	r0, r0, r6
 8004146:	2864      	cmp	r0, #100	; 0x64
 8004148:	d9f7      	bls.n	800413a <HAL_RCC_OscConfig+0x72>
 800414a:	2003      	movs	r0, #3
 800414c:	b002      	add	sp, #8
 800414e:	e8bd 81f0 	ldmia.w	sp!, {r4, r5, r6, r7, r8, pc}
 8004152:	b99b      	cbnz	r3, 800417c <HAL_RCC_OscConfig+0xb4>
 8004154:	6823      	ldr	r3, [r4, #0]
 8004156:	f423 3380 	bic.w	r3, r3, #65536	; 0x10000
 800415a:	6023      	str	r3, [r4, #0]
 800415c:	6823      	ldr	r3, [r4, #0]
 800415e:	f423 2380 	bic.w	r3, r3, #262144	; 0x40000
 8004162:	6023      	str	r3, [r4, #0]
 8004164:	f7ff fcce 	bl	8003b04 <HAL_GetTick>
 8004168:	4606      	mov	r6, r0
 800416a:	6823      	ldr	r3, [r4, #0]
 800416c:	0399      	lsls	r1, r3, #14
 800416e:	d5b2      	bpl.n	80040d6 <HAL_RCC_OscConfig+0xe>
 8004170:	f7ff fcc8 	bl	8003b04 <HAL_GetTick>
 8004174:	1b80      	subs	r0, r0, r6
 8004176:	2864      	cmp	r0, #100	; 0x64
 8004178:	d9f7      	bls.n	800416a <HAL_RCC_OscConfig+0xa2>
 800417a:	e7e6      	b.n	800414a <HAL_RCC_OscConfig+0x82>
 800417c:	f5b3 2fa0 	cmp.w	r3, #327680	; 0x50000
 8004180:	6823      	ldr	r3, [r4, #0]
 8004182:	d103      	bne.n	800418c <HAL_RCC_OscConfig+0xc4>
 8004184:	f443 2380 	orr.w	r3, r3, #262144	; 0x40000
 8004188:	6023      	str	r3, [r4, #0]
 800418a:	e7cf      	b.n	800412c <HAL_RCC_OscConfig+0x64>
 800418c:	f423 3380 	bic.w	r3, r3, #65536	; 0x10000
 8004190:	6023      	str	r3, [r4, #0]
 8004192:	6823      	ldr	r3, [r4, #0]
 8004194:	f423 2380 	bic.w	r3, r3, #262144	; 0x40000
 8004198:	e7cb      	b.n	8004132 <HAL_RCC_OscConfig+0x6a>
 800419a:	4c68      	ldr	r4, [pc, #416]	; (800433c <HAL_RCC_OscConfig+0x274>)
 800419c:	6863      	ldr	r3, [r4, #4]
 800419e:	f013 0f0c 	tst.w	r3, #12
 80041a2:	d007      	beq.n	80041b4 <HAL_RCC_OscConfig+0xec>
 80041a4:	6863      	ldr	r3, [r4, #4]
 80041a6:	f003 030c 	and.w	r3, r3, #12
 80041aa:	2b08      	cmp	r3, #8
 80041ac:	d110      	bne.n	80041d0 <HAL_RCC_OscConfig+0x108>
 80041ae:	6863      	ldr	r3, [r4, #4]
 80041b0:	03da      	lsls	r2, r3, #15
 80041b2:	d40d      	bmi.n	80041d0 <HAL_RCC_OscConfig+0x108>
 80041b4:	6823      	ldr	r3, [r4, #0]
 80041b6:	079b      	lsls	r3, r3, #30
 80041b8:	d502      	bpl.n	80041c0 <HAL_RCC_OscConfig+0xf8>
 80041ba:	692b      	ldr	r3, [r5, #16]
 80041bc:	2b01      	cmp	r3, #1
 80041be:	d1af      	bne.n	8004120 <HAL_RCC_OscConfig+0x58>
 80041c0:	6823      	ldr	r3, [r4, #0]
 80041c2:	696a      	ldr	r2, [r5, #20]
 80041c4:	f023 03f8 	bic.w	r3, r3, #248	; 0xf8
 80041c8:	ea43 03c2 	orr.w	r3, r3, r2, lsl #3
 80041cc:	6023      	str	r3, [r4, #0]
 80041ce:	e785      	b.n	80040dc <HAL_RCC_OscConfig+0x14>
 80041d0:	692a      	ldr	r2, [r5, #16]
 80041d2:	4b5b      	ldr	r3, [pc, #364]	; (8004340 <HAL_RCC_OscConfig+0x278>)
 80041d4:	b16a      	cbz	r2, 80041f2 <HAL_RCC_OscConfig+0x12a>
 80041d6:	2201      	movs	r2, #1
 80041d8:	601a      	str	r2, [r3, #0]
 80041da:	f7ff fc93 	bl	8003b04 <HAL_GetTick>
 80041de:	4606      	mov	r6, r0
 80041e0:	6823      	ldr	r3, [r4, #0]
 80041e2:	079f      	lsls	r7, r3, #30
 80041e4:	d4ec      	bmi.n	80041c0 <HAL_RCC_OscConfig+0xf8>
 80041e6:	f7ff fc8d 	bl	8003b04 <HAL_GetTick>
 80041ea:	1b80      	subs	r0, r0, r6
 80041ec:	2802      	cmp	r0, #2
 80041ee:	d9f7      	bls.n	80041e0 <HAL_RCC_OscConfig+0x118>
 80041f0:	e7ab      	b.n	800414a <HAL_RCC_OscConfig+0x82>
 80041f2:	601a      	str	r2, [r3, #0]
 80041f4:	f7ff fc86 	bl	8003b04 <HAL_GetTick>
 80041f8:	4606      	mov	r6, r0
 80041fa:	6823      	ldr	r3, [r4, #0]
 80041fc:	0798      	lsls	r0, r3, #30
 80041fe:	f57f af6d 	bpl.w	80040dc <HAL_RCC_OscConfig+0x14>
 8004202:	f7ff fc7f 	bl	8003b04 <HAL_GetTick>
 8004206:	1b80      	subs	r0, r0, r6
 8004208:	2802      	cmp	r0, #2
 800420a:	d9f6      	bls.n	80041fa <HAL_RCC_OscConfig+0x132>
 800420c:	e79d      	b.n	800414a <HAL_RCC_OscConfig+0x82>
 800420e:	69aa      	ldr	r2, [r5, #24]
 8004210:	4e4a      	ldr	r6, [pc, #296]	; (800433c <HAL_RCC_OscConfig+0x274>)
 8004212:	4b4b      	ldr	r3, [pc, #300]	; (8004340 <HAL_RCC_OscConfig+0x278>)
 8004214:	b1e2      	cbz	r2, 8004250 <HAL_RCC_OscConfig+0x188>
 8004216:	2201      	movs	r2, #1
 8004218:	f8c3 2480 	str.w	r2, [r3, #1152]	; 0x480
 800421c:	f7ff fc72 	bl	8003b04 <HAL_GetTick>
 8004220:	4604      	mov	r4, r0
 8004222:	6a73      	ldr	r3, [r6, #36]	; 0x24
 8004224:	079b      	lsls	r3, r3, #30
 8004226:	d50d      	bpl.n	8004244 <HAL_RCC_OscConfig+0x17c>
 8004228:	f44f 52fa 	mov.w	r2, #8000	; 0x1f40
 800422c:	4b45      	ldr	r3, [pc, #276]	; (8004344 <HAL_RCC_OscConfig+0x27c>)
 800422e:	681b      	ldr	r3, [r3, #0]
 8004230:	fbb3 f3f2 	udiv	r3, r3, r2
 8004234:	9301      	str	r3, [sp, #4]
 8004236:	bf00      	nop
 8004238:	9b01      	ldr	r3, [sp, #4]
 800423a:	1e5a      	subs	r2, r3, #1
 800423c:	9201      	str	r2, [sp, #4]
 800423e:	2b00      	cmp	r3, #0
 8004240:	d1f9      	bne.n	8004236 <HAL_RCC_OscConfig+0x16e>
 8004242:	e74f      	b.n	80040e4 <HAL_RCC_OscConfig+0x1c>
 8004244:	f7ff fc5e 	bl	8003b04 <HAL_GetTick>
 8004248:	1b00      	subs	r0, r0, r4
 800424a:	2802      	cmp	r0, #2
 800424c:	d9e9      	bls.n	8004222 <HAL_RCC_OscConfig+0x15a>
 800424e:	e77c      	b.n	800414a <HAL_RCC_OscConfig+0x82>
 8004250:	f8c3 2480 	str.w	r2, [r3, #1152]	; 0x480
 8004254:	f7ff fc56 	bl	8003b04 <HAL_GetTick>
 8004258:	4604      	mov	r4, r0
 800425a:	6a73      	ldr	r3, [r6, #36]	; 0x24
 800425c:	079f      	lsls	r7, r3, #30
 800425e:	f57f af41 	bpl.w	80040e4 <HAL_RCC_OscConfig+0x1c>
 8004262:	f7ff fc4f 	bl	8003b04 <HAL_GetTick>
 8004266:	1b00      	subs	r0, r0, r4
 8004268:	2802      	cmp	r0, #2
 800426a:	d9f6      	bls.n	800425a <HAL_RCC_OscConfig+0x192>
 800426c:	e76d      	b.n	800414a <HAL_RCC_OscConfig+0x82>
 800426e:	4c33      	ldr	r4, [pc, #204]	; (800433c <HAL_RCC_OscConfig+0x274>)
 8004270:	69e3      	ldr	r3, [r4, #28]
 8004272:	00d8      	lsls	r0, r3, #3
 8004274:	d424      	bmi.n	80042c0 <HAL_RCC_OscConfig+0x1f8>
 8004276:	2701      	movs	r7, #1
 8004278:	69e3      	ldr	r3, [r4, #28]
 800427a:	f043 5380 	orr.w	r3, r3, #268435456	; 0x10000000
 800427e:	61e3      	str	r3, [r4, #28]
 8004280:	69e3      	ldr	r3, [r4, #28]
 8004282:	f003 5380 	and.w	r3, r3, #268435456	; 0x10000000
 8004286:	9300      	str	r3, [sp, #0]
 8004288:	9b00      	ldr	r3, [sp, #0]
 800428a:	4e2f      	ldr	r6, [pc, #188]	; (8004348 <HAL_RCC_OscConfig+0x280>)
 800428c:	6833      	ldr	r3, [r6, #0]
 800428e:	05d9      	lsls	r1, r3, #23
 8004290:	d518      	bpl.n	80042c4 <HAL_RCC_OscConfig+0x1fc>
 8004292:	68eb      	ldr	r3, [r5, #12]
 8004294:	2b01      	cmp	r3, #1
 8004296:	d126      	bne.n	80042e6 <HAL_RCC_OscConfig+0x21e>
 8004298:	6a23      	ldr	r3, [r4, #32]
 800429a:	f043 0301 	orr.w	r3, r3, #1
 800429e:	6223      	str	r3, [r4, #32]
 80042a0:	f7ff fc30 	bl	8003b04 <HAL_GetTick>
 80042a4:	f241 3888 	movw	r8, #5000	; 0x1388
 80042a8:	4606      	mov	r6, r0
 80042aa:	6a23      	ldr	r3, [r4, #32]
 80042ac:	079b      	lsls	r3, r3, #30
 80042ae:	d53f      	bpl.n	8004330 <HAL_RCC_OscConfig+0x268>
 80042b0:	2f00      	cmp	r7, #0
 80042b2:	f43f af1b 	beq.w	80040ec <HAL_RCC_OscConfig+0x24>
 80042b6:	69e3      	ldr	r3, [r4, #28]
 80042b8:	f023 5380 	bic.w	r3, r3, #268435456	; 0x10000000
 80042bc:	61e3      	str	r3, [r4, #28]
 80042be:	e715      	b.n	80040ec <HAL_RCC_OscConfig+0x24>
 80042c0:	2700      	movs	r7, #0
 80042c2:	e7e2      	b.n	800428a <HAL_RCC_OscConfig+0x1c2>
 80042c4:	6833      	ldr	r3, [r6, #0]
 80042c6:	f443 7380 	orr.w	r3, r3, #256	; 0x100
 80042ca:	6033      	str	r3, [r6, #0]
 80042cc:	f7ff fc1a 	bl	8003b04 <HAL_GetTick>
 80042d0:	4680      	mov	r8, r0
 80042d2:	6833      	ldr	r3, [r6, #0]
 80042d4:	05da      	lsls	r2, r3, #23
 80042d6:	d4dc      	bmi.n	8004292 <HAL_RCC_OscConfig+0x1ca>
 80042d8:	f7ff fc14 	bl	8003b04 <HAL_GetTick>
 80042dc:	eba0 0008 	sub.w	r0, r0, r8
 80042e0:	2864      	cmp	r0, #100	; 0x64
 80042e2:	d9f6      	bls.n	80042d2 <HAL_RCC_OscConfig+0x20a>
 80042e4:	e731      	b.n	800414a <HAL_RCC_OscConfig+0x82>
 80042e6:	b9ab      	cbnz	r3, 8004314 <HAL_RCC_OscConfig+0x24c>
 80042e8:	6a23      	ldr	r3, [r4, #32]
 80042ea:	f241 3888 	movw	r8, #5000	; 0x1388
 80042ee:	f023 0301 	bic.w	r3, r3, #1
 80042f2:	6223      	str	r3, [r4, #32]
 80042f4:	6a23      	ldr	r3, [r4, #32]
 80042f6:	f023 0304 	bic.w	r3, r3, #4
 80042fa:	6223      	str	r3, [r4, #32]
 80042fc:	f7ff fc02 	bl	8003b04 <HAL_GetTick>
 8004300:	4606      	mov	r6, r0
 8004302:	6a23      	ldr	r3, [r4, #32]
 8004304:	0798      	lsls	r0, r3, #30
 8004306:	d5d3      	bpl.n	80042b0 <HAL_RCC_OscConfig+0x1e8>
 8004308:	f7ff fbfc 	bl	8003b04 <HAL_GetTick>
 800430c:	1b80      	subs	r0, r0, r6
 800430e:	4540      	cmp	r0, r8
 8004310:	d9f7      	bls.n	8004302 <HAL_RCC_OscConfig+0x23a>
 8004312:	e71a      	b.n	800414a <HAL_RCC_OscConfig+0x82>
 8004314:	2b05      	cmp	r3, #5
 8004316:	6a23      	ldr	r3, [r4, #32]
 8004318:	d103      	bne.n	8004322 <HAL_RCC_OscConfig+0x25a>
 800431a:	f043 0304 	orr.w	r3, r3, #4
 800431e:	6223      	str	r3, [r4, #32]
 8004320:	e7ba      	b.n	8004298 <HAL_RCC_OscConfig+0x1d0>
 8004322:	f023 0301 	bic.w	r3, r3, #1
 8004326:	6223      	str	r3, [r4, #32]
 8004328:	6a23      	ldr	r3, [r4, #32]
 800432a:	f023 0304 	bic.w	r3, r3, #4
 800432e:	e7b6      	b.n	800429e <HAL_RCC_OscConfig+0x1d6>
 8004330:	f7ff fbe8 	bl	8003b04 <HAL_GetTick>
 8004334:	1b80      	subs	r0, r0, r6
 8004336:	4540      	cmp	r0, r8
 8004338:	d9b7      	bls.n	80042aa <HAL_RCC_OscConfig+0x1e2>
 800433a:	e706      	b.n	800414a <HAL_RCC_OscConfig+0x82>
 800433c:	40021000 	.word	0x40021000
 8004340:	42420000 	.word	0x42420000
 8004344:	20000018 	.word	0x20000018
 8004348:	40007000 	.word	0x40007000
 800434c:	4c2a      	ldr	r4, [pc, #168]	; (80043f8 <HAL_RCC_OscConfig+0x330>)
 800434e:	6863      	ldr	r3, [r4, #4]
 8004350:	f003 030c 	and.w	r3, r3, #12
 8004354:	2b08      	cmp	r3, #8
 8004356:	d03e      	beq.n	80043d6 <HAL_RCC_OscConfig+0x30e>
 8004358:	2200      	movs	r2, #0
 800435a:	4b28      	ldr	r3, [pc, #160]	; (80043fc <HAL_RCC_OscConfig+0x334>)
 800435c:	2802      	cmp	r0, #2
 800435e:	661a      	str	r2, [r3, #96]	; 0x60
 8004360:	d12c      	bne.n	80043bc <HAL_RCC_OscConfig+0x2f4>
 8004362:	f7ff fbcf 	bl	8003b04 <HAL_GetTick>
 8004366:	4606      	mov	r6, r0
 8004368:	6823      	ldr	r3, [r4, #0]
 800436a:	0199      	lsls	r1, r3, #6
 800436c:	d420      	bmi.n	80043b0 <HAL_RCC_OscConfig+0x2e8>
 800436e:	6a2b      	ldr	r3, [r5, #32]
 8004370:	f5b3 3f80 	cmp.w	r3, #65536	; 0x10000
 8004374:	d105      	bne.n	8004382 <HAL_RCC_OscConfig+0x2ba>
 8004376:	6862      	ldr	r2, [r4, #4]
 8004378:	68a9      	ldr	r1, [r5, #8]
 800437a:	f422 3200 	bic.w	r2, r2, #131072	; 0x20000
 800437e:	430a      	orrs	r2, r1
 8004380:	6062      	str	r2, [r4, #4]
 8004382:	6a69      	ldr	r1, [r5, #36]	; 0x24
 8004384:	6862      	ldr	r2, [r4, #4]
 8004386:	430b      	orrs	r3, r1
 8004388:	f422 1274 	bic.w	r2, r2, #3997696	; 0x3d0000
 800438c:	4313      	orrs	r3, r2
 800438e:	2201      	movs	r2, #1
 8004390:	6063      	str	r3, [r4, #4]
 8004392:	4b1a      	ldr	r3, [pc, #104]	; (80043fc <HAL_RCC_OscConfig+0x334>)
 8004394:	661a      	str	r2, [r3, #96]	; 0x60
 8004396:	f7ff fbb5 	bl	8003b04 <HAL_GetTick>
 800439a:	4605      	mov	r5, r0
 800439c:	6823      	ldr	r3, [r4, #0]
 800439e:	019a      	lsls	r2, r3, #6
 80043a0:	f53f aea8 	bmi.w	80040f4 <HAL_RCC_OscConfig+0x2c>
 80043a4:	f7ff fbae 	bl	8003b04 <HAL_GetTick>
 80043a8:	1b40      	subs	r0, r0, r5
 80043aa:	2802      	cmp	r0, #2
 80043ac:	d9f6      	bls.n	800439c <HAL_RCC_OscConfig+0x2d4>
 80043ae:	e6cc      	b.n	800414a <HAL_RCC_OscConfig+0x82>
 80043b0:	f7ff fba8 	bl	8003b04 <HAL_GetTick>
 80043b4:	1b80      	subs	r0, r0, r6
 80043b6:	2802      	cmp	r0, #2
 80043b8:	d9d6      	bls.n	8004368 <HAL_RCC_OscConfig+0x2a0>
 80043ba:	e6c6      	b.n	800414a <HAL_RCC_OscConfig+0x82>
 80043bc:	f7ff fba2 	bl	8003b04 <HAL_GetTick>
 80043c0:	4605      	mov	r5, r0
 80043c2:	6823      	ldr	r3, [r4, #0]
 80043c4:	019b      	lsls	r3, r3, #6
 80043c6:	f57f ae95 	bpl.w	80040f4 <HAL_RCC_OscConfig+0x2c>
 80043ca:	f7ff fb9b 	bl	8003b04 <HAL_GetTick>
 80043ce:	1b40      	subs	r0, r0, r5
 80043d0:	2802      	cmp	r0, #2
 80043d2:	d9f6      	bls.n	80043c2 <HAL_RCC_OscConfig+0x2fa>
 80043d4:	e6b9      	b.n	800414a <HAL_RCC_OscConfig+0x82>
 80043d6:	2801      	cmp	r0, #1
 80043d8:	f43f aeb8 	beq.w	800414c <HAL_RCC_OscConfig+0x84>
 80043dc:	6863      	ldr	r3, [r4, #4]
 80043de:	6a2a      	ldr	r2, [r5, #32]
 80043e0:	f403 3180 	and.w	r1, r3, #65536	; 0x10000
 80043e4:	4291      	cmp	r1, r2
 80043e6:	f47f ae9b 	bne.w	8004120 <HAL_RCC_OscConfig+0x58>
 80043ea:	6a6a      	ldr	r2, [r5, #36]	; 0x24
 80043ec:	f403 1370 	and.w	r3, r3, #3932160	; 0x3c0000
 80043f0:	4293      	cmp	r3, r2
 80043f2:	f43f ae7f 	beq.w	80040f4 <HAL_RCC_OscConfig+0x2c>
 80043f6:	e693      	b.n	8004120 <HAL_RCC_OscConfig+0x58>
 80043f8:	40021000 	.word	0x40021000
 80043fc:	42420000 	.word	0x42420000

08004400 <HAL_RCC_GetSysClockFreq>:
 8004400:	b530      	push	{r4, r5, lr}
 8004402:	4b18      	ldr	r3, [pc, #96]	; (8004464 <HAL_RCC_GetSysClockFreq+0x64>)
 8004404:	b087      	sub	sp, #28
 8004406:	ac02      	add	r4, sp, #8
 8004408:	f103 0510 	add.w	r5, r3, #16
 800440c:	4622      	mov	r2, r4
 800440e:	6818      	ldr	r0, [r3, #0]
 8004410:	6859      	ldr	r1, [r3, #4]
 8004412:	3308      	adds	r3, #8
 8004414:	c203      	stmia	r2!, {r0, r1}
 8004416:	42ab      	cmp	r3, r5
 8004418:	4614      	mov	r4, r2
 800441a:	d1f7      	bne.n	800440c <HAL_RCC_GetSysClockFreq+0xc>
 800441c:	f240 2301 	movw	r3, #513	; 0x201
 8004420:	4911      	ldr	r1, [pc, #68]	; (8004468 <HAL_RCC_GetSysClockFreq+0x68>)
 8004422:	f8ad 3004 	strh.w	r3, [sp, #4]
 8004426:	684b      	ldr	r3, [r1, #4]
 8004428:	f003 020c 	and.w	r2, r3, #12
 800442c:	2a08      	cmp	r2, #8
 800442e:	d117      	bne.n	8004460 <HAL_RCC_GetSysClockFreq+0x60>
 8004430:	f3c3 4283 	ubfx	r2, r3, #18, #4
 8004434:	3218      	adds	r2, #24
 8004436:	446a      	add	r2, sp
 8004438:	03db      	lsls	r3, r3, #15
 800443a:	f812 0c10 	ldrb.w	r0, [r2, #-16]
 800443e:	d50c      	bpl.n	800445a <HAL_RCC_GetSysClockFreq+0x5a>
 8004440:	684b      	ldr	r3, [r1, #4]
 8004442:	4a0a      	ldr	r2, [pc, #40]	; (800446c <HAL_RCC_GetSysClockFreq+0x6c>)
 8004444:	f3c3 4340 	ubfx	r3, r3, #17, #1
 8004448:	4350      	muls	r0, r2
 800444a:	3318      	adds	r3, #24
 800444c:	446b      	add	r3, sp
 800444e:	f813 3c14 	ldrb.w	r3, [r3, #-20]
 8004452:	fbb0 f0f3 	udiv	r0, r0, r3
 8004456:	b007      	add	sp, #28
 8004458:	bd30      	pop	{r4, r5, pc}
 800445a:	4b05      	ldr	r3, [pc, #20]	; (8004470 <HAL_RCC_GetSysClockFreq+0x70>)
 800445c:	4358      	muls	r0, r3
 800445e:	e7fa      	b.n	8004456 <HAL_RCC_GetSysClockFreq+0x56>
 8004460:	4802      	ldr	r0, [pc, #8]	; (800446c <HAL_RCC_GetSysClockFreq+0x6c>)
 8004462:	e7f8      	b.n	8004456 <HAL_RCC_GetSysClockFreq+0x56>
 8004464:	080062ae 	.word	0x080062ae
 8004468:	40021000 	.word	0x40021000
 800446c:	007a1200 	.word	0x007a1200
 8004470:	003d0900 	.word	0x003d0900

08004474 <HAL_RCC_ClockConfig>:
 8004474:	e92d 41f0 	stmdb	sp!, {r4, r5, r6, r7, r8, lr}
 8004478:	460d      	mov	r5, r1
 800447a:	4604      	mov	r4, r0
 800447c:	b910      	cbnz	r0, 8004484 <HAL_RCC_ClockConfig+0x10>
 800447e:	2001      	movs	r0, #1
 8004480:	e8bd 81f0 	ldmia.w	sp!, {r4, r5, r6, r7, r8, pc}
 8004484:	4a44      	ldr	r2, [pc, #272]	; (8004598 <HAL_RCC_ClockConfig+0x124>)
 8004486:	6813      	ldr	r3, [r2, #0]
 8004488:	f003 0307 	and.w	r3, r3, #7
 800448c:	428b      	cmp	r3, r1
 800448e:	d328      	bcc.n	80044e2 <HAL_RCC_ClockConfig+0x6e>
 8004490:	6821      	ldr	r1, [r4, #0]
 8004492:	078e      	lsls	r6, r1, #30
 8004494:	d430      	bmi.n	80044f8 <HAL_RCC_ClockConfig+0x84>
 8004496:	07ca      	lsls	r2, r1, #31
 8004498:	d443      	bmi.n	8004522 <HAL_RCC_ClockConfig+0xae>
 800449a:	4a3f      	ldr	r2, [pc, #252]	; (8004598 <HAL_RCC_ClockConfig+0x124>)
 800449c:	6813      	ldr	r3, [r2, #0]
 800449e:	f003 0307 	and.w	r3, r3, #7
 80044a2:	42ab      	cmp	r3, r5
 80044a4:	d865      	bhi.n	8004572 <HAL_RCC_ClockConfig+0xfe>
 80044a6:	6822      	ldr	r2, [r4, #0]
 80044a8:	4d3c      	ldr	r5, [pc, #240]	; (800459c <HAL_RCC_ClockConfig+0x128>)
 80044aa:	f012 0f04 	tst.w	r2, #4
 80044ae:	d16c      	bne.n	800458a <HAL_RCC_ClockConfig+0x116>
 80044b0:	0713      	lsls	r3, r2, #28
 80044b2:	d506      	bpl.n	80044c2 <HAL_RCC_ClockConfig+0x4e>
 80044b4:	686b      	ldr	r3, [r5, #4]
 80044b6:	6922      	ldr	r2, [r4, #16]
 80044b8:	f423 5360 	bic.w	r3, r3, #14336	; 0x3800
 80044bc:	ea43 03c2 	orr.w	r3, r3, r2, lsl #3
 80044c0:	606b      	str	r3, [r5, #4]
 80044c2:	f7ff ff9d 	bl	8004400 <HAL_RCC_GetSysClockFreq>
 80044c6:	686b      	ldr	r3, [r5, #4]
 80044c8:	4a35      	ldr	r2, [pc, #212]	; (80045a0 <HAL_RCC_ClockConfig+0x12c>)
 80044ca:	f3c3 1303 	ubfx	r3, r3, #4, #4
 80044ce:	5cd3      	ldrb	r3, [r2, r3]
 80044d0:	40d8      	lsrs	r0, r3
 80044d2:	4b34      	ldr	r3, [pc, #208]	; (80045a4 <HAL_RCC_ClockConfig+0x130>)
 80044d4:	6018      	str	r0, [r3, #0]
 80044d6:	4b34      	ldr	r3, [pc, #208]	; (80045a8 <HAL_RCC_ClockConfig+0x134>)
 80044d8:	6818      	ldr	r0, [r3, #0]
 80044da:	f7ff fad1 	bl	8003a80 <HAL_InitTick>
 80044de:	2000      	movs	r0, #0
 80044e0:	e7ce      	b.n	8004480 <HAL_RCC_ClockConfig+0xc>
 80044e2:	6813      	ldr	r3, [r2, #0]
 80044e4:	f023 0307 	bic.w	r3, r3, #7
 80044e8:	430b      	orrs	r3, r1
 80044ea:	6013      	str	r3, [r2, #0]
 80044ec:	6813      	ldr	r3, [r2, #0]
 80044ee:	f003 0307 	and.w	r3, r3, #7
 80044f2:	428b      	cmp	r3, r1
 80044f4:	d1c3      	bne.n	800447e <HAL_RCC_ClockConfig+0xa>
 80044f6:	e7cb      	b.n	8004490 <HAL_RCC_ClockConfig+0x1c>
 80044f8:	4b28      	ldr	r3, [pc, #160]	; (800459c <HAL_RCC_ClockConfig+0x128>)
 80044fa:	f011 0f04 	tst.w	r1, #4
 80044fe:	bf1e      	ittt	ne
 8004500:	685a      	ldrne	r2, [r3, #4]
 8004502:	f442 62e0 	orrne.w	r2, r2, #1792	; 0x700
 8004506:	605a      	strne	r2, [r3, #4]
 8004508:	0708      	lsls	r0, r1, #28
 800450a:	bf42      	ittt	mi
 800450c:	685a      	ldrmi	r2, [r3, #4]
 800450e:	f442 5260 	orrmi.w	r2, r2, #14336	; 0x3800
 8004512:	605a      	strmi	r2, [r3, #4]
 8004514:	685a      	ldr	r2, [r3, #4]
 8004516:	68a0      	ldr	r0, [r4, #8]
 8004518:	f022 02f0 	bic.w	r2, r2, #240	; 0xf0
 800451c:	4302      	orrs	r2, r0
 800451e:	605a      	str	r2, [r3, #4]
 8004520:	e7b9      	b.n	8004496 <HAL_RCC_ClockConfig+0x22>
 8004522:	6862      	ldr	r2, [r4, #4]
 8004524:	4e1d      	ldr	r6, [pc, #116]	; (800459c <HAL_RCC_ClockConfig+0x128>)
 8004526:	2a01      	cmp	r2, #1
 8004528:	6833      	ldr	r3, [r6, #0]
 800452a:	d11a      	bne.n	8004562 <HAL_RCC_ClockConfig+0xee>
 800452c:	f413 3f00 	tst.w	r3, #131072	; 0x20000
 8004530:	d0a5      	beq.n	800447e <HAL_RCC_ClockConfig+0xa>
 8004532:	6873      	ldr	r3, [r6, #4]
 8004534:	f241 3888 	movw	r8, #5000	; 0x1388
 8004538:	f023 0303 	bic.w	r3, r3, #3
 800453c:	4313      	orrs	r3, r2
 800453e:	6073      	str	r3, [r6, #4]
 8004540:	f7ff fae0 	bl	8003b04 <HAL_GetTick>
 8004544:	4607      	mov	r7, r0
 8004546:	6873      	ldr	r3, [r6, #4]
 8004548:	6862      	ldr	r2, [r4, #4]
 800454a:	f003 030c 	and.w	r3, r3, #12
 800454e:	ebb3 0f82 	cmp.w	r3, r2, lsl #2
 8004552:	d0a2      	beq.n	800449a <HAL_RCC_ClockConfig+0x26>
 8004554:	f7ff fad6 	bl	8003b04 <HAL_GetTick>
 8004558:	1bc0      	subs	r0, r0, r7
 800455a:	4540      	cmp	r0, r8
 800455c:	d9f3      	bls.n	8004546 <HAL_RCC_ClockConfig+0xd2>
 800455e:	2003      	movs	r0, #3
 8004560:	e78e      	b.n	8004480 <HAL_RCC_ClockConfig+0xc>
 8004562:	2a02      	cmp	r2, #2
 8004564:	d102      	bne.n	800456c <HAL_RCC_ClockConfig+0xf8>
 8004566:	f013 7f00 	tst.w	r3, #33554432	; 0x2000000
 800456a:	e7e1      	b.n	8004530 <HAL_RCC_ClockConfig+0xbc>
 800456c:	f013 0f02 	tst.w	r3, #2
 8004570:	e7de      	b.n	8004530 <HAL_RCC_ClockConfig+0xbc>
 8004572:	6813      	ldr	r3, [r2, #0]
 8004574:	f023 0307 	bic.w	r3, r3, #7
 8004578:	432b      	orrs	r3, r5
 800457a:	6013      	str	r3, [r2, #0]
 800457c:	6813      	ldr	r3, [r2, #0]
 800457e:	f003 0307 	and.w	r3, r3, #7
 8004582:	42ab      	cmp	r3, r5
 8004584:	f47f af7b 	bne.w	800447e <HAL_RCC_ClockConfig+0xa>
 8004588:	e78d      	b.n	80044a6 <HAL_RCC_ClockConfig+0x32>
 800458a:	686b      	ldr	r3, [r5, #4]
 800458c:	68e1      	ldr	r1, [r4, #12]
 800458e:	f423 63e0 	bic.w	r3, r3, #1792	; 0x700
 8004592:	430b      	orrs	r3, r1
 8004594:	606b      	str	r3, [r5, #4]
 8004596:	e78b      	b.n	80044b0 <HAL_RCC_ClockConfig+0x3c>
 8004598:	40022000 	.word	0x40022000
 800459c:	40021000 	.word	0x40021000
 80045a0:	08006296 	.word	0x08006296
 80045a4:	20000018 	.word	0x20000018
 80045a8:	20000020 	.word	0x20000020

080045ac <HAL_RCC_GetPCLK1Freq>:
 80045ac:	4b04      	ldr	r3, [pc, #16]	; (80045c0 <HAL_RCC_GetPCLK1Freq+0x14>)
 80045ae:	4a05      	ldr	r2, [pc, #20]	; (80045c4 <HAL_RCC_GetPCLK1Freq+0x18>)
 80045b0:	685b      	ldr	r3, [r3, #4]
 80045b2:	f3c3 2302 	ubfx	r3, r3, #8, #3
 80045b6:	5cd3      	ldrb	r3, [r2, r3]
 80045b8:	4a03      	ldr	r2, [pc, #12]	; (80045c8 <HAL_RCC_GetPCLK1Freq+0x1c>)
 80045ba:	6810      	ldr	r0, [r2, #0]
 80045bc:	40d8      	lsrs	r0, r3
 80045be:	4770      	bx	lr
 80045c0:	40021000 	.word	0x40021000
 80045c4:	080062a6 	.word	0x080062a6
 80045c8:	20000018 	.word	0x20000018

080045cc <HAL_RCC_GetPCLK2Freq>:
 80045cc:	4b04      	ldr	r3, [pc, #16]	; (80045e0 <HAL_RCC_GetPCLK2Freq+0x14>)
 80045ce:	4a05      	ldr	r2, [pc, #20]	; (80045e4 <HAL_RCC_GetPCLK2Freq+0x18>)
 80045d0:	685b      	ldr	r3, [r3, #4]
 80045d2:	f3c3 23c2 	ubfx	r3, r3, #11, #3
 80045d6:	5cd3      	ldrb	r3, [r2, r3]
 80045d8:	4a03      	ldr	r2, [pc, #12]	; (80045e8 <HAL_RCC_GetPCLK2Freq+0x1c>)
 80045da:	6810      	ldr	r0, [r2, #0]
 80045dc:	40d8      	lsrs	r0, r3
 80045de:	4770      	bx	lr
 80045e0:	40021000 	.word	0x40021000
 80045e4:	080062a6 	.word	0x080062a6
 80045e8:	20000018 	.word	0x20000018

080045ec <TIM_OC1_SetConfig>:
 80045ec:	6a03      	ldr	r3, [r0, #32]
 80045ee:	b570      	push	{r4, r5, r6, lr}
 80045f0:	f023 0301 	bic.w	r3, r3, #1
 80045f4:	6203      	str	r3, [r0, #32]
 80045f6:	6a03      	ldr	r3, [r0, #32]
 80045f8:	6844      	ldr	r4, [r0, #4]
 80045fa:	6982      	ldr	r2, [r0, #24]
 80045fc:	680d      	ldr	r5, [r1, #0]
 80045fe:	f022 0273 	bic.w	r2, r2, #115	; 0x73
 8004602:	432a      	orrs	r2, r5
 8004604:	688d      	ldr	r5, [r1, #8]
 8004606:	f023 0302 	bic.w	r3, r3, #2
 800460a:	432b      	orrs	r3, r5
 800460c:	4d0a      	ldr	r5, [pc, #40]	; (8004638 <TIM_OC1_SetConfig+0x4c>)
 800460e:	42a8      	cmp	r0, r5
 8004610:	d10b      	bne.n	800462a <TIM_OC1_SetConfig+0x3e>
 8004612:	68cd      	ldr	r5, [r1, #12]
 8004614:	f023 0308 	bic.w	r3, r3, #8
 8004618:	432b      	orrs	r3, r5
 800461a:	f424 7440 	bic.w	r4, r4, #768	; 0x300
 800461e:	e9d1 5605 	ldrd	r5, r6, [r1, #20]
 8004622:	4335      	orrs	r5, r6
 8004624:	f023 0304 	bic.w	r3, r3, #4
 8004628:	432c      	orrs	r4, r5
 800462a:	6044      	str	r4, [r0, #4]
 800462c:	6182      	str	r2, [r0, #24]
 800462e:	684a      	ldr	r2, [r1, #4]
 8004630:	6342      	str	r2, [r0, #52]	; 0x34
 8004632:	6203      	str	r3, [r0, #32]
 8004634:	bd70      	pop	{r4, r5, r6, pc}
 8004636:	bf00      	nop
 8004638:	40012c00 	.word	0x40012c00

0800463c <TIM_OC3_SetConfig>:
 800463c:	6a03      	ldr	r3, [r0, #32]
 800463e:	b570      	push	{r4, r5, r6, lr}
 8004640:	f423 7380 	bic.w	r3, r3, #256	; 0x100
 8004644:	6203      	str	r3, [r0, #32]
 8004646:	6a03      	ldr	r3, [r0, #32]
 8004648:	6844      	ldr	r4, [r0, #4]
 800464a:	69c2      	ldr	r2, [r0, #28]
 800464c:	680d      	ldr	r5, [r1, #0]
 800464e:	f022 0273 	bic.w	r2, r2, #115	; 0x73
 8004652:	432a      	orrs	r2, r5
 8004654:	688d      	ldr	r5, [r1, #8]
 8004656:	f423 7300 	bic.w	r3, r3, #512	; 0x200
 800465a:	ea43 2305 	orr.w	r3, r3, r5, lsl #8
 800465e:	4d0b      	ldr	r5, [pc, #44]	; (800468c <TIM_OC3_SetConfig+0x50>)
 8004660:	42a8      	cmp	r0, r5
 8004662:	d10d      	bne.n	8004680 <TIM_OC3_SetConfig+0x44>
 8004664:	68cd      	ldr	r5, [r1, #12]
 8004666:	f423 6300 	bic.w	r3, r3, #2048	; 0x800
 800466a:	ea43 2305 	orr.w	r3, r3, r5, lsl #8
 800466e:	f424 5440 	bic.w	r4, r4, #12288	; 0x3000
 8004672:	e9d1 5605 	ldrd	r5, r6, [r1, #20]
 8004676:	4335      	orrs	r5, r6
 8004678:	f423 6380 	bic.w	r3, r3, #1024	; 0x400
 800467c:	ea44 1405 	orr.w	r4, r4, r5, lsl #4
 8004680:	6044      	str	r4, [r0, #4]
 8004682:	61c2      	str	r2, [r0, #28]
 8004684:	684a      	ldr	r2, [r1, #4]
 8004686:	63c2      	str	r2, [r0, #60]	; 0x3c
 8004688:	6203      	str	r3, [r0, #32]
 800468a:	bd70      	pop	{r4, r5, r6, pc}
 800468c:	40012c00 	.word	0x40012c00

08004690 <TIM_OC4_SetConfig>:
 8004690:	6a03      	ldr	r3, [r0, #32]
 8004692:	b530      	push	{r4, r5, lr}
 8004694:	f423 5380 	bic.w	r3, r3, #4096	; 0x1000
 8004698:	6203      	str	r3, [r0, #32]
 800469a:	6a03      	ldr	r3, [r0, #32]
 800469c:	6844      	ldr	r4, [r0, #4]
 800469e:	69c2      	ldr	r2, [r0, #28]
 80046a0:	680d      	ldr	r5, [r1, #0]
 80046a2:	f422 42e6 	bic.w	r2, r2, #29440	; 0x7300
 80046a6:	ea42 2205 	orr.w	r2, r2, r5, lsl #8
 80046aa:	688d      	ldr	r5, [r1, #8]
 80046ac:	f423 5300 	bic.w	r3, r3, #8192	; 0x2000
 80046b0:	ea43 3305 	orr.w	r3, r3, r5, lsl #12
 80046b4:	4d06      	ldr	r5, [pc, #24]	; (80046d0 <TIM_OC4_SetConfig+0x40>)
 80046b6:	42a8      	cmp	r0, r5
 80046b8:	bf02      	ittt	eq
 80046ba:	694d      	ldreq	r5, [r1, #20]
 80046bc:	f424 4480 	biceq.w	r4, r4, #16384	; 0x4000
 80046c0:	ea44 1485 	orreq.w	r4, r4, r5, lsl #6
 80046c4:	6044      	str	r4, [r0, #4]
 80046c6:	61c2      	str	r2, [r0, #28]
 80046c8:	684a      	ldr	r2, [r1, #4]
 80046ca:	6402      	str	r2, [r0, #64]	; 0x40
 80046cc:	6203      	str	r3, [r0, #32]
 80046ce:	bd30      	pop	{r4, r5, pc}
 80046d0:	40012c00 	.word	0x40012c00

080046d4 <HAL_TIM_PWM_MspInit>:
 80046d4:	4770      	bx	lr
	...

080046d8 <TIM_Base_SetConfig>:
 80046d8:	4a1a      	ldr	r2, [pc, #104]	; (8004744 <TIM_Base_SetConfig+0x6c>)
 80046da:	6803      	ldr	r3, [r0, #0]
 80046dc:	4290      	cmp	r0, r2
 80046de:	d00a      	beq.n	80046f6 <TIM_Base_SetConfig+0x1e>
 80046e0:	f1b0 4f80 	cmp.w	r0, #1073741824	; 0x40000000
 80046e4:	d007      	beq.n	80046f6 <TIM_Base_SetConfig+0x1e>
 80046e6:	f5a2 3294 	sub.w	r2, r2, #75776	; 0x12800
 80046ea:	4290      	cmp	r0, r2
 80046ec:	d003      	beq.n	80046f6 <TIM_Base_SetConfig+0x1e>
 80046ee:	f502 6280 	add.w	r2, r2, #1024	; 0x400
 80046f2:	4290      	cmp	r0, r2
 80046f4:	d115      	bne.n	8004722 <TIM_Base_SetConfig+0x4a>
 80046f6:	684a      	ldr	r2, [r1, #4]
 80046f8:	f023 0370 	bic.w	r3, r3, #112	; 0x70
 80046fc:	4313      	orrs	r3, r2
 80046fe:	4a11      	ldr	r2, [pc, #68]	; (8004744 <TIM_Base_SetConfig+0x6c>)
 8004700:	4290      	cmp	r0, r2
 8004702:	d00a      	beq.n	800471a <TIM_Base_SetConfig+0x42>
 8004704:	f1b0 4f80 	cmp.w	r0, #1073741824	; 0x40000000
 8004708:	d007      	beq.n	800471a <TIM_Base_SetConfig+0x42>
 800470a:	f5a2 3294 	sub.w	r2, r2, #75776	; 0x12800
 800470e:	4290      	cmp	r0, r2
 8004710:	d003      	beq.n	800471a <TIM_Base_SetConfig+0x42>
 8004712:	f502 6280 	add.w	r2, r2, #1024	; 0x400
 8004716:	4290      	cmp	r0, r2
 8004718:	d103      	bne.n	8004722 <TIM_Base_SetConfig+0x4a>
 800471a:	68ca      	ldr	r2, [r1, #12]
 800471c:	f423 7340 	bic.w	r3, r3, #768	; 0x300
 8004720:	4313      	orrs	r3, r2
 8004722:	694a      	ldr	r2, [r1, #20]
 8004724:	f023 0380 	bic.w	r3, r3, #128	; 0x80
 8004728:	4313      	orrs	r3, r2
 800472a:	6003      	str	r3, [r0, #0]
 800472c:	688b      	ldr	r3, [r1, #8]
 800472e:	62c3      	str	r3, [r0, #44]	; 0x2c
 8004730:	680b      	ldr	r3, [r1, #0]
 8004732:	6283      	str	r3, [r0, #40]	; 0x28
 8004734:	4b03      	ldr	r3, [pc, #12]	; (8004744 <TIM_Base_SetConfig+0x6c>)
 8004736:	4298      	cmp	r0, r3
 8004738:	bf04      	itt	eq
 800473a:	690b      	ldreq	r3, [r1, #16]
 800473c:	6303      	streq	r3, [r0, #48]	; 0x30
 800473e:	2301      	movs	r3, #1
 8004740:	6143      	str	r3, [r0, #20]
 8004742:	4770      	bx	lr
 8004744:	40012c00 	.word	0x40012c00

08004748 <HAL_TIM_Base_Init>:
 8004748:	b510      	push	{r4, lr}
 800474a:	4604      	mov	r4, r0
 800474c:	b330      	cbz	r0, 800479c <HAL_TIM_Base_Init+0x54>
 800474e:	f890 303d 	ldrb.w	r3, [r0, #61]	; 0x3d
 8004752:	f003 02ff 	and.w	r2, r3, #255	; 0xff
 8004756:	b91b      	cbnz	r3, 8004760 <HAL_TIM_Base_Init+0x18>
 8004758:	f880 203c 	strb.w	r2, [r0, #60]	; 0x3c
 800475c:	f7ff f892 	bl	8003884 <HAL_TIM_Base_MspInit>
 8004760:	2302      	movs	r3, #2
 8004762:	6820      	ldr	r0, [r4, #0]
 8004764:	f884 303d 	strb.w	r3, [r4, #61]	; 0x3d
 8004768:	1d21      	adds	r1, r4, #4
 800476a:	f7ff ffb5 	bl	80046d8 <TIM_Base_SetConfig>
 800476e:	2301      	movs	r3, #1
 8004770:	2000      	movs	r0, #0
 8004772:	f884 3046 	strb.w	r3, [r4, #70]	; 0x46
 8004776:	f884 303e 	strb.w	r3, [r4, #62]	; 0x3e
 800477a:	f884 303f 	strb.w	r3, [r4, #63]	; 0x3f
 800477e:	f884 3040 	strb.w	r3, [r4, #64]	; 0x40
 8004782:	f884 3041 	strb.w	r3, [r4, #65]	; 0x41
 8004786:	f884 3042 	strb.w	r3, [r4, #66]	; 0x42
 800478a:	f884 3043 	strb.w	r3, [r4, #67]	; 0x43
 800478e:	f884 3044 	strb.w	r3, [r4, #68]	; 0x44
 8004792:	f884 3045 	strb.w	r3, [r4, #69]	; 0x45
 8004796:	f884 303d 	strb.w	r3, [r4, #61]	; 0x3d
 800479a:	bd10      	pop	{r4, pc}
 800479c:	2001      	movs	r0, #1
 800479e:	e7fc      	b.n	800479a <HAL_TIM_Base_Init+0x52>

080047a0 <HAL_TIM_PWM_Init>:
 80047a0:	b510      	push	{r4, lr}
 80047a2:	4604      	mov	r4, r0
 80047a4:	b330      	cbz	r0, 80047f4 <HAL_TIM_PWM_Init+0x54>
 80047a6:	f890 303d 	ldrb.w	r3, [r0, #61]	; 0x3d
 80047aa:	f003 02ff 	and.w	r2, r3, #255	; 0xff
 80047ae:	b91b      	cbnz	r3, 80047b8 <HAL_TIM_PWM_Init+0x18>
 80047b0:	f880 203c 	strb.w	r2, [r0, #60]	; 0x3c
 80047b4:	f7ff ff8e 	bl	80046d4 <HAL_TIM_PWM_MspInit>
 80047b8:	2302      	movs	r3, #2
 80047ba:	6820      	ldr	r0, [r4, #0]
 80047bc:	f884 303d 	strb.w	r3, [r4, #61]	; 0x3d
 80047c0:	1d21      	adds	r1, r4, #4
 80047c2:	f7ff ff89 	bl	80046d8 <TIM_Base_SetConfig>
 80047c6:	2301      	movs	r3, #1
 80047c8:	2000      	movs	r0, #0
 80047ca:	f884 3046 	strb.w	r3, [r4, #70]	; 0x46
 80047ce:	f884 303e 	strb.w	r3, [r4, #62]	; 0x3e
 80047d2:	f884 303f 	strb.w	r3, [r4, #63]	; 0x3f
 80047d6:	f884 3040 	strb.w	r3, [r4, #64]	; 0x40
 80047da:	f884 3041 	strb.w	r3, [r4, #65]	; 0x41
 80047de:	f884 3042 	strb.w	r3, [r4, #66]	; 0x42
 80047e2:	f884 3043 	strb.w	r3, [r4, #67]	; 0x43
 80047e6:	f884 3044 	strb.w	r3, [r4, #68]	; 0x44
 80047ea:	f884 3045 	strb.w	r3, [r4, #69]	; 0x45
 80047ee:	f884 303d 	strb.w	r3, [r4, #61]	; 0x3d
 80047f2:	bd10      	pop	{r4, pc}
 80047f4:	2001      	movs	r0, #1
 80047f6:	e7fc      	b.n	80047f2 <HAL_TIM_PWM_Init+0x52>

080047f8 <TIM_OC2_SetConfig>:
 80047f8:	6a03      	ldr	r3, [r0, #32]
 80047fa:	b570      	push	{r4, r5, r6, lr}
 80047fc:	f023 0310 	bic.w	r3, r3, #16
 8004800:	6203      	str	r3, [r0, #32]
 8004802:	6a03      	ldr	r3, [r0, #32]
 8004804:	6844      	ldr	r4, [r0, #4]
 8004806:	6982      	ldr	r2, [r0, #24]
 8004808:	680d      	ldr	r5, [r1, #0]
 800480a:	f422 42e6 	bic.w	r2, r2, #29440	; 0x7300
 800480e:	ea42 2205 	orr.w	r2, r2, r5, lsl #8
 8004812:	688d      	ldr	r5, [r1, #8]
 8004814:	f023 0320 	bic.w	r3, r3, #32
 8004818:	ea43 1305 	orr.w	r3, r3, r5, lsl #4
 800481c:	4d0b      	ldr	r5, [pc, #44]	; (800484c <TIM_OC2_SetConfig+0x54>)
 800481e:	42a8      	cmp	r0, r5
 8004820:	d10d      	bne.n	800483e <TIM_OC2_SetConfig+0x46>
 8004822:	68cd      	ldr	r5, [r1, #12]
 8004824:	f023 0380 	bic.w	r3, r3, #128	; 0x80
 8004828:	ea43 1305 	orr.w	r3, r3, r5, lsl #4
 800482c:	f424 6440 	bic.w	r4, r4, #3072	; 0xc00
 8004830:	e9d1 5605 	ldrd	r5, r6, [r1, #20]
 8004834:	4335      	orrs	r5, r6
 8004836:	f023 0340 	bic.w	r3, r3, #64	; 0x40
 800483a:	ea44 0485 	orr.w	r4, r4, r5, lsl #2
 800483e:	6044      	str	r4, [r0, #4]
 8004840:	6182      	str	r2, [r0, #24]
 8004842:	684a      	ldr	r2, [r1, #4]
 8004844:	6382      	str	r2, [r0, #56]	; 0x38
 8004846:	6203      	str	r3, [r0, #32]
 8004848:	bd70      	pop	{r4, r5, r6, pc}
 800484a:	bf00      	nop
 800484c:	40012c00 	.word	0x40012c00

08004850 <HAL_TIM_PWM_ConfigChannel>:
 8004850:	b538      	push	{r3, r4, r5, lr}
 8004852:	f890 303c 	ldrb.w	r3, [r0, #60]	; 0x3c
 8004856:	4604      	mov	r4, r0
 8004858:	2b01      	cmp	r3, #1
 800485a:	d052      	beq.n	8004902 <HAL_TIM_PWM_ConfigChannel+0xb2>
 800485c:	2301      	movs	r3, #1
 800485e:	2a08      	cmp	r2, #8
 8004860:	f880 303c 	strb.w	r3, [r0, #60]	; 0x3c
 8004864:	d03c      	beq.n	80048e0 <HAL_TIM_PWM_ConfigChannel+0x90>
 8004866:	d806      	bhi.n	8004876 <HAL_TIM_PWM_ConfigChannel+0x26>
 8004868:	b1c2      	cbz	r2, 800489c <HAL_TIM_PWM_ConfigChannel+0x4c>
 800486a:	2a04      	cmp	r2, #4
 800486c:	d027      	beq.n	80048be <HAL_TIM_PWM_ConfigChannel+0x6e>
 800486e:	2000      	movs	r0, #0
 8004870:	f884 003c 	strb.w	r0, [r4, #60]	; 0x3c
 8004874:	bd38      	pop	{r3, r4, r5, pc}
 8004876:	2a0c      	cmp	r2, #12
 8004878:	d1f9      	bne.n	800486e <HAL_TIM_PWM_ConfigChannel+0x1e>
 800487a:	6800      	ldr	r0, [r0, #0]
 800487c:	f7ff ff08 	bl	8004690 <TIM_OC4_SetConfig>
 8004880:	6823      	ldr	r3, [r4, #0]
 8004882:	6909      	ldr	r1, [r1, #16]
 8004884:	69da      	ldr	r2, [r3, #28]
 8004886:	f442 6200 	orr.w	r2, r2, #2048	; 0x800
 800488a:	61da      	str	r2, [r3, #28]
 800488c:	69da      	ldr	r2, [r3, #28]
 800488e:	f422 6280 	bic.w	r2, r2, #1024	; 0x400
 8004892:	61da      	str	r2, [r3, #28]
 8004894:	69da      	ldr	r2, [r3, #28]
 8004896:	ea42 2201 	orr.w	r2, r2, r1, lsl #8
 800489a:	e030      	b.n	80048fe <HAL_TIM_PWM_ConfigChannel+0xae>
 800489c:	6800      	ldr	r0, [r0, #0]
 800489e:	f7ff fea5 	bl	80045ec <TIM_OC1_SetConfig>
 80048a2:	6823      	ldr	r3, [r4, #0]
 80048a4:	6909      	ldr	r1, [r1, #16]
 80048a6:	699a      	ldr	r2, [r3, #24]
 80048a8:	f042 0208 	orr.w	r2, r2, #8
 80048ac:	619a      	str	r2, [r3, #24]
 80048ae:	699a      	ldr	r2, [r3, #24]
 80048b0:	f022 0204 	bic.w	r2, r2, #4
 80048b4:	619a      	str	r2, [r3, #24]
 80048b6:	699a      	ldr	r2, [r3, #24]
 80048b8:	430a      	orrs	r2, r1
 80048ba:	619a      	str	r2, [r3, #24]
 80048bc:	e7d7      	b.n	800486e <HAL_TIM_PWM_ConfigChannel+0x1e>
 80048be:	6800      	ldr	r0, [r0, #0]
 80048c0:	f7ff ff9a 	bl	80047f8 <TIM_OC2_SetConfig>
 80048c4:	6823      	ldr	r3, [r4, #0]
 80048c6:	6909      	ldr	r1, [r1, #16]
 80048c8:	699a      	ldr	r2, [r3, #24]
 80048ca:	f442 6200 	orr.w	r2, r2, #2048	; 0x800
 80048ce:	619a      	str	r2, [r3, #24]
 80048d0:	699a      	ldr	r2, [r3, #24]
 80048d2:	f422 6280 	bic.w	r2, r2, #1024	; 0x400
 80048d6:	619a      	str	r2, [r3, #24]
 80048d8:	699a      	ldr	r2, [r3, #24]
 80048da:	ea42 2201 	orr.w	r2, r2, r1, lsl #8
 80048de:	e7ec      	b.n	80048ba <HAL_TIM_PWM_ConfigChannel+0x6a>
 80048e0:	6800      	ldr	r0, [r0, #0]
 80048e2:	f7ff feab 	bl	800463c <TIM_OC3_SetConfig>
 80048e6:	6823      	ldr	r3, [r4, #0]
 80048e8:	6909      	ldr	r1, [r1, #16]
 80048ea:	69da      	ldr	r2, [r3, #28]
 80048ec:	f042 0208 	orr.w	r2, r2, #8
 80048f0:	61da      	str	r2, [r3, #28]
 80048f2:	69da      	ldr	r2, [r3, #28]
 80048f4:	f022 0204 	bic.w	r2, r2, #4
 80048f8:	61da      	str	r2, [r3, #28]
 80048fa:	69da      	ldr	r2, [r3, #28]
 80048fc:	430a      	orrs	r2, r1
 80048fe:	61da      	str	r2, [r3, #28]
 8004900:	e7b5      	b.n	800486e <HAL_TIM_PWM_ConfigChannel+0x1e>
 8004902:	2002      	movs	r0, #2
 8004904:	e7b6      	b.n	8004874 <HAL_TIM_PWM_ConfigChannel+0x24>

08004906 <TIM_ETR_SetConfig>:
 8004906:	b510      	push	{r4, lr}
 8004908:	6884      	ldr	r4, [r0, #8]
 800490a:	430a      	orrs	r2, r1
 800490c:	f424 447f 	bic.w	r4, r4, #65280	; 0xff00
 8004910:	ea42 2203 	orr.w	r2, r2, r3, lsl #8
 8004914:	4322      	orrs	r2, r4
 8004916:	6082      	str	r2, [r0, #8]
 8004918:	bd10      	pop	{r4, pc}

0800491a <HAL_TIM_ConfigClockSource>:
 800491a:	b570      	push	{r4, r5, r6, lr}
 800491c:	f890 303c 	ldrb.w	r3, [r0, #60]	; 0x3c
 8004920:	4604      	mov	r4, r0
 8004922:	2b01      	cmp	r3, #1
 8004924:	f04f 0002 	mov.w	r0, #2
 8004928:	d027      	beq.n	800497a <HAL_TIM_ConfigClockSource+0x60>
 800492a:	2301      	movs	r3, #1
 800492c:	f884 003d 	strb.w	r0, [r4, #61]	; 0x3d
 8004930:	6820      	ldr	r0, [r4, #0]
 8004932:	f884 303c 	strb.w	r3, [r4, #60]	; 0x3c
 8004936:	6883      	ldr	r3, [r0, #8]
 8004938:	f423 437f 	bic.w	r3, r3, #65280	; 0xff00
 800493c:	f023 0377 	bic.w	r3, r3, #119	; 0x77
 8004940:	6083      	str	r3, [r0, #8]
 8004942:	680b      	ldr	r3, [r1, #0]
 8004944:	2b60      	cmp	r3, #96	; 0x60
 8004946:	d04d      	beq.n	80049e4 <HAL_TIM_ConfigClockSource+0xca>
 8004948:	d832      	bhi.n	80049b0 <HAL_TIM_ConfigClockSource+0x96>
 800494a:	2b40      	cmp	r3, #64	; 0x40
 800494c:	d062      	beq.n	8004a14 <HAL_TIM_ConfigClockSource+0xfa>
 800494e:	d815      	bhi.n	800497c <HAL_TIM_ConfigClockSource+0x62>
 8004950:	2b20      	cmp	r3, #32
 8004952:	d003      	beq.n	800495c <HAL_TIM_ConfigClockSource+0x42>
 8004954:	d809      	bhi.n	800496a <HAL_TIM_ConfigClockSource+0x50>
 8004956:	f033 0210 	bics.w	r2, r3, #16
 800495a:	d108      	bne.n	800496e <HAL_TIM_ConfigClockSource+0x54>
 800495c:	6882      	ldr	r2, [r0, #8]
 800495e:	f022 0270 	bic.w	r2, r2, #112	; 0x70
 8004962:	4313      	orrs	r3, r2
 8004964:	f043 0307 	orr.w	r3, r3, #7
 8004968:	e020      	b.n	80049ac <HAL_TIM_ConfigClockSource+0x92>
 800496a:	2b30      	cmp	r3, #48	; 0x30
 800496c:	d0f6      	beq.n	800495c <HAL_TIM_ConfigClockSource+0x42>
 800496e:	2301      	movs	r3, #1
 8004970:	2000      	movs	r0, #0
 8004972:	f884 303d 	strb.w	r3, [r4, #61]	; 0x3d
 8004976:	f884 003c 	strb.w	r0, [r4, #60]	; 0x3c
 800497a:	bd70      	pop	{r4, r5, r6, pc}
 800497c:	2b50      	cmp	r3, #80	; 0x50
 800497e:	d1f6      	bne.n	800496e <HAL_TIM_ConfigClockSource+0x54>
 8004980:	684a      	ldr	r2, [r1, #4]
 8004982:	68ce      	ldr	r6, [r1, #12]
 8004984:	6a01      	ldr	r1, [r0, #32]
 8004986:	6a05      	ldr	r5, [r0, #32]
 8004988:	f021 010a 	bic.w	r1, r1, #10
 800498c:	f025 0501 	bic.w	r5, r5, #1
 8004990:	6205      	str	r5, [r0, #32]
 8004992:	6983      	ldr	r3, [r0, #24]
 8004994:	430a      	orrs	r2, r1
 8004996:	f023 03f0 	bic.w	r3, r3, #240	; 0xf0
 800499a:	ea43 1306 	orr.w	r3, r3, r6, lsl #4
 800499e:	6183      	str	r3, [r0, #24]
 80049a0:	6202      	str	r2, [r0, #32]
 80049a2:	6883      	ldr	r3, [r0, #8]
 80049a4:	f023 0370 	bic.w	r3, r3, #112	; 0x70
 80049a8:	f043 0357 	orr.w	r3, r3, #87	; 0x57
 80049ac:	6083      	str	r3, [r0, #8]
 80049ae:	e7de      	b.n	800496e <HAL_TIM_ConfigClockSource+0x54>
 80049b0:	2b70      	cmp	r3, #112	; 0x70
 80049b2:	d00c      	beq.n	80049ce <HAL_TIM_ConfigClockSource+0xb4>
 80049b4:	f5b3 5f00 	cmp.w	r3, #8192	; 0x2000
 80049b8:	d1d9      	bne.n	800496e <HAL_TIM_ConfigClockSource+0x54>
 80049ba:	68cb      	ldr	r3, [r1, #12]
 80049bc:	e9d1 2101 	ldrd	r2, r1, [r1, #4]
 80049c0:	f7ff ffa1 	bl	8004906 <TIM_ETR_SetConfig>
 80049c4:	6822      	ldr	r2, [r4, #0]
 80049c6:	6893      	ldr	r3, [r2, #8]
 80049c8:	f443 4380 	orr.w	r3, r3, #16384	; 0x4000
 80049cc:	e008      	b.n	80049e0 <HAL_TIM_ConfigClockSource+0xc6>
 80049ce:	68cb      	ldr	r3, [r1, #12]
 80049d0:	e9d1 2101 	ldrd	r2, r1, [r1, #4]
 80049d4:	f7ff ff97 	bl	8004906 <TIM_ETR_SetConfig>
 80049d8:	6822      	ldr	r2, [r4, #0]
 80049da:	6893      	ldr	r3, [r2, #8]
 80049dc:	f043 0377 	orr.w	r3, r3, #119	; 0x77
 80049e0:	6093      	str	r3, [r2, #8]
 80049e2:	e7c4      	b.n	800496e <HAL_TIM_ConfigClockSource+0x54>
 80049e4:	684d      	ldr	r5, [r1, #4]
 80049e6:	68ce      	ldr	r6, [r1, #12]
 80049e8:	6a01      	ldr	r1, [r0, #32]
 80049ea:	f021 0110 	bic.w	r1, r1, #16
 80049ee:	6201      	str	r1, [r0, #32]
 80049f0:	6982      	ldr	r2, [r0, #24]
 80049f2:	6a03      	ldr	r3, [r0, #32]
 80049f4:	f422 4270 	bic.w	r2, r2, #61440	; 0xf000
 80049f8:	f023 03a0 	bic.w	r3, r3, #160	; 0xa0
 80049fc:	ea43 1305 	orr.w	r3, r3, r5, lsl #4
 8004a00:	ea42 3206 	orr.w	r2, r2, r6, lsl #12
 8004a04:	6182      	str	r2, [r0, #24]
 8004a06:	6203      	str	r3, [r0, #32]
 8004a08:	6883      	ldr	r3, [r0, #8]
 8004a0a:	f023 0370 	bic.w	r3, r3, #112	; 0x70
 8004a0e:	f043 0367 	orr.w	r3, r3, #103	; 0x67
 8004a12:	e7cb      	b.n	80049ac <HAL_TIM_ConfigClockSource+0x92>
 8004a14:	684a      	ldr	r2, [r1, #4]
 8004a16:	68ce      	ldr	r6, [r1, #12]
 8004a18:	6a01      	ldr	r1, [r0, #32]
 8004a1a:	6a05      	ldr	r5, [r0, #32]
 8004a1c:	f021 010a 	bic.w	r1, r1, #10
 8004a20:	f025 0501 	bic.w	r5, r5, #1
 8004a24:	6205      	str	r5, [r0, #32]
 8004a26:	6983      	ldr	r3, [r0, #24]
 8004a28:	430a      	orrs	r2, r1
 8004a2a:	f023 03f0 	bic.w	r3, r3, #240	; 0xf0
 8004a2e:	ea43 1306 	orr.w	r3, r3, r6, lsl #4
 8004a32:	6183      	str	r3, [r0, #24]
 8004a34:	6202      	str	r2, [r0, #32]
 8004a36:	6883      	ldr	r3, [r0, #8]
 8004a38:	f023 0370 	bic.w	r3, r3, #112	; 0x70
 8004a3c:	f043 0347 	orr.w	r3, r3, #71	; 0x47
 8004a40:	e7b4      	b.n	80049ac <HAL_TIM_ConfigClockSource+0x92>

08004a42 <TIM_CCxChannelCmd>:
 8004a42:	b510      	push	{r4, lr}
 8004a44:	2401      	movs	r4, #1
 8004a46:	6a03      	ldr	r3, [r0, #32]
 8004a48:	f001 011f 	and.w	r1, r1, #31
 8004a4c:	408c      	lsls	r4, r1
 8004a4e:	ea23 0304 	bic.w	r3, r3, r4
 8004a52:	6203      	str	r3, [r0, #32]
 8004a54:	6a03      	ldr	r3, [r0, #32]
 8004a56:	408a      	lsls	r2, r1
 8004a58:	431a      	orrs	r2, r3
 8004a5a:	6202      	str	r2, [r0, #32]
 8004a5c:	bd10      	pop	{r4, pc}
	...

08004a60 <HAL_TIM_OC_Start>:
 8004a60:	b510      	push	{r4, lr}
 8004a62:	4604      	mov	r4, r0
 8004a64:	b929      	cbnz	r1, 8004a72 <HAL_TIM_OC_Start+0x12>
 8004a66:	f890 303e 	ldrb.w	r3, [r0, #62]	; 0x3e
 8004a6a:	2b01      	cmp	r3, #1
 8004a6c:	d021      	beq.n	8004ab2 <HAL_TIM_OC_Start+0x52>
 8004a6e:	2001      	movs	r0, #1
 8004a70:	bd10      	pop	{r4, pc}
 8004a72:	2904      	cmp	r1, #4
 8004a74:	d107      	bne.n	8004a86 <HAL_TIM_OC_Start+0x26>
 8004a76:	f890 303f 	ldrb.w	r3, [r0, #63]	; 0x3f
 8004a7a:	2b01      	cmp	r3, #1
 8004a7c:	d1f7      	bne.n	8004a6e <HAL_TIM_OC_Start+0xe>
 8004a7e:	2302      	movs	r3, #2
 8004a80:	f884 303f 	strb.w	r3, [r4, #63]	; 0x3f
 8004a84:	e018      	b.n	8004ab8 <HAL_TIM_OC_Start+0x58>
 8004a86:	2908      	cmp	r1, #8
 8004a88:	d107      	bne.n	8004a9a <HAL_TIM_OC_Start+0x3a>
 8004a8a:	f890 3040 	ldrb.w	r3, [r0, #64]	; 0x40
 8004a8e:	2b01      	cmp	r3, #1
 8004a90:	d1ed      	bne.n	8004a6e <HAL_TIM_OC_Start+0xe>
 8004a92:	2302      	movs	r3, #2
 8004a94:	f884 3040 	strb.w	r3, [r4, #64]	; 0x40
 8004a98:	e00e      	b.n	8004ab8 <HAL_TIM_OC_Start+0x58>
 8004a9a:	f890 3041 	ldrb.w	r3, [r0, #65]	; 0x41
 8004a9e:	2b01      	cmp	r3, #1
 8004aa0:	d1e5      	bne.n	8004a6e <HAL_TIM_OC_Start+0xe>
 8004aa2:	2904      	cmp	r1, #4
 8004aa4:	d0eb      	beq.n	8004a7e <HAL_TIM_OC_Start+0x1e>
 8004aa6:	2908      	cmp	r1, #8
 8004aa8:	d0f3      	beq.n	8004a92 <HAL_TIM_OC_Start+0x32>
 8004aaa:	2302      	movs	r3, #2
 8004aac:	f880 3041 	strb.w	r3, [r0, #65]	; 0x41
 8004ab0:	e002      	b.n	8004ab8 <HAL_TIM_OC_Start+0x58>
 8004ab2:	2302      	movs	r3, #2
 8004ab4:	f880 303e 	strb.w	r3, [r0, #62]	; 0x3e
 8004ab8:	2201      	movs	r2, #1
 8004aba:	6820      	ldr	r0, [r4, #0]
 8004abc:	f7ff ffc1 	bl	8004a42 <TIM_CCxChannelCmd>
 8004ac0:	6823      	ldr	r3, [r4, #0]
 8004ac2:	4a0e      	ldr	r2, [pc, #56]	; (8004afc <HAL_TIM_OC_Start+0x9c>)
 8004ac4:	4293      	cmp	r3, r2
 8004ac6:	d10a      	bne.n	8004ade <HAL_TIM_OC_Start+0x7e>
 8004ac8:	6c5a      	ldr	r2, [r3, #68]	; 0x44
 8004aca:	f442 4200 	orr.w	r2, r2, #32768	; 0x8000
 8004ace:	645a      	str	r2, [r3, #68]	; 0x44
 8004ad0:	689a      	ldr	r2, [r3, #8]
 8004ad2:	f002 0207 	and.w	r2, r2, #7
 8004ad6:	2a06      	cmp	r2, #6
 8004ad8:	d10b      	bne.n	8004af2 <HAL_TIM_OC_Start+0x92>
 8004ada:	2000      	movs	r0, #0
 8004adc:	e7c8      	b.n	8004a70 <HAL_TIM_OC_Start+0x10>
 8004ade:	f1b3 4f80 	cmp.w	r3, #1073741824	; 0x40000000
 8004ae2:	d0f5      	beq.n	8004ad0 <HAL_TIM_OC_Start+0x70>
 8004ae4:	4a06      	ldr	r2, [pc, #24]	; (8004b00 <HAL_TIM_OC_Start+0xa0>)
 8004ae6:	4293      	cmp	r3, r2
 8004ae8:	d0f2      	beq.n	8004ad0 <HAL_TIM_OC_Start+0x70>
 8004aea:	f502 6280 	add.w	r2, r2, #1024	; 0x400
 8004aee:	4293      	cmp	r3, r2
 8004af0:	d0ee      	beq.n	8004ad0 <HAL_TIM_OC_Start+0x70>
 8004af2:	681a      	ldr	r2, [r3, #0]
 8004af4:	f042 0201 	orr.w	r2, r2, #1
 8004af8:	601a      	str	r2, [r3, #0]
 8004afa:	e7ee      	b.n	8004ada <HAL_TIM_OC_Start+0x7a>
 8004afc:	40012c00 	.word	0x40012c00
 8004b00:	40000400 	.word	0x40000400

08004b04 <HAL_TIM_PWM_Start>:
 8004b04:	f7ff bfac 	b.w	8004a60 <HAL_TIM_OC_Start>

08004b08 <HAL_TIMEx_MasterConfigSynchronization>:
 8004b08:	b530      	push	{r4, r5, lr}
 8004b0a:	f890 303c 	ldrb.w	r3, [r0, #60]	; 0x3c
 8004b0e:	4602      	mov	r2, r0
 8004b10:	2b01      	cmp	r3, #1
 8004b12:	f04f 0002 	mov.w	r0, #2
 8004b16:	d022      	beq.n	8004b5e <HAL_TIMEx_MasterConfigSynchronization+0x56>
 8004b18:	6813      	ldr	r3, [r2, #0]
 8004b1a:	f882 003d 	strb.w	r0, [r2, #61]	; 0x3d
 8004b1e:	685c      	ldr	r4, [r3, #4]
 8004b20:	680d      	ldr	r5, [r1, #0]
 8004b22:	f024 0470 	bic.w	r4, r4, #112	; 0x70
 8004b26:	432c      	orrs	r4, r5
 8004b28:	6898      	ldr	r0, [r3, #8]
 8004b2a:	605c      	str	r4, [r3, #4]
 8004b2c:	4c0c      	ldr	r4, [pc, #48]	; (8004b60 <HAL_TIMEx_MasterConfigSynchronization+0x58>)
 8004b2e:	42a3      	cmp	r3, r4
 8004b30:	d00a      	beq.n	8004b48 <HAL_TIMEx_MasterConfigSynchronization+0x40>
 8004b32:	f1b3 4f80 	cmp.w	r3, #1073741824	; 0x40000000
 8004b36:	d007      	beq.n	8004b48 <HAL_TIMEx_MasterConfigSynchronization+0x40>
 8004b38:	f5a4 3494 	sub.w	r4, r4, #75776	; 0x12800
 8004b3c:	42a3      	cmp	r3, r4
 8004b3e:	d003      	beq.n	8004b48 <HAL_TIMEx_MasterConfigSynchronization+0x40>
 8004b40:	f504 6480 	add.w	r4, r4, #1024	; 0x400
 8004b44:	42a3      	cmp	r3, r4
 8004b46:	d104      	bne.n	8004b52 <HAL_TIMEx_MasterConfigSynchronization+0x4a>
 8004b48:	6849      	ldr	r1, [r1, #4]
 8004b4a:	f020 0080 	bic.w	r0, r0, #128	; 0x80
 8004b4e:	4301      	orrs	r1, r0
 8004b50:	6099      	str	r1, [r3, #8]
 8004b52:	2301      	movs	r3, #1
 8004b54:	2000      	movs	r0, #0
 8004b56:	f882 303d 	strb.w	r3, [r2, #61]	; 0x3d
 8004b5a:	f882 003c 	strb.w	r0, [r2, #60]	; 0x3c
 8004b5e:	bd30      	pop	{r4, r5, pc}
 8004b60:	40012c00 	.word	0x40012c00

08004b64 <UART_EndRxTransfer>:
 8004b64:	6803      	ldr	r3, [r0, #0]
 8004b66:	68da      	ldr	r2, [r3, #12]
 8004b68:	f422 7290 	bic.w	r2, r2, #288	; 0x120
 8004b6c:	60da      	str	r2, [r3, #12]
 8004b6e:	695a      	ldr	r2, [r3, #20]
 8004b70:	f022 0201 	bic.w	r2, r2, #1
 8004b74:	615a      	str	r2, [r3, #20]
 8004b76:	6b02      	ldr	r2, [r0, #48]	; 0x30
 8004b78:	2a01      	cmp	r2, #1
 8004b7a:	bf02      	ittt	eq
 8004b7c:	68da      	ldreq	r2, [r3, #12]
 8004b7e:	f022 0210 	biceq.w	r2, r2, #16
 8004b82:	60da      	streq	r2, [r3, #12]
 8004b84:	2320      	movs	r3, #32
 8004b86:	f880 303e 	strb.w	r3, [r0, #62]	; 0x3e
 8004b8a:	2300      	movs	r3, #0
 8004b8c:	6303      	str	r3, [r0, #48]	; 0x30
 8004b8e:	4770      	bx	lr

08004b90 <UART_SetConfig>:
 8004b90:	b510      	push	{r4, lr}
 8004b92:	4604      	mov	r4, r0
 8004b94:	6803      	ldr	r3, [r0, #0]
 8004b96:	68c1      	ldr	r1, [r0, #12]
 8004b98:	691a      	ldr	r2, [r3, #16]
 8004b9a:	f422 5240 	bic.w	r2, r2, #12288	; 0x3000
 8004b9e:	430a      	orrs	r2, r1
 8004ba0:	611a      	str	r2, [r3, #16]
 8004ba2:	6882      	ldr	r2, [r0, #8]
 8004ba4:	6900      	ldr	r0, [r0, #16]
 8004ba6:	68d9      	ldr	r1, [r3, #12]
 8004ba8:	4302      	orrs	r2, r0
 8004baa:	6960      	ldr	r0, [r4, #20]
 8004bac:	f421 51b0 	bic.w	r1, r1, #5632	; 0x1600
 8004bb0:	f021 010c 	bic.w	r1, r1, #12
 8004bb4:	4302      	orrs	r2, r0
 8004bb6:	430a      	orrs	r2, r1
 8004bb8:	60da      	str	r2, [r3, #12]
 8004bba:	695a      	ldr	r2, [r3, #20]
 8004bbc:	69a1      	ldr	r1, [r4, #24]
 8004bbe:	f422 7240 	bic.w	r2, r2, #768	; 0x300
 8004bc2:	430a      	orrs	r2, r1
 8004bc4:	615a      	str	r2, [r3, #20]
 8004bc6:	4a0e      	ldr	r2, [pc, #56]	; (8004c00 <UART_SetConfig+0x70>)
 8004bc8:	4293      	cmp	r3, r2
 8004bca:	d115      	bne.n	8004bf8 <UART_SetConfig+0x68>
 8004bcc:	f7ff fcfe 	bl	80045cc <HAL_RCC_GetPCLK2Freq>
 8004bd0:	2319      	movs	r3, #25
 8004bd2:	4343      	muls	r3, r0
 8004bd4:	6862      	ldr	r2, [r4, #4]
 8004bd6:	6820      	ldr	r0, [r4, #0]
 8004bd8:	0092      	lsls	r2, r2, #2
 8004bda:	fbb3 f3f2 	udiv	r3, r3, r2
 8004bde:	2264      	movs	r2, #100	; 0x64
 8004be0:	fbb3 f1f2 	udiv	r1, r3, r2
 8004be4:	fb02 3311 	mls	r3, r2, r1, r3
 8004be8:	011b      	lsls	r3, r3, #4
 8004bea:	3332      	adds	r3, #50	; 0x32
 8004bec:	fbb3 f3f2 	udiv	r3, r3, r2
 8004bf0:	eb03 1301 	add.w	r3, r3, r1, lsl #4
 8004bf4:	6083      	str	r3, [r0, #8]
 8004bf6:	bd10      	pop	{r4, pc}
 8004bf8:	f7ff fcd8 	bl	80045ac <HAL_RCC_GetPCLK1Freq>
 8004bfc:	e7e8      	b.n	8004bd0 <UART_SetConfig+0x40>
 8004bfe:	bf00      	nop
 8004c00:	40013800 	.word	0x40013800

08004c04 <UART_WaitOnFlagUntilTimeout.constprop.0>:
 8004c04:	b5f8      	push	{r3, r4, r5, r6, r7, lr}
 8004c06:	4604      	mov	r4, r0
 8004c08:	460e      	mov	r6, r1
 8004c0a:	4617      	mov	r7, r2
 8004c0c:	461d      	mov	r5, r3
 8004c0e:	6822      	ldr	r2, [r4, #0]
 8004c10:	6813      	ldr	r3, [r2, #0]
 8004c12:	ea36 0303 	bics.w	r3, r6, r3
 8004c16:	d101      	bne.n	8004c1c <UART_WaitOnFlagUntilTimeout.constprop.0+0x18>
 8004c18:	2000      	movs	r0, #0
 8004c1a:	e014      	b.n	8004c46 <UART_WaitOnFlagUntilTimeout.constprop.0+0x42>
 8004c1c:	1c6b      	adds	r3, r5, #1
 8004c1e:	d0f7      	beq.n	8004c10 <UART_WaitOnFlagUntilTimeout.constprop.0+0xc>
 8004c20:	b995      	cbnz	r5, 8004c48 <UART_WaitOnFlagUntilTimeout.constprop.0+0x44>
 8004c22:	6823      	ldr	r3, [r4, #0]
 8004c24:	2003      	movs	r0, #3
 8004c26:	68da      	ldr	r2, [r3, #12]
 8004c28:	f422 72d0 	bic.w	r2, r2, #416	; 0x1a0
 8004c2c:	60da      	str	r2, [r3, #12]
 8004c2e:	695a      	ldr	r2, [r3, #20]
 8004c30:	f022 0201 	bic.w	r2, r2, #1
 8004c34:	615a      	str	r2, [r3, #20]
 8004c36:	2320      	movs	r3, #32
 8004c38:	f884 303d 	strb.w	r3, [r4, #61]	; 0x3d
 8004c3c:	f884 303e 	strb.w	r3, [r4, #62]	; 0x3e
 8004c40:	2300      	movs	r3, #0
 8004c42:	f884 303c 	strb.w	r3, [r4, #60]	; 0x3c
 8004c46:	bdf8      	pop	{r3, r4, r5, r6, r7, pc}
 8004c48:	f7fe ff5c 	bl	8003b04 <HAL_GetTick>
 8004c4c:	1bc0      	subs	r0, r0, r7
 8004c4e:	4285      	cmp	r5, r0
 8004c50:	d2dd      	bcs.n	8004c0e <UART_WaitOnFlagUntilTimeout.constprop.0+0xa>
 8004c52:	e7e6      	b.n	8004c22 <UART_WaitOnFlagUntilTimeout.constprop.0+0x1e>

08004c54 <HAL_UART_Init>:
 8004c54:	b510      	push	{r4, lr}
 8004c56:	4604      	mov	r4, r0
 8004c58:	b340      	cbz	r0, 8004cac <HAL_UART_Init+0x58>
 8004c5a:	f890 303d 	ldrb.w	r3, [r0, #61]	; 0x3d
 8004c5e:	f003 02ff 	and.w	r2, r3, #255	; 0xff
 8004c62:	b91b      	cbnz	r3, 8004c6c <HAL_UART_Init+0x18>
 8004c64:	f880 203c 	strb.w	r2, [r0, #60]	; 0x3c
 8004c68:	f7fe fe46 	bl	80038f8 <HAL_UART_MspInit>
 8004c6c:	2324      	movs	r3, #36	; 0x24
 8004c6e:	6822      	ldr	r2, [r4, #0]
 8004c70:	f884 303d 	strb.w	r3, [r4, #61]	; 0x3d
 8004c74:	68d3      	ldr	r3, [r2, #12]
 8004c76:	4620      	mov	r0, r4
 8004c78:	f423 5300 	bic.w	r3, r3, #8192	; 0x2000
 8004c7c:	60d3      	str	r3, [r2, #12]
 8004c7e:	f7ff ff87 	bl	8004b90 <UART_SetConfig>
 8004c82:	6823      	ldr	r3, [r4, #0]
 8004c84:	2000      	movs	r0, #0
 8004c86:	691a      	ldr	r2, [r3, #16]
 8004c88:	f422 4290 	bic.w	r2, r2, #18432	; 0x4800
 8004c8c:	611a      	str	r2, [r3, #16]
 8004c8e:	695a      	ldr	r2, [r3, #20]
 8004c90:	f022 022a 	bic.w	r2, r2, #42	; 0x2a
 8004c94:	615a      	str	r2, [r3, #20]
 8004c96:	68da      	ldr	r2, [r3, #12]
 8004c98:	f442 5200 	orr.w	r2, r2, #8192	; 0x2000
 8004c9c:	60da      	str	r2, [r3, #12]
 8004c9e:	2320      	movs	r3, #32
 8004ca0:	6420      	str	r0, [r4, #64]	; 0x40
 8004ca2:	f884 303d 	strb.w	r3, [r4, #61]	; 0x3d
 8004ca6:	f884 303e 	strb.w	r3, [r4, #62]	; 0x3e
 8004caa:	bd10      	pop	{r4, pc}
 8004cac:	2001      	movs	r0, #1
 8004cae:	e7fc      	b.n	8004caa <HAL_UART_Init+0x56>

08004cb0 <HAL_UART_Transmit>:
 8004cb0:	e92d 43f8 	stmdb	sp!, {r3, r4, r5, r6, r7, r8, r9, lr}
 8004cb4:	4699      	mov	r9, r3
 8004cb6:	f890 303d 	ldrb.w	r3, [r0, #61]	; 0x3d
 8004cba:	4604      	mov	r4, r0
 8004cbc:	2b20      	cmp	r3, #32
 8004cbe:	460e      	mov	r6, r1
 8004cc0:	4617      	mov	r7, r2
 8004cc2:	d148      	bne.n	8004d56 <HAL_UART_Transmit+0xa6>
 8004cc4:	2900      	cmp	r1, #0
 8004cc6:	d044      	beq.n	8004d52 <HAL_UART_Transmit+0xa2>
 8004cc8:	2a00      	cmp	r2, #0
 8004cca:	d042      	beq.n	8004d52 <HAL_UART_Transmit+0xa2>
 8004ccc:	f890 303c 	ldrb.w	r3, [r0, #60]	; 0x3c
 8004cd0:	2b01      	cmp	r3, #1
 8004cd2:	d040      	beq.n	8004d56 <HAL_UART_Transmit+0xa6>
 8004cd4:	2301      	movs	r3, #1
 8004cd6:	2500      	movs	r5, #0
 8004cd8:	f880 303c 	strb.w	r3, [r0, #60]	; 0x3c
 8004cdc:	2321      	movs	r3, #33	; 0x21
 8004cde:	6405      	str	r5, [r0, #64]	; 0x40
 8004ce0:	f880 303d 	strb.w	r3, [r0, #61]	; 0x3d
 8004ce4:	f7fe ff0e 	bl	8003b04 <HAL_GetTick>
 8004ce8:	68a3      	ldr	r3, [r4, #8]
 8004cea:	4680      	mov	r8, r0
 8004cec:	f5b3 5f80 	cmp.w	r3, #4096	; 0x1000
 8004cf0:	84a7      	strh	r7, [r4, #36]	; 0x24
 8004cf2:	84e7      	strh	r7, [r4, #38]	; 0x26
 8004cf4:	d103      	bne.n	8004cfe <HAL_UART_Transmit+0x4e>
 8004cf6:	6923      	ldr	r3, [r4, #16]
 8004cf8:	b90b      	cbnz	r3, 8004cfe <HAL_UART_Transmit+0x4e>
 8004cfa:	4635      	mov	r5, r6
 8004cfc:	461e      	mov	r6, r3
 8004cfe:	2300      	movs	r3, #0
 8004d00:	f884 303c 	strb.w	r3, [r4, #60]	; 0x3c
 8004d04:	8ce3      	ldrh	r3, [r4, #38]	; 0x26
 8004d06:	b29b      	uxth	r3, r3
 8004d08:	b953      	cbnz	r3, 8004d20 <HAL_UART_Transmit+0x70>
 8004d0a:	464b      	mov	r3, r9
 8004d0c:	4642      	mov	r2, r8
 8004d0e:	2140      	movs	r1, #64	; 0x40
 8004d10:	4620      	mov	r0, r4
 8004d12:	f7ff ff77 	bl	8004c04 <UART_WaitOnFlagUntilTimeout.constprop.0>
 8004d16:	b950      	cbnz	r0, 8004d2e <HAL_UART_Transmit+0x7e>
 8004d18:	2320      	movs	r3, #32
 8004d1a:	f884 303d 	strb.w	r3, [r4, #61]	; 0x3d
 8004d1e:	e007      	b.n	8004d30 <HAL_UART_Transmit+0x80>
 8004d20:	464b      	mov	r3, r9
 8004d22:	4642      	mov	r2, r8
 8004d24:	2180      	movs	r1, #128	; 0x80
 8004d26:	4620      	mov	r0, r4
 8004d28:	f7ff ff6c 	bl	8004c04 <UART_WaitOnFlagUntilTimeout.constprop.0>
 8004d2c:	b110      	cbz	r0, 8004d34 <HAL_UART_Transmit+0x84>
 8004d2e:	2003      	movs	r0, #3
 8004d30:	e8bd 83f8 	ldmia.w	sp!, {r3, r4, r5, r6, r7, r8, r9, pc}
 8004d34:	6822      	ldr	r2, [r4, #0]
 8004d36:	b94e      	cbnz	r6, 8004d4c <HAL_UART_Transmit+0x9c>
 8004d38:	f835 3b02 	ldrh.w	r3, [r5], #2
 8004d3c:	f3c3 0308 	ubfx	r3, r3, #0, #9
 8004d40:	6053      	str	r3, [r2, #4]
 8004d42:	8ce1      	ldrh	r1, [r4, #38]	; 0x26
 8004d44:	3901      	subs	r1, #1
 8004d46:	b289      	uxth	r1, r1
 8004d48:	84e1      	strh	r1, [r4, #38]	; 0x26
 8004d4a:	e7db      	b.n	8004d04 <HAL_UART_Transmit+0x54>
 8004d4c:	f816 3b01 	ldrb.w	r3, [r6], #1
 8004d50:	e7f6      	b.n	8004d40 <HAL_UART_Transmit+0x90>
 8004d52:	2001      	movs	r0, #1
 8004d54:	e7ec      	b.n	8004d30 <HAL_UART_Transmit+0x80>
 8004d56:	2002      	movs	r0, #2
 8004d58:	e7ea      	b.n	8004d30 <HAL_UART_Transmit+0x80>

08004d5a <HAL_UART_TxCpltCallback>:
 8004d5a:	4770      	bx	lr

08004d5c <HAL_UART_ErrorCallback>:
 8004d5c:	4770      	bx	lr

08004d5e <UART_DMAAbortOnError>:
 8004d5e:	b508      	push	{r3, lr}
 8004d60:	2300      	movs	r3, #0
 8004d62:	6a40      	ldr	r0, [r0, #36]	; 0x24
 8004d64:	85c3      	strh	r3, [r0, #46]	; 0x2e
 8004d66:	84c3      	strh	r3, [r0, #38]	; 0x26
 8004d68:	f7ff fff8 	bl	8004d5c <HAL_UART_ErrorCallback>
 8004d6c:	bd08      	pop	{r3, pc}

08004d6e <HAL_UARTEx_RxEventCallback>:
 8004d6e:	4770      	bx	lr

08004d70 <UART_Receive_IT.part.0.isra.0>:
 8004d70:	b507      	push	{r0, r1, r2, lr}
 8004d72:	6881      	ldr	r1, [r0, #8]
 8004d74:	6a83      	ldr	r3, [r0, #40]	; 0x28
 8004d76:	f5b1 5f80 	cmp.w	r1, #4096	; 0x1000
 8004d7a:	6802      	ldr	r2, [r0, #0]
 8004d7c:	d134      	bne.n	8004de8 <UART_Receive_IT.part.0.isra.0+0x78>
 8004d7e:	6901      	ldr	r1, [r0, #16]
 8004d80:	2900      	cmp	r1, #0
 8004d82:	d134      	bne.n	8004dee <UART_Receive_IT.part.0.isra.0+0x7e>
 8004d84:	6852      	ldr	r2, [r2, #4]
 8004d86:	f3c2 0208 	ubfx	r2, r2, #0, #9
 8004d8a:	f823 2b02 	strh.w	r2, [r3], #2
 8004d8e:	8dc2      	ldrh	r2, [r0, #46]	; 0x2e
 8004d90:	6283      	str	r3, [r0, #40]	; 0x28
 8004d92:	3a01      	subs	r2, #1
 8004d94:	b292      	uxth	r2, r2
 8004d96:	85c2      	strh	r2, [r0, #46]	; 0x2e
 8004d98:	bb1a      	cbnz	r2, 8004de2 <UART_Receive_IT.part.0.isra.0+0x72>
 8004d9a:	6803      	ldr	r3, [r0, #0]
 8004d9c:	68d9      	ldr	r1, [r3, #12]
 8004d9e:	f021 0120 	bic.w	r1, r1, #32
 8004da2:	60d9      	str	r1, [r3, #12]
 8004da4:	68d9      	ldr	r1, [r3, #12]
 8004da6:	f421 7180 	bic.w	r1, r1, #256	; 0x100
 8004daa:	60d9      	str	r1, [r3, #12]
 8004dac:	6959      	ldr	r1, [r3, #20]
 8004dae:	f021 0101 	bic.w	r1, r1, #1
 8004db2:	6159      	str	r1, [r3, #20]
 8004db4:	2120      	movs	r1, #32
 8004db6:	f880 103e 	strb.w	r1, [r0, #62]	; 0x3e
 8004dba:	6b01      	ldr	r1, [r0, #48]	; 0x30
 8004dbc:	2901      	cmp	r1, #1
 8004dbe:	d120      	bne.n	8004e02 <UART_Receive_IT.part.0.isra.0+0x92>
 8004dc0:	6302      	str	r2, [r0, #48]	; 0x30
 8004dc2:	68d9      	ldr	r1, [r3, #12]
 8004dc4:	f021 0110 	bic.w	r1, r1, #16
 8004dc8:	60d9      	str	r1, [r3, #12]
 8004dca:	6819      	ldr	r1, [r3, #0]
 8004dcc:	06c9      	lsls	r1, r1, #27
 8004dce:	d505      	bpl.n	8004ddc <UART_Receive_IT.part.0.isra.0+0x6c>
 8004dd0:	9201      	str	r2, [sp, #4]
 8004dd2:	681a      	ldr	r2, [r3, #0]
 8004dd4:	9201      	str	r2, [sp, #4]
 8004dd6:	685b      	ldr	r3, [r3, #4]
 8004dd8:	9301      	str	r3, [sp, #4]
 8004dda:	9b01      	ldr	r3, [sp, #4]
 8004ddc:	8d81      	ldrh	r1, [r0, #44]	; 0x2c
 8004dde:	f7ff ffc6 	bl	8004d6e <HAL_UARTEx_RxEventCallback>
 8004de2:	b003      	add	sp, #12
 8004de4:	f85d fb04 	ldr.w	pc, [sp], #4
 8004de8:	b939      	cbnz	r1, 8004dfa <UART_Receive_IT.part.0.isra.0+0x8a>
 8004dea:	6901      	ldr	r1, [r0, #16]
 8004dec:	b929      	cbnz	r1, 8004dfa <UART_Receive_IT.part.0.isra.0+0x8a>
 8004dee:	6852      	ldr	r2, [r2, #4]
 8004df0:	b2d2      	uxtb	r2, r2
 8004df2:	701a      	strb	r2, [r3, #0]
 8004df4:	6a83      	ldr	r3, [r0, #40]	; 0x28
 8004df6:	3301      	adds	r3, #1
 8004df8:	e7c9      	b.n	8004d8e <UART_Receive_IT.part.0.isra.0+0x1e>
 8004dfa:	6852      	ldr	r2, [r2, #4]
 8004dfc:	f002 027f 	and.w	r2, r2, #127	; 0x7f
 8004e00:	e7f7      	b.n	8004df2 <UART_Receive_IT.part.0.isra.0+0x82>
 8004e02:	f7fc fb89 	bl	8001518 <HAL_UART_RxCpltCallback>
 8004e06:	e7ec      	b.n	8004de2 <UART_Receive_IT.part.0.isra.0+0x72>

08004e08 <HAL_UART_IRQHandler>:
 8004e08:	6803      	ldr	r3, [r0, #0]
 8004e0a:	b537      	push	{r0, r1, r2, r4, r5, lr}
 8004e0c:	681a      	ldr	r2, [r3, #0]
 8004e0e:	4604      	mov	r4, r0
 8004e10:	f012 0f0f 	tst.w	r2, #15
 8004e14:	68d9      	ldr	r1, [r3, #12]
 8004e16:	695d      	ldr	r5, [r3, #20]
 8004e18:	d10c      	bne.n	8004e34 <HAL_UART_IRQHandler+0x2c>
 8004e1a:	0695      	lsls	r5, r2, #26
 8004e1c:	d567      	bpl.n	8004eee <HAL_UART_IRQHandler+0xe6>
 8004e1e:	068d      	lsls	r5, r1, #26
 8004e20:	d565      	bpl.n	8004eee <HAL_UART_IRQHandler+0xe6>
 8004e22:	f890 303e 	ldrb.w	r3, [r0, #62]	; 0x3e
 8004e26:	2b22      	cmp	r3, #34	; 0x22
 8004e28:	d15b      	bne.n	8004ee2 <HAL_UART_IRQHandler+0xda>
 8004e2a:	b003      	add	sp, #12
 8004e2c:	e8bd 4030 	ldmia.w	sp!, {r4, r5, lr}
 8004e30:	f7ff bf9e 	b.w	8004d70 <UART_Receive_IT.part.0.isra.0>
 8004e34:	f005 0001 	and.w	r0, r5, #1
 8004e38:	f401 7590 	and.w	r5, r1, #288	; 0x120
 8004e3c:	4305      	orrs	r5, r0
 8004e3e:	d056      	beq.n	8004eee <HAL_UART_IRQHandler+0xe6>
 8004e40:	07d5      	lsls	r5, r2, #31
 8004e42:	d505      	bpl.n	8004e50 <HAL_UART_IRQHandler+0x48>
 8004e44:	05cb      	lsls	r3, r1, #23
 8004e46:	bf42      	ittt	mi
 8004e48:	6c23      	ldrmi	r3, [r4, #64]	; 0x40
 8004e4a:	f043 0301 	orrmi.w	r3, r3, #1
 8004e4e:	6423      	strmi	r3, [r4, #64]	; 0x40
 8004e50:	0755      	lsls	r5, r2, #29
 8004e52:	d504      	bpl.n	8004e5e <HAL_UART_IRQHandler+0x56>
 8004e54:	b118      	cbz	r0, 8004e5e <HAL_UART_IRQHandler+0x56>
 8004e56:	6c23      	ldr	r3, [r4, #64]	; 0x40
 8004e58:	f043 0302 	orr.w	r3, r3, #2
 8004e5c:	6423      	str	r3, [r4, #64]	; 0x40
 8004e5e:	0793      	lsls	r3, r2, #30
 8004e60:	d504      	bpl.n	8004e6c <HAL_UART_IRQHandler+0x64>
 8004e62:	b118      	cbz	r0, 8004e6c <HAL_UART_IRQHandler+0x64>
 8004e64:	6c23      	ldr	r3, [r4, #64]	; 0x40
 8004e66:	f043 0304 	orr.w	r3, r3, #4
 8004e6a:	6423      	str	r3, [r4, #64]	; 0x40
 8004e6c:	0715      	lsls	r5, r2, #28
 8004e6e:	d507      	bpl.n	8004e80 <HAL_UART_IRQHandler+0x78>
 8004e70:	f001 0320 	and.w	r3, r1, #32
 8004e74:	4303      	orrs	r3, r0
 8004e76:	bf1e      	ittt	ne
 8004e78:	6c23      	ldrne	r3, [r4, #64]	; 0x40
 8004e7a:	f043 0308 	orrne.w	r3, r3, #8
 8004e7e:	6423      	strne	r3, [r4, #64]	; 0x40
 8004e80:	6c23      	ldr	r3, [r4, #64]	; 0x40
 8004e82:	b373      	cbz	r3, 8004ee2 <HAL_UART_IRQHandler+0xda>
 8004e84:	0692      	lsls	r2, r2, #26
 8004e86:	d508      	bpl.n	8004e9a <HAL_UART_IRQHandler+0x92>
 8004e88:	068b      	lsls	r3, r1, #26
 8004e8a:	d506      	bpl.n	8004e9a <HAL_UART_IRQHandler+0x92>
 8004e8c:	f894 303e 	ldrb.w	r3, [r4, #62]	; 0x3e
 8004e90:	2b22      	cmp	r3, #34	; 0x22
 8004e92:	d102      	bne.n	8004e9a <HAL_UART_IRQHandler+0x92>
 8004e94:	4620      	mov	r0, r4
 8004e96:	f7ff ff6b 	bl	8004d70 <UART_Receive_IT.part.0.isra.0>
 8004e9a:	6823      	ldr	r3, [r4, #0]
 8004e9c:	4620      	mov	r0, r4
 8004e9e:	695b      	ldr	r3, [r3, #20]
 8004ea0:	6c25      	ldr	r5, [r4, #64]	; 0x40
 8004ea2:	f003 0340 	and.w	r3, r3, #64	; 0x40
 8004ea6:	f005 0508 	and.w	r5, r5, #8
 8004eaa:	431d      	orrs	r5, r3
 8004eac:	d01b      	beq.n	8004ee6 <HAL_UART_IRQHandler+0xde>
 8004eae:	f7ff fe59 	bl	8004b64 <UART_EndRxTransfer>
 8004eb2:	6823      	ldr	r3, [r4, #0]
 8004eb4:	695a      	ldr	r2, [r3, #20]
 8004eb6:	0655      	lsls	r5, r2, #25
 8004eb8:	d510      	bpl.n	8004edc <HAL_UART_IRQHandler+0xd4>
 8004eba:	695a      	ldr	r2, [r3, #20]
 8004ebc:	6ba0      	ldr	r0, [r4, #56]	; 0x38
 8004ebe:	f022 0240 	bic.w	r2, r2, #64	; 0x40
 8004ec2:	615a      	str	r2, [r3, #20]
 8004ec4:	b150      	cbz	r0, 8004edc <HAL_UART_IRQHandler+0xd4>
 8004ec6:	4b53      	ldr	r3, [pc, #332]	; (8005014 <HAL_UART_IRQHandler+0x20c>)
 8004ec8:	6343      	str	r3, [r0, #52]	; 0x34
 8004eca:	f7fe fea5 	bl	8003c18 <HAL_DMA_Abort_IT>
 8004ece:	b140      	cbz	r0, 8004ee2 <HAL_UART_IRQHandler+0xda>
 8004ed0:	6ba0      	ldr	r0, [r4, #56]	; 0x38
 8004ed2:	6b43      	ldr	r3, [r0, #52]	; 0x34
 8004ed4:	b003      	add	sp, #12
 8004ed6:	e8bd 4030 	ldmia.w	sp!, {r4, r5, lr}
 8004eda:	4718      	bx	r3
 8004edc:	4620      	mov	r0, r4
 8004ede:	f7ff ff3d 	bl	8004d5c <HAL_UART_ErrorCallback>
 8004ee2:	b003      	add	sp, #12
 8004ee4:	bd30      	pop	{r4, r5, pc}
 8004ee6:	f7ff ff39 	bl	8004d5c <HAL_UART_ErrorCallback>
 8004eea:	6425      	str	r5, [r4, #64]	; 0x40
 8004eec:	e7f9      	b.n	8004ee2 <HAL_UART_IRQHandler+0xda>
 8004eee:	6b20      	ldr	r0, [r4, #48]	; 0x30
 8004ef0:	2801      	cmp	r0, #1
 8004ef2:	d155      	bne.n	8004fa0 <HAL_UART_IRQHandler+0x198>
 8004ef4:	06d0      	lsls	r0, r2, #27
 8004ef6:	d553      	bpl.n	8004fa0 <HAL_UART_IRQHandler+0x198>
 8004ef8:	06cd      	lsls	r5, r1, #27
 8004efa:	d551      	bpl.n	8004fa0 <HAL_UART_IRQHandler+0x198>
 8004efc:	2100      	movs	r1, #0
 8004efe:	9101      	str	r1, [sp, #4]
 8004f00:	681a      	ldr	r2, [r3, #0]
 8004f02:	9201      	str	r2, [sp, #4]
 8004f04:	685a      	ldr	r2, [r3, #4]
 8004f06:	9201      	str	r2, [sp, #4]
 8004f08:	9a01      	ldr	r2, [sp, #4]
 8004f0a:	695a      	ldr	r2, [r3, #20]
 8004f0c:	f012 0240 	ands.w	r2, r2, #64	; 0x40
 8004f10:	d02a      	beq.n	8004f68 <HAL_UART_IRQHandler+0x160>
 8004f12:	6ba0      	ldr	r0, [r4, #56]	; 0x38
 8004f14:	6802      	ldr	r2, [r0, #0]
 8004f16:	6852      	ldr	r2, [r2, #4]
 8004f18:	b292      	uxth	r2, r2
 8004f1a:	2a00      	cmp	r2, #0
 8004f1c:	d0e1      	beq.n	8004ee2 <HAL_UART_IRQHandler+0xda>
 8004f1e:	8da5      	ldrh	r5, [r4, #44]	; 0x2c
 8004f20:	4295      	cmp	r5, r2
 8004f22:	d9de      	bls.n	8004ee2 <HAL_UART_IRQHandler+0xda>
 8004f24:	85e2      	strh	r2, [r4, #46]	; 0x2e
 8004f26:	6982      	ldr	r2, [r0, #24]
 8004f28:	2a20      	cmp	r2, #32
 8004f2a:	d015      	beq.n	8004f58 <HAL_UART_IRQHandler+0x150>
 8004f2c:	68da      	ldr	r2, [r3, #12]
 8004f2e:	f422 7280 	bic.w	r2, r2, #256	; 0x100
 8004f32:	60da      	str	r2, [r3, #12]
 8004f34:	695a      	ldr	r2, [r3, #20]
 8004f36:	f022 0201 	bic.w	r2, r2, #1
 8004f3a:	615a      	str	r2, [r3, #20]
 8004f3c:	695a      	ldr	r2, [r3, #20]
 8004f3e:	f022 0240 	bic.w	r2, r2, #64	; 0x40
 8004f42:	615a      	str	r2, [r3, #20]
 8004f44:	2220      	movs	r2, #32
 8004f46:	f884 203e 	strb.w	r2, [r4, #62]	; 0x3e
 8004f4a:	6321      	str	r1, [r4, #48]	; 0x30
 8004f4c:	68da      	ldr	r2, [r3, #12]
 8004f4e:	f022 0210 	bic.w	r2, r2, #16
 8004f52:	60da      	str	r2, [r3, #12]
 8004f54:	f7fe fe42 	bl	8003bdc <HAL_DMA_Abort>
 8004f58:	8de3      	ldrh	r3, [r4, #46]	; 0x2e
 8004f5a:	8da1      	ldrh	r1, [r4, #44]	; 0x2c
 8004f5c:	1ac9      	subs	r1, r1, r3
 8004f5e:	b289      	uxth	r1, r1
 8004f60:	4620      	mov	r0, r4
 8004f62:	f7ff ff04 	bl	8004d6e <HAL_UARTEx_RxEventCallback>
 8004f66:	e7bc      	b.n	8004ee2 <HAL_UART_IRQHandler+0xda>
 8004f68:	8de1      	ldrh	r1, [r4, #46]	; 0x2e
 8004f6a:	b288      	uxth	r0, r1
 8004f6c:	8de1      	ldrh	r1, [r4, #46]	; 0x2e
 8004f6e:	b289      	uxth	r1, r1
 8004f70:	2900      	cmp	r1, #0
 8004f72:	d0b6      	beq.n	8004ee2 <HAL_UART_IRQHandler+0xda>
 8004f74:	8da1      	ldrh	r1, [r4, #44]	; 0x2c
 8004f76:	1a09      	subs	r1, r1, r0
 8004f78:	b289      	uxth	r1, r1
 8004f7a:	2900      	cmp	r1, #0
 8004f7c:	d0b1      	beq.n	8004ee2 <HAL_UART_IRQHandler+0xda>
 8004f7e:	68d8      	ldr	r0, [r3, #12]
 8004f80:	f420 7090 	bic.w	r0, r0, #288	; 0x120
 8004f84:	60d8      	str	r0, [r3, #12]
 8004f86:	6958      	ldr	r0, [r3, #20]
 8004f88:	f020 0001 	bic.w	r0, r0, #1
 8004f8c:	6158      	str	r0, [r3, #20]
 8004f8e:	2020      	movs	r0, #32
 8004f90:	f884 003e 	strb.w	r0, [r4, #62]	; 0x3e
 8004f94:	6322      	str	r2, [r4, #48]	; 0x30
 8004f96:	68da      	ldr	r2, [r3, #12]
 8004f98:	f022 0210 	bic.w	r2, r2, #16
 8004f9c:	60da      	str	r2, [r3, #12]
 8004f9e:	e7df      	b.n	8004f60 <HAL_UART_IRQHandler+0x158>
 8004fa0:	0610      	lsls	r0, r2, #24
 8004fa2:	d526      	bpl.n	8004ff2 <HAL_UART_IRQHandler+0x1ea>
 8004fa4:	060d      	lsls	r5, r1, #24
 8004fa6:	d524      	bpl.n	8004ff2 <HAL_UART_IRQHandler+0x1ea>
 8004fa8:	f894 203d 	ldrb.w	r2, [r4, #61]	; 0x3d
 8004fac:	2a21      	cmp	r2, #33	; 0x21
 8004fae:	d198      	bne.n	8004ee2 <HAL_UART_IRQHandler+0xda>
 8004fb0:	68a1      	ldr	r1, [r4, #8]
 8004fb2:	6a22      	ldr	r2, [r4, #32]
 8004fb4:	f5b1 5f80 	cmp.w	r1, #4096	; 0x1000
 8004fb8:	d116      	bne.n	8004fe8 <HAL_UART_IRQHandler+0x1e0>
 8004fba:	6921      	ldr	r1, [r4, #16]
 8004fbc:	b9a1      	cbnz	r1, 8004fe8 <HAL_UART_IRQHandler+0x1e0>
 8004fbe:	f832 1b02 	ldrh.w	r1, [r2], #2
 8004fc2:	f3c1 0108 	ubfx	r1, r1, #0, #9
 8004fc6:	6059      	str	r1, [r3, #4]
 8004fc8:	6222      	str	r2, [r4, #32]
 8004fca:	8ce2      	ldrh	r2, [r4, #38]	; 0x26
 8004fcc:	3a01      	subs	r2, #1
 8004fce:	b292      	uxth	r2, r2
 8004fd0:	84e2      	strh	r2, [r4, #38]	; 0x26
 8004fd2:	2a00      	cmp	r2, #0
 8004fd4:	d185      	bne.n	8004ee2 <HAL_UART_IRQHandler+0xda>
 8004fd6:	68da      	ldr	r2, [r3, #12]
 8004fd8:	f022 0280 	bic.w	r2, r2, #128	; 0x80
 8004fdc:	60da      	str	r2, [r3, #12]
 8004fde:	68da      	ldr	r2, [r3, #12]
 8004fe0:	f042 0240 	orr.w	r2, r2, #64	; 0x40
 8004fe4:	60da      	str	r2, [r3, #12]
 8004fe6:	e77c      	b.n	8004ee2 <HAL_UART_IRQHandler+0xda>
 8004fe8:	1c51      	adds	r1, r2, #1
 8004fea:	6221      	str	r1, [r4, #32]
 8004fec:	7812      	ldrb	r2, [r2, #0]
 8004fee:	605a      	str	r2, [r3, #4]
 8004ff0:	e7eb      	b.n	8004fca <HAL_UART_IRQHandler+0x1c2>
 8004ff2:	0650      	lsls	r0, r2, #25
 8004ff4:	f57f af75 	bpl.w	8004ee2 <HAL_UART_IRQHandler+0xda>
 8004ff8:	064a      	lsls	r2, r1, #25
 8004ffa:	f57f af72 	bpl.w	8004ee2 <HAL_UART_IRQHandler+0xda>
 8004ffe:	68da      	ldr	r2, [r3, #12]
 8005000:	4620      	mov	r0, r4
 8005002:	f022 0240 	bic.w	r2, r2, #64	; 0x40
 8005006:	60da      	str	r2, [r3, #12]
 8005008:	2320      	movs	r3, #32
 800500a:	f884 303d 	strb.w	r3, [r4, #61]	; 0x3d
 800500e:	f7ff fea4 	bl	8004d5a <HAL_UART_TxCpltCallback>
 8005012:	e766      	b.n	8004ee2 <HAL_UART_IRQHandler+0xda>
 8005014:	08004d5f 	.word	0x08004d5f

08005018 <UART_Start_Receive_IT>:
 8005018:	85c2      	strh	r2, [r0, #46]	; 0x2e
 800501a:	8582      	strh	r2, [r0, #44]	; 0x2c
 800501c:	6281      	str	r1, [r0, #40]	; 0x28
 800501e:	4603      	mov	r3, r0
 8005020:	2222      	movs	r2, #34	; 0x22
 8005022:	2000      	movs	r0, #0
 8005024:	6418      	str	r0, [r3, #64]	; 0x40
 8005026:	f883 003c 	strb.w	r0, [r3, #60]	; 0x3c
 800502a:	f883 203e 	strb.w	r2, [r3, #62]	; 0x3e
 800502e:	681b      	ldr	r3, [r3, #0]
 8005030:	68da      	ldr	r2, [r3, #12]
 8005032:	f442 7280 	orr.w	r2, r2, #256	; 0x100
 8005036:	60da      	str	r2, [r3, #12]
 8005038:	695a      	ldr	r2, [r3, #20]
 800503a:	f042 0201 	orr.w	r2, r2, #1
 800503e:	615a      	str	r2, [r3, #20]
 8005040:	68da      	ldr	r2, [r3, #12]
 8005042:	f042 0220 	orr.w	r2, r2, #32
 8005046:	60da      	str	r2, [r3, #12]
 8005048:	4770      	bx	lr

0800504a <HAL_UART_Receive_IT>:
 800504a:	b470      	push	{r4, r5, r6}
 800504c:	f890 603e 	ldrb.w	r6, [r0, #62]	; 0x3e
 8005050:	2e20      	cmp	r6, #32
 8005052:	d110      	bne.n	8005076 <HAL_UART_Receive_IT+0x2c>
 8005054:	b161      	cbz	r1, 8005070 <HAL_UART_Receive_IT+0x26>
 8005056:	b15a      	cbz	r2, 8005070 <HAL_UART_Receive_IT+0x26>
 8005058:	f890 403c 	ldrb.w	r4, [r0, #60]	; 0x3c
 800505c:	2c01      	cmp	r4, #1
 800505e:	d00a      	beq.n	8005076 <HAL_UART_Receive_IT+0x2c>
 8005060:	2401      	movs	r4, #1
 8005062:	f880 403c 	strb.w	r4, [r0, #60]	; 0x3c
 8005066:	2400      	movs	r4, #0
 8005068:	6304      	str	r4, [r0, #48]	; 0x30
 800506a:	bc70      	pop	{r4, r5, r6}
 800506c:	f7ff bfd4 	b.w	8005018 <UART_Start_Receive_IT>
 8005070:	2001      	movs	r0, #1
 8005072:	bc70      	pop	{r4, r5, r6}
 8005074:	4770      	bx	lr
 8005076:	2002      	movs	r0, #2
 8005078:	e7fb      	b.n	8005072 <HAL_UART_Receive_IT+0x28>
	...

0800507c <__errno>:
 800507c:	4b01      	ldr	r3, [pc, #4]	; (8005084 <__errno+0x8>)
 800507e:	6818      	ldr	r0, [r3, #0]
 8005080:	4770      	bx	lr
 8005082:	bf00      	nop
 8005084:	20000024 	.word	0x20000024

08005088 <__libc_init_array>:
 8005088:	b570      	push	{r4, r5, r6, lr}
 800508a:	2600      	movs	r6, #0
 800508c:	4d0c      	ldr	r5, [pc, #48]	; (80050c0 <__libc_init_array+0x38>)
 800508e:	4c0d      	ldr	r4, [pc, #52]	; (80050c4 <__libc_init_array+0x3c>)
 8005090:	1b64      	subs	r4, r4, r5
 8005092:	10a4      	asrs	r4, r4, #2
 8005094:	42a6      	cmp	r6, r4
 8005096:	d109      	bne.n	80050ac <__libc_init_array+0x24>
 8005098:	f001 f888 	bl	80061ac <_init>
 800509c:	2600      	movs	r6, #0
 800509e:	4d0a      	ldr	r5, [pc, #40]	; (80050c8 <__libc_init_array+0x40>)
 80050a0:	4c0a      	ldr	r4, [pc, #40]	; (80050cc <__libc_init_array+0x44>)
 80050a2:	1b64      	subs	r4, r4, r5
 80050a4:	10a4      	asrs	r4, r4, #2
 80050a6:	42a6      	cmp	r6, r4
 80050a8:	d105      	bne.n	80050b6 <__libc_init_array+0x2e>
 80050aa:	bd70      	pop	{r4, r5, r6, pc}
 80050ac:	f855 3b04 	ldr.w	r3, [r5], #4
 80050b0:	4798      	blx	r3
 80050b2:	3601      	adds	r6, #1
 80050b4:	e7ee      	b.n	8005094 <__libc_init_array+0xc>
 80050b6:	f855 3b04 	ldr.w	r3, [r5], #4
 80050ba:	4798      	blx	r3
 80050bc:	3601      	adds	r6, #1
 80050be:	e7f2      	b.n	80050a6 <__libc_init_array+0x1e>
 80050c0:	08006360 	.word	0x08006360
 80050c4:	08006360 	.word	0x08006360
 80050c8:	08006360 	.word	0x08006360
 80050cc:	08006364 	.word	0x08006364

080050d0 <memset>:
 80050d0:	4603      	mov	r3, r0
 80050d2:	4402      	add	r2, r0
 80050d4:	4293      	cmp	r3, r2
 80050d6:	d100      	bne.n	80050da <memset+0xa>
 80050d8:	4770      	bx	lr
 80050da:	f803 1b01 	strb.w	r1, [r3], #1
 80050de:	e7f9      	b.n	80050d4 <memset+0x4>

080050e0 <iprintf>:
 80050e0:	b40f      	push	{r0, r1, r2, r3}
 80050e2:	4b0a      	ldr	r3, [pc, #40]	; (800510c <iprintf+0x2c>)
 80050e4:	b513      	push	{r0, r1, r4, lr}
 80050e6:	681c      	ldr	r4, [r3, #0]
 80050e8:	b124      	cbz	r4, 80050f4 <iprintf+0x14>
 80050ea:	69a3      	ldr	r3, [r4, #24]
 80050ec:	b913      	cbnz	r3, 80050f4 <iprintf+0x14>
 80050ee:	4620      	mov	r0, r4
 80050f0:	f000 fa6e 	bl	80055d0 <__sinit>
 80050f4:	ab05      	add	r3, sp, #20
 80050f6:	4620      	mov	r0, r4
 80050f8:	9a04      	ldr	r2, [sp, #16]
 80050fa:	68a1      	ldr	r1, [r4, #8]
 80050fc:	9301      	str	r3, [sp, #4]
 80050fe:	f000 fc71 	bl	80059e4 <_vfiprintf_r>
 8005102:	b002      	add	sp, #8
 8005104:	e8bd 4010 	ldmia.w	sp!, {r4, lr}
 8005108:	b004      	add	sp, #16
 800510a:	4770      	bx	lr
 800510c:	20000024 	.word	0x20000024

08005110 <putchar>:
 8005110:	b538      	push	{r3, r4, r5, lr}
 8005112:	4b08      	ldr	r3, [pc, #32]	; (8005134 <putchar+0x24>)
 8005114:	4605      	mov	r5, r0
 8005116:	681c      	ldr	r4, [r3, #0]
 8005118:	b124      	cbz	r4, 8005124 <putchar+0x14>
 800511a:	69a3      	ldr	r3, [r4, #24]
 800511c:	b913      	cbnz	r3, 8005124 <putchar+0x14>
 800511e:	4620      	mov	r0, r4
 8005120:	f000 fa56 	bl	80055d0 <__sinit>
 8005124:	4629      	mov	r1, r5
 8005126:	4620      	mov	r0, r4
 8005128:	68a2      	ldr	r2, [r4, #8]
 800512a:	e8bd 4038 	ldmia.w	sp!, {r3, r4, r5, lr}
 800512e:	f000 bf1f 	b.w	8005f70 <_putc_r>
 8005132:	bf00      	nop
 8005134:	20000024 	.word	0x20000024

08005138 <_puts_r>:
 8005138:	b570      	push	{r4, r5, r6, lr}
 800513a:	460e      	mov	r6, r1
 800513c:	4605      	mov	r5, r0
 800513e:	b118      	cbz	r0, 8005148 <_puts_r+0x10>
 8005140:	6983      	ldr	r3, [r0, #24]
 8005142:	b90b      	cbnz	r3, 8005148 <_puts_r+0x10>
 8005144:	f000 fa44 	bl	80055d0 <__sinit>
 8005148:	69ab      	ldr	r3, [r5, #24]
 800514a:	68ac      	ldr	r4, [r5, #8]
 800514c:	b913      	cbnz	r3, 8005154 <_puts_r+0x1c>
 800514e:	4628      	mov	r0, r5
 8005150:	f000 fa3e 	bl	80055d0 <__sinit>
 8005154:	4b2c      	ldr	r3, [pc, #176]	; (8005208 <_puts_r+0xd0>)
 8005156:	429c      	cmp	r4, r3
 8005158:	d120      	bne.n	800519c <_puts_r+0x64>
 800515a:	686c      	ldr	r4, [r5, #4]
 800515c:	6e63      	ldr	r3, [r4, #100]	; 0x64
 800515e:	07db      	lsls	r3, r3, #31
 8005160:	d405      	bmi.n	800516e <_puts_r+0x36>
 8005162:	89a3      	ldrh	r3, [r4, #12]
 8005164:	0598      	lsls	r0, r3, #22
 8005166:	d402      	bmi.n	800516e <_puts_r+0x36>
 8005168:	6da0      	ldr	r0, [r4, #88]	; 0x58
 800516a:	f000 facf 	bl	800570c <__retarget_lock_acquire_recursive>
 800516e:	89a3      	ldrh	r3, [r4, #12]
 8005170:	0719      	lsls	r1, r3, #28
 8005172:	d51d      	bpl.n	80051b0 <_puts_r+0x78>
 8005174:	6923      	ldr	r3, [r4, #16]
 8005176:	b1db      	cbz	r3, 80051b0 <_puts_r+0x78>
 8005178:	3e01      	subs	r6, #1
 800517a:	68a3      	ldr	r3, [r4, #8]
 800517c:	f816 1f01 	ldrb.w	r1, [r6, #1]!
 8005180:	3b01      	subs	r3, #1
 8005182:	60a3      	str	r3, [r4, #8]
 8005184:	bb39      	cbnz	r1, 80051d6 <_puts_r+0x9e>
 8005186:	2b00      	cmp	r3, #0
 8005188:	da38      	bge.n	80051fc <_puts_r+0xc4>
 800518a:	4622      	mov	r2, r4
 800518c:	210a      	movs	r1, #10
 800518e:	4628      	mov	r0, r5
 8005190:	f000 f848 	bl	8005224 <__swbuf_r>
 8005194:	3001      	adds	r0, #1
 8005196:	d011      	beq.n	80051bc <_puts_r+0x84>
 8005198:	250a      	movs	r5, #10
 800519a:	e011      	b.n	80051c0 <_puts_r+0x88>
 800519c:	4b1b      	ldr	r3, [pc, #108]	; (800520c <_puts_r+0xd4>)
 800519e:	429c      	cmp	r4, r3
 80051a0:	d101      	bne.n	80051a6 <_puts_r+0x6e>
 80051a2:	68ac      	ldr	r4, [r5, #8]
 80051a4:	e7da      	b.n	800515c <_puts_r+0x24>
 80051a6:	4b1a      	ldr	r3, [pc, #104]	; (8005210 <_puts_r+0xd8>)
 80051a8:	429c      	cmp	r4, r3
 80051aa:	bf08      	it	eq
 80051ac:	68ec      	ldreq	r4, [r5, #12]
 80051ae:	e7d5      	b.n	800515c <_puts_r+0x24>
 80051b0:	4621      	mov	r1, r4
 80051b2:	4628      	mov	r0, r5
 80051b4:	f000 f888 	bl	80052c8 <__swsetup_r>
 80051b8:	2800      	cmp	r0, #0
 80051ba:	d0dd      	beq.n	8005178 <_puts_r+0x40>
 80051bc:	f04f 35ff 	mov.w	r5, #4294967295
 80051c0:	6e63      	ldr	r3, [r4, #100]	; 0x64
 80051c2:	07da      	lsls	r2, r3, #31
 80051c4:	d405      	bmi.n	80051d2 <_puts_r+0x9a>
 80051c6:	89a3      	ldrh	r3, [r4, #12]
 80051c8:	059b      	lsls	r3, r3, #22
 80051ca:	d402      	bmi.n	80051d2 <_puts_r+0x9a>
 80051cc:	6da0      	ldr	r0, [r4, #88]	; 0x58
 80051ce:	f000 fa9e 	bl	800570e <__retarget_lock_release_recursive>
 80051d2:	4628      	mov	r0, r5
 80051d4:	bd70      	pop	{r4, r5, r6, pc}
 80051d6:	2b00      	cmp	r3, #0
 80051d8:	da04      	bge.n	80051e4 <_puts_r+0xac>
 80051da:	69a2      	ldr	r2, [r4, #24]
 80051dc:	429a      	cmp	r2, r3
 80051de:	dc06      	bgt.n	80051ee <_puts_r+0xb6>
 80051e0:	290a      	cmp	r1, #10
 80051e2:	d004      	beq.n	80051ee <_puts_r+0xb6>
 80051e4:	6823      	ldr	r3, [r4, #0]
 80051e6:	1c5a      	adds	r2, r3, #1
 80051e8:	6022      	str	r2, [r4, #0]
 80051ea:	7019      	strb	r1, [r3, #0]
 80051ec:	e7c5      	b.n	800517a <_puts_r+0x42>
 80051ee:	4622      	mov	r2, r4
 80051f0:	4628      	mov	r0, r5
 80051f2:	f000 f817 	bl	8005224 <__swbuf_r>
 80051f6:	3001      	adds	r0, #1
 80051f8:	d1bf      	bne.n	800517a <_puts_r+0x42>
 80051fa:	e7df      	b.n	80051bc <_puts_r+0x84>
 80051fc:	250a      	movs	r5, #10
 80051fe:	6823      	ldr	r3, [r4, #0]
 8005200:	1c5a      	adds	r2, r3, #1
 8005202:	6022      	str	r2, [r4, #0]
 8005204:	701d      	strb	r5, [r3, #0]
 8005206:	e7db      	b.n	80051c0 <_puts_r+0x88>
 8005208:	080062e4 	.word	0x080062e4
 800520c:	08006304 	.word	0x08006304
 8005210:	080062c4 	.word	0x080062c4

08005214 <puts>:
 8005214:	4b02      	ldr	r3, [pc, #8]	; (8005220 <puts+0xc>)
 8005216:	4601      	mov	r1, r0
 8005218:	6818      	ldr	r0, [r3, #0]
 800521a:	f7ff bf8d 	b.w	8005138 <_puts_r>
 800521e:	bf00      	nop
 8005220:	20000024 	.word	0x20000024

08005224 <__swbuf_r>:
 8005224:	b5f8      	push	{r3, r4, r5, r6, r7, lr}
 8005226:	460e      	mov	r6, r1
 8005228:	4614      	mov	r4, r2
 800522a:	4605      	mov	r5, r0
 800522c:	b118      	cbz	r0, 8005236 <__swbuf_r+0x12>
 800522e:	6983      	ldr	r3, [r0, #24]
 8005230:	b90b      	cbnz	r3, 8005236 <__swbuf_r+0x12>
 8005232:	f000 f9cd 	bl	80055d0 <__sinit>
 8005236:	4b21      	ldr	r3, [pc, #132]	; (80052bc <__swbuf_r+0x98>)
 8005238:	429c      	cmp	r4, r3
 800523a:	d12b      	bne.n	8005294 <__swbuf_r+0x70>
 800523c:	686c      	ldr	r4, [r5, #4]
 800523e:	69a3      	ldr	r3, [r4, #24]
 8005240:	60a3      	str	r3, [r4, #8]
 8005242:	89a3      	ldrh	r3, [r4, #12]
 8005244:	071a      	lsls	r2, r3, #28
 8005246:	d52f      	bpl.n	80052a8 <__swbuf_r+0x84>
 8005248:	6923      	ldr	r3, [r4, #16]
 800524a:	b36b      	cbz	r3, 80052a8 <__swbuf_r+0x84>
 800524c:	6923      	ldr	r3, [r4, #16]
 800524e:	6820      	ldr	r0, [r4, #0]
 8005250:	b2f6      	uxtb	r6, r6
 8005252:	1ac0      	subs	r0, r0, r3
 8005254:	6963      	ldr	r3, [r4, #20]
 8005256:	4637      	mov	r7, r6
 8005258:	4283      	cmp	r3, r0
 800525a:	dc04      	bgt.n	8005266 <__swbuf_r+0x42>
 800525c:	4621      	mov	r1, r4
 800525e:	4628      	mov	r0, r5
 8005260:	f000 f922 	bl	80054a8 <_fflush_r>
 8005264:	bb30      	cbnz	r0, 80052b4 <__swbuf_r+0x90>
 8005266:	68a3      	ldr	r3, [r4, #8]
 8005268:	3001      	adds	r0, #1
 800526a:	3b01      	subs	r3, #1
 800526c:	60a3      	str	r3, [r4, #8]
 800526e:	6823      	ldr	r3, [r4, #0]
 8005270:	1c5a      	adds	r2, r3, #1
 8005272:	6022      	str	r2, [r4, #0]
 8005274:	701e      	strb	r6, [r3, #0]
 8005276:	6963      	ldr	r3, [r4, #20]
 8005278:	4283      	cmp	r3, r0
 800527a:	d004      	beq.n	8005286 <__swbuf_r+0x62>
 800527c:	89a3      	ldrh	r3, [r4, #12]
 800527e:	07db      	lsls	r3, r3, #31
 8005280:	d506      	bpl.n	8005290 <__swbuf_r+0x6c>
 8005282:	2e0a      	cmp	r6, #10
 8005284:	d104      	bne.n	8005290 <__swbuf_r+0x6c>
 8005286:	4621      	mov	r1, r4
 8005288:	4628      	mov	r0, r5
 800528a:	f000 f90d 	bl	80054a8 <_fflush_r>
 800528e:	b988      	cbnz	r0, 80052b4 <__swbuf_r+0x90>
 8005290:	4638      	mov	r0, r7
 8005292:	bdf8      	pop	{r3, r4, r5, r6, r7, pc}
 8005294:	4b0a      	ldr	r3, [pc, #40]	; (80052c0 <__swbuf_r+0x9c>)
 8005296:	429c      	cmp	r4, r3
 8005298:	d101      	bne.n	800529e <__swbuf_r+0x7a>
 800529a:	68ac      	ldr	r4, [r5, #8]
 800529c:	e7cf      	b.n	800523e <__swbuf_r+0x1a>
 800529e:	4b09      	ldr	r3, [pc, #36]	; (80052c4 <__swbuf_r+0xa0>)
 80052a0:	429c      	cmp	r4, r3
 80052a2:	bf08      	it	eq
 80052a4:	68ec      	ldreq	r4, [r5, #12]
 80052a6:	e7ca      	b.n	800523e <__swbuf_r+0x1a>
 80052a8:	4621      	mov	r1, r4
 80052aa:	4628      	mov	r0, r5
 80052ac:	f000 f80c 	bl	80052c8 <__swsetup_r>
 80052b0:	2800      	cmp	r0, #0
 80052b2:	d0cb      	beq.n	800524c <__swbuf_r+0x28>
 80052b4:	f04f 37ff 	mov.w	r7, #4294967295
 80052b8:	e7ea      	b.n	8005290 <__swbuf_r+0x6c>
 80052ba:	bf00      	nop
 80052bc:	080062e4 	.word	0x080062e4
 80052c0:	08006304 	.word	0x08006304
 80052c4:	080062c4 	.word	0x080062c4

080052c8 <__swsetup_r>:
 80052c8:	4b32      	ldr	r3, [pc, #200]	; (8005394 <__swsetup_r+0xcc>)
 80052ca:	b570      	push	{r4, r5, r6, lr}
 80052cc:	681d      	ldr	r5, [r3, #0]
 80052ce:	4606      	mov	r6, r0
 80052d0:	460c      	mov	r4, r1
 80052d2:	b125      	cbz	r5, 80052de <__swsetup_r+0x16>
 80052d4:	69ab      	ldr	r3, [r5, #24]
 80052d6:	b913      	cbnz	r3, 80052de <__swsetup_r+0x16>
 80052d8:	4628      	mov	r0, r5
 80052da:	f000 f979 	bl	80055d0 <__sinit>
 80052de:	4b2e      	ldr	r3, [pc, #184]	; (8005398 <__swsetup_r+0xd0>)
 80052e0:	429c      	cmp	r4, r3
 80052e2:	d10f      	bne.n	8005304 <__swsetup_r+0x3c>
 80052e4:	686c      	ldr	r4, [r5, #4]
 80052e6:	89a3      	ldrh	r3, [r4, #12]
 80052e8:	f9b4 200c 	ldrsh.w	r2, [r4, #12]
 80052ec:	0719      	lsls	r1, r3, #28
 80052ee:	d42c      	bmi.n	800534a <__swsetup_r+0x82>
 80052f0:	06dd      	lsls	r5, r3, #27
 80052f2:	d411      	bmi.n	8005318 <__swsetup_r+0x50>
 80052f4:	2309      	movs	r3, #9
 80052f6:	6033      	str	r3, [r6, #0]
 80052f8:	f042 0340 	orr.w	r3, r2, #64	; 0x40
 80052fc:	f04f 30ff 	mov.w	r0, #4294967295
 8005300:	81a3      	strh	r3, [r4, #12]
 8005302:	e03e      	b.n	8005382 <__swsetup_r+0xba>
 8005304:	4b25      	ldr	r3, [pc, #148]	; (800539c <__swsetup_r+0xd4>)
 8005306:	429c      	cmp	r4, r3
 8005308:	d101      	bne.n	800530e <__swsetup_r+0x46>
 800530a:	68ac      	ldr	r4, [r5, #8]
 800530c:	e7eb      	b.n	80052e6 <__swsetup_r+0x1e>
 800530e:	4b24      	ldr	r3, [pc, #144]	; (80053a0 <__swsetup_r+0xd8>)
 8005310:	429c      	cmp	r4, r3
 8005312:	bf08      	it	eq
 8005314:	68ec      	ldreq	r4, [r5, #12]
 8005316:	e7e6      	b.n	80052e6 <__swsetup_r+0x1e>
 8005318:	0758      	lsls	r0, r3, #29
 800531a:	d512      	bpl.n	8005342 <__swsetup_r+0x7a>
 800531c:	6b61      	ldr	r1, [r4, #52]	; 0x34
 800531e:	b141      	cbz	r1, 8005332 <__swsetup_r+0x6a>
 8005320:	f104 0344 	add.w	r3, r4, #68	; 0x44
 8005324:	4299      	cmp	r1, r3
 8005326:	d002      	beq.n	800532e <__swsetup_r+0x66>
 8005328:	4630      	mov	r0, r6
 800532a:	f000 fa57 	bl	80057dc <_free_r>
 800532e:	2300      	movs	r3, #0
 8005330:	6363      	str	r3, [r4, #52]	; 0x34
 8005332:	89a3      	ldrh	r3, [r4, #12]
 8005334:	f023 0324 	bic.w	r3, r3, #36	; 0x24
 8005338:	81a3      	strh	r3, [r4, #12]
 800533a:	2300      	movs	r3, #0
 800533c:	6063      	str	r3, [r4, #4]
 800533e:	6923      	ldr	r3, [r4, #16]
 8005340:	6023      	str	r3, [r4, #0]
 8005342:	89a3      	ldrh	r3, [r4, #12]
 8005344:	f043 0308 	orr.w	r3, r3, #8
 8005348:	81a3      	strh	r3, [r4, #12]
 800534a:	6923      	ldr	r3, [r4, #16]
 800534c:	b94b      	cbnz	r3, 8005362 <__swsetup_r+0x9a>
 800534e:	89a3      	ldrh	r3, [r4, #12]
 8005350:	f403 7320 	and.w	r3, r3, #640	; 0x280
 8005354:	f5b3 7f00 	cmp.w	r3, #512	; 0x200
 8005358:	d003      	beq.n	8005362 <__swsetup_r+0x9a>
 800535a:	4621      	mov	r1, r4
 800535c:	4630      	mov	r0, r6
 800535e:	f000 f9fd 	bl	800575c <__smakebuf_r>
 8005362:	89a0      	ldrh	r0, [r4, #12]
 8005364:	f9b4 200c 	ldrsh.w	r2, [r4, #12]
 8005368:	f010 0301 	ands.w	r3, r0, #1
 800536c:	d00a      	beq.n	8005384 <__swsetup_r+0xbc>
 800536e:	2300      	movs	r3, #0
 8005370:	60a3      	str	r3, [r4, #8]
 8005372:	6963      	ldr	r3, [r4, #20]
 8005374:	425b      	negs	r3, r3
 8005376:	61a3      	str	r3, [r4, #24]
 8005378:	6923      	ldr	r3, [r4, #16]
 800537a:	b943      	cbnz	r3, 800538e <__swsetup_r+0xc6>
 800537c:	f010 0080 	ands.w	r0, r0, #128	; 0x80
 8005380:	d1ba      	bne.n	80052f8 <__swsetup_r+0x30>
 8005382:	bd70      	pop	{r4, r5, r6, pc}
 8005384:	0781      	lsls	r1, r0, #30
 8005386:	bf58      	it	pl
 8005388:	6963      	ldrpl	r3, [r4, #20]
 800538a:	60a3      	str	r3, [r4, #8]
 800538c:	e7f4      	b.n	8005378 <__swsetup_r+0xb0>
 800538e:	2000      	movs	r0, #0
 8005390:	e7f7      	b.n	8005382 <__swsetup_r+0xba>
 8005392:	bf00      	nop
 8005394:	20000024 	.word	0x20000024
 8005398:	080062e4 	.word	0x080062e4
 800539c:	08006304 	.word	0x08006304
 80053a0:	080062c4 	.word	0x080062c4

080053a4 <__sflush_r>:
 80053a4:	898a      	ldrh	r2, [r1, #12]
 80053a6:	b5f8      	push	{r3, r4, r5, r6, r7, lr}
 80053a8:	4605      	mov	r5, r0
 80053aa:	0710      	lsls	r0, r2, #28
 80053ac:	460c      	mov	r4, r1
 80053ae:	d457      	bmi.n	8005460 <__sflush_r+0xbc>
 80053b0:	684b      	ldr	r3, [r1, #4]
 80053b2:	2b00      	cmp	r3, #0
 80053b4:	dc04      	bgt.n	80053c0 <__sflush_r+0x1c>
 80053b6:	6c0b      	ldr	r3, [r1, #64]	; 0x40
 80053b8:	2b00      	cmp	r3, #0
 80053ba:	dc01      	bgt.n	80053c0 <__sflush_r+0x1c>
 80053bc:	2000      	movs	r0, #0
 80053be:	bdf8      	pop	{r3, r4, r5, r6, r7, pc}
 80053c0:	6ae6      	ldr	r6, [r4, #44]	; 0x2c
 80053c2:	2e00      	cmp	r6, #0
 80053c4:	d0fa      	beq.n	80053bc <__sflush_r+0x18>
 80053c6:	2300      	movs	r3, #0
 80053c8:	f412 5280 	ands.w	r2, r2, #4096	; 0x1000
 80053cc:	682f      	ldr	r7, [r5, #0]
 80053ce:	602b      	str	r3, [r5, #0]
 80053d0:	d032      	beq.n	8005438 <__sflush_r+0x94>
 80053d2:	6d60      	ldr	r0, [r4, #84]	; 0x54
 80053d4:	89a3      	ldrh	r3, [r4, #12]
 80053d6:	075a      	lsls	r2, r3, #29
 80053d8:	d505      	bpl.n	80053e6 <__sflush_r+0x42>
 80053da:	6863      	ldr	r3, [r4, #4]
 80053dc:	1ac0      	subs	r0, r0, r3
 80053de:	6b63      	ldr	r3, [r4, #52]	; 0x34
 80053e0:	b10b      	cbz	r3, 80053e6 <__sflush_r+0x42>
 80053e2:	6c23      	ldr	r3, [r4, #64]	; 0x40
 80053e4:	1ac0      	subs	r0, r0, r3
 80053e6:	2300      	movs	r3, #0
 80053e8:	4602      	mov	r2, r0
 80053ea:	6ae6      	ldr	r6, [r4, #44]	; 0x2c
 80053ec:	4628      	mov	r0, r5
 80053ee:	6a21      	ldr	r1, [r4, #32]
 80053f0:	47b0      	blx	r6
 80053f2:	1c43      	adds	r3, r0, #1
 80053f4:	89a3      	ldrh	r3, [r4, #12]
 80053f6:	d106      	bne.n	8005406 <__sflush_r+0x62>
 80053f8:	6829      	ldr	r1, [r5, #0]
 80053fa:	291d      	cmp	r1, #29
 80053fc:	d82c      	bhi.n	8005458 <__sflush_r+0xb4>
 80053fe:	4a29      	ldr	r2, [pc, #164]	; (80054a4 <__sflush_r+0x100>)
 8005400:	40ca      	lsrs	r2, r1
 8005402:	07d6      	lsls	r6, r2, #31
 8005404:	d528      	bpl.n	8005458 <__sflush_r+0xb4>
 8005406:	2200      	movs	r2, #0
 8005408:	6062      	str	r2, [r4, #4]
 800540a:	6922      	ldr	r2, [r4, #16]
 800540c:	04d9      	lsls	r1, r3, #19
 800540e:	6022      	str	r2, [r4, #0]
 8005410:	d504      	bpl.n	800541c <__sflush_r+0x78>
 8005412:	1c42      	adds	r2, r0, #1
 8005414:	d101      	bne.n	800541a <__sflush_r+0x76>
 8005416:	682b      	ldr	r3, [r5, #0]
 8005418:	b903      	cbnz	r3, 800541c <__sflush_r+0x78>
 800541a:	6560      	str	r0, [r4, #84]	; 0x54
 800541c:	6b61      	ldr	r1, [r4, #52]	; 0x34
 800541e:	602f      	str	r7, [r5, #0]
 8005420:	2900      	cmp	r1, #0
 8005422:	d0cb      	beq.n	80053bc <__sflush_r+0x18>
 8005424:	f104 0344 	add.w	r3, r4, #68	; 0x44
 8005428:	4299      	cmp	r1, r3
 800542a:	d002      	beq.n	8005432 <__sflush_r+0x8e>
 800542c:	4628      	mov	r0, r5
 800542e:	f000 f9d5 	bl	80057dc <_free_r>
 8005432:	2000      	movs	r0, #0
 8005434:	6360      	str	r0, [r4, #52]	; 0x34
 8005436:	e7c2      	b.n	80053be <__sflush_r+0x1a>
 8005438:	6a21      	ldr	r1, [r4, #32]
 800543a:	2301      	movs	r3, #1
 800543c:	4628      	mov	r0, r5
 800543e:	47b0      	blx	r6
 8005440:	1c41      	adds	r1, r0, #1
 8005442:	d1c7      	bne.n	80053d4 <__sflush_r+0x30>
 8005444:	682b      	ldr	r3, [r5, #0]
 8005446:	2b00      	cmp	r3, #0
 8005448:	d0c4      	beq.n	80053d4 <__sflush_r+0x30>
 800544a:	2b1d      	cmp	r3, #29
 800544c:	d001      	beq.n	8005452 <__sflush_r+0xae>
 800544e:	2b16      	cmp	r3, #22
 8005450:	d101      	bne.n	8005456 <__sflush_r+0xb2>
 8005452:	602f      	str	r7, [r5, #0]
 8005454:	e7b2      	b.n	80053bc <__sflush_r+0x18>
 8005456:	89a3      	ldrh	r3, [r4, #12]
 8005458:	f043 0340 	orr.w	r3, r3, #64	; 0x40
 800545c:	81a3      	strh	r3, [r4, #12]
 800545e:	e7ae      	b.n	80053be <__sflush_r+0x1a>
 8005460:	690f      	ldr	r7, [r1, #16]
 8005462:	2f00      	cmp	r7, #0
 8005464:	d0aa      	beq.n	80053bc <__sflush_r+0x18>
 8005466:	0793      	lsls	r3, r2, #30
 8005468:	bf18      	it	ne
 800546a:	2300      	movne	r3, #0
 800546c:	680e      	ldr	r6, [r1, #0]
 800546e:	bf08      	it	eq
 8005470:	694b      	ldreq	r3, [r1, #20]
 8005472:	1bf6      	subs	r6, r6, r7
 8005474:	600f      	str	r7, [r1, #0]
 8005476:	608b      	str	r3, [r1, #8]
 8005478:	2e00      	cmp	r6, #0
 800547a:	dd9f      	ble.n	80053bc <__sflush_r+0x18>
 800547c:	4633      	mov	r3, r6
 800547e:	463a      	mov	r2, r7
 8005480:	4628      	mov	r0, r5
 8005482:	6a21      	ldr	r1, [r4, #32]
 8005484:	f8d4 c028 	ldr.w	ip, [r4, #40]	; 0x28
 8005488:	47e0      	blx	ip
 800548a:	2800      	cmp	r0, #0
 800548c:	dc06      	bgt.n	800549c <__sflush_r+0xf8>
 800548e:	89a3      	ldrh	r3, [r4, #12]
 8005490:	f04f 30ff 	mov.w	r0, #4294967295
 8005494:	f043 0340 	orr.w	r3, r3, #64	; 0x40
 8005498:	81a3      	strh	r3, [r4, #12]
 800549a:	e790      	b.n	80053be <__sflush_r+0x1a>
 800549c:	4407      	add	r7, r0
 800549e:	1a36      	subs	r6, r6, r0
 80054a0:	e7ea      	b.n	8005478 <__sflush_r+0xd4>
 80054a2:	bf00      	nop
 80054a4:	20400001 	.word	0x20400001

080054a8 <_fflush_r>:
 80054a8:	b538      	push	{r3, r4, r5, lr}
 80054aa:	690b      	ldr	r3, [r1, #16]
 80054ac:	4605      	mov	r5, r0
 80054ae:	460c      	mov	r4, r1
 80054b0:	b913      	cbnz	r3, 80054b8 <_fflush_r+0x10>
 80054b2:	2500      	movs	r5, #0
 80054b4:	4628      	mov	r0, r5
 80054b6:	bd38      	pop	{r3, r4, r5, pc}
 80054b8:	b118      	cbz	r0, 80054c2 <_fflush_r+0x1a>
 80054ba:	6983      	ldr	r3, [r0, #24]
 80054bc:	b90b      	cbnz	r3, 80054c2 <_fflush_r+0x1a>
 80054be:	f000 f887 	bl	80055d0 <__sinit>
 80054c2:	4b14      	ldr	r3, [pc, #80]	; (8005514 <_fflush_r+0x6c>)
 80054c4:	429c      	cmp	r4, r3
 80054c6:	d11b      	bne.n	8005500 <_fflush_r+0x58>
 80054c8:	686c      	ldr	r4, [r5, #4]
 80054ca:	f9b4 300c 	ldrsh.w	r3, [r4, #12]
 80054ce:	2b00      	cmp	r3, #0
 80054d0:	d0ef      	beq.n	80054b2 <_fflush_r+0xa>
 80054d2:	6e62      	ldr	r2, [r4, #100]	; 0x64
 80054d4:	07d0      	lsls	r0, r2, #31
 80054d6:	d404      	bmi.n	80054e2 <_fflush_r+0x3a>
 80054d8:	0599      	lsls	r1, r3, #22
 80054da:	d402      	bmi.n	80054e2 <_fflush_r+0x3a>
 80054dc:	6da0      	ldr	r0, [r4, #88]	; 0x58
 80054de:	f000 f915 	bl	800570c <__retarget_lock_acquire_recursive>
 80054e2:	4628      	mov	r0, r5
 80054e4:	4621      	mov	r1, r4
 80054e6:	f7ff ff5d 	bl	80053a4 <__sflush_r>
 80054ea:	6e63      	ldr	r3, [r4, #100]	; 0x64
 80054ec:	4605      	mov	r5, r0
 80054ee:	07da      	lsls	r2, r3, #31
 80054f0:	d4e0      	bmi.n	80054b4 <_fflush_r+0xc>
 80054f2:	89a3      	ldrh	r3, [r4, #12]
 80054f4:	059b      	lsls	r3, r3, #22
 80054f6:	d4dd      	bmi.n	80054b4 <_fflush_r+0xc>
 80054f8:	6da0      	ldr	r0, [r4, #88]	; 0x58
 80054fa:	f000 f908 	bl	800570e <__retarget_lock_release_recursive>
 80054fe:	e7d9      	b.n	80054b4 <_fflush_r+0xc>
 8005500:	4b05      	ldr	r3, [pc, #20]	; (8005518 <_fflush_r+0x70>)
 8005502:	429c      	cmp	r4, r3
 8005504:	d101      	bne.n	800550a <_fflush_r+0x62>
 8005506:	68ac      	ldr	r4, [r5, #8]
 8005508:	e7df      	b.n	80054ca <_fflush_r+0x22>
 800550a:	4b04      	ldr	r3, [pc, #16]	; (800551c <_fflush_r+0x74>)
 800550c:	429c      	cmp	r4, r3
 800550e:	bf08      	it	eq
 8005510:	68ec      	ldreq	r4, [r5, #12]
 8005512:	e7da      	b.n	80054ca <_fflush_r+0x22>
 8005514:	080062e4 	.word	0x080062e4
 8005518:	08006304 	.word	0x08006304
 800551c:	080062c4 	.word	0x080062c4

08005520 <std>:
 8005520:	2300      	movs	r3, #0
 8005522:	b510      	push	{r4, lr}
 8005524:	4604      	mov	r4, r0
 8005526:	e9c0 3300 	strd	r3, r3, [r0]
 800552a:	e9c0 3304 	strd	r3, r3, [r0, #16]
 800552e:	6083      	str	r3, [r0, #8]
 8005530:	8181      	strh	r1, [r0, #12]
 8005532:	6643      	str	r3, [r0, #100]	; 0x64
 8005534:	81c2      	strh	r2, [r0, #14]
 8005536:	6183      	str	r3, [r0, #24]
 8005538:	4619      	mov	r1, r3
 800553a:	2208      	movs	r2, #8
 800553c:	305c      	adds	r0, #92	; 0x5c
 800553e:	f7ff fdc7 	bl	80050d0 <memset>
 8005542:	4b05      	ldr	r3, [pc, #20]	; (8005558 <std+0x38>)
 8005544:	6224      	str	r4, [r4, #32]
 8005546:	6263      	str	r3, [r4, #36]	; 0x24
 8005548:	4b04      	ldr	r3, [pc, #16]	; (800555c <std+0x3c>)
 800554a:	62a3      	str	r3, [r4, #40]	; 0x28
 800554c:	4b04      	ldr	r3, [pc, #16]	; (8005560 <std+0x40>)
 800554e:	62e3      	str	r3, [r4, #44]	; 0x2c
 8005550:	4b04      	ldr	r3, [pc, #16]	; (8005564 <std+0x44>)
 8005552:	6323      	str	r3, [r4, #48]	; 0x30
 8005554:	bd10      	pop	{r4, pc}
 8005556:	bf00      	nop
 8005558:	08006021 	.word	0x08006021
 800555c:	08006043 	.word	0x08006043
 8005560:	0800607b 	.word	0x0800607b
 8005564:	0800609f 	.word	0x0800609f

08005568 <_cleanup_r>:
 8005568:	4901      	ldr	r1, [pc, #4]	; (8005570 <_cleanup_r+0x8>)
 800556a:	f000 b8af 	b.w	80056cc <_fwalk_reent>
 800556e:	bf00      	nop
 8005570:	080054a9 	.word	0x080054a9

08005574 <__sfmoreglue>:
 8005574:	2268      	movs	r2, #104	; 0x68
 8005576:	b570      	push	{r4, r5, r6, lr}
 8005578:	1e4d      	subs	r5, r1, #1
 800557a:	4355      	muls	r5, r2
 800557c:	460e      	mov	r6, r1
 800557e:	f105 0174 	add.w	r1, r5, #116	; 0x74
 8005582:	f000 f993 	bl	80058ac <_malloc_r>
 8005586:	4604      	mov	r4, r0
 8005588:	b140      	cbz	r0, 800559c <__sfmoreglue+0x28>
 800558a:	2100      	movs	r1, #0
 800558c:	e9c0 1600 	strd	r1, r6, [r0]
 8005590:	300c      	adds	r0, #12
 8005592:	60a0      	str	r0, [r4, #8]
 8005594:	f105 0268 	add.w	r2, r5, #104	; 0x68
 8005598:	f7ff fd9a 	bl	80050d0 <memset>
 800559c:	4620      	mov	r0, r4
 800559e:	bd70      	pop	{r4, r5, r6, pc}

080055a0 <__sfp_lock_acquire>:
 80055a0:	4801      	ldr	r0, [pc, #4]	; (80055a8 <__sfp_lock_acquire+0x8>)
 80055a2:	f000 b8b3 	b.w	800570c <__retarget_lock_acquire_recursive>
 80055a6:	bf00      	nop
 80055a8:	200012c1 	.word	0x200012c1

080055ac <__sfp_lock_release>:
 80055ac:	4801      	ldr	r0, [pc, #4]	; (80055b4 <__sfp_lock_release+0x8>)
 80055ae:	f000 b8ae 	b.w	800570e <__retarget_lock_release_recursive>
 80055b2:	bf00      	nop
 80055b4:	200012c1 	.word	0x200012c1

080055b8 <__sinit_lock_acquire>:
 80055b8:	4801      	ldr	r0, [pc, #4]	; (80055c0 <__sinit_lock_acquire+0x8>)
 80055ba:	f000 b8a7 	b.w	800570c <__retarget_lock_acquire_recursive>
 80055be:	bf00      	nop
 80055c0:	200012c2 	.word	0x200012c2

080055c4 <__sinit_lock_release>:
 80055c4:	4801      	ldr	r0, [pc, #4]	; (80055cc <__sinit_lock_release+0x8>)
 80055c6:	f000 b8a2 	b.w	800570e <__retarget_lock_release_recursive>
 80055ca:	bf00      	nop
 80055cc:	200012c2 	.word	0x200012c2

080055d0 <__sinit>:
 80055d0:	b510      	push	{r4, lr}
 80055d2:	4604      	mov	r4, r0
 80055d4:	f7ff fff0 	bl	80055b8 <__sinit_lock_acquire>
 80055d8:	69a3      	ldr	r3, [r4, #24]
 80055da:	b11b      	cbz	r3, 80055e4 <__sinit+0x14>
 80055dc:	e8bd 4010 	ldmia.w	sp!, {r4, lr}
 80055e0:	f7ff bff0 	b.w	80055c4 <__sinit_lock_release>
 80055e4:	e9c4 3312 	strd	r3, r3, [r4, #72]	; 0x48
 80055e8:	6523      	str	r3, [r4, #80]	; 0x50
 80055ea:	4b13      	ldr	r3, [pc, #76]	; (8005638 <__sinit+0x68>)
 80055ec:	4a13      	ldr	r2, [pc, #76]	; (800563c <__sinit+0x6c>)
 80055ee:	681b      	ldr	r3, [r3, #0]
 80055f0:	62a2      	str	r2, [r4, #40]	; 0x28
 80055f2:	42a3      	cmp	r3, r4
 80055f4:	bf08      	it	eq
 80055f6:	2301      	moveq	r3, #1
 80055f8:	4620      	mov	r0, r4
 80055fa:	bf08      	it	eq
 80055fc:	61a3      	streq	r3, [r4, #24]
 80055fe:	f000 f81f 	bl	8005640 <__sfp>
 8005602:	6060      	str	r0, [r4, #4]
 8005604:	4620      	mov	r0, r4
 8005606:	f000 f81b 	bl	8005640 <__sfp>
 800560a:	60a0      	str	r0, [r4, #8]
 800560c:	4620      	mov	r0, r4
 800560e:	f000 f817 	bl	8005640 <__sfp>
 8005612:	2200      	movs	r2, #0
 8005614:	2104      	movs	r1, #4
 8005616:	60e0      	str	r0, [r4, #12]
 8005618:	6860      	ldr	r0, [r4, #4]
 800561a:	f7ff ff81 	bl	8005520 <std>
 800561e:	2201      	movs	r2, #1
 8005620:	2109      	movs	r1, #9
 8005622:	68a0      	ldr	r0, [r4, #8]
 8005624:	f7ff ff7c 	bl	8005520 <std>
 8005628:	2202      	movs	r2, #2
 800562a:	2112      	movs	r1, #18
 800562c:	68e0      	ldr	r0, [r4, #12]
 800562e:	f7ff ff77 	bl	8005520 <std>
 8005632:	2301      	movs	r3, #1
 8005634:	61a3      	str	r3, [r4, #24]
 8005636:	e7d1      	b.n	80055dc <__sinit+0xc>
 8005638:	080062c0 	.word	0x080062c0
 800563c:	08005569 	.word	0x08005569

08005640 <__sfp>:
 8005640:	b5f8      	push	{r3, r4, r5, r6, r7, lr}
 8005642:	4607      	mov	r7, r0
 8005644:	f7ff ffac 	bl	80055a0 <__sfp_lock_acquire>
 8005648:	4b1e      	ldr	r3, [pc, #120]	; (80056c4 <__sfp+0x84>)
 800564a:	681e      	ldr	r6, [r3, #0]
 800564c:	69b3      	ldr	r3, [r6, #24]
 800564e:	b913      	cbnz	r3, 8005656 <__sfp+0x16>
 8005650:	4630      	mov	r0, r6
 8005652:	f7ff ffbd 	bl	80055d0 <__sinit>
 8005656:	3648      	adds	r6, #72	; 0x48
 8005658:	e9d6 3401 	ldrd	r3, r4, [r6, #4]
 800565c:	3b01      	subs	r3, #1
 800565e:	d503      	bpl.n	8005668 <__sfp+0x28>
 8005660:	6833      	ldr	r3, [r6, #0]
 8005662:	b30b      	cbz	r3, 80056a8 <__sfp+0x68>
 8005664:	6836      	ldr	r6, [r6, #0]
 8005666:	e7f7      	b.n	8005658 <__sfp+0x18>
 8005668:	f9b4 500c 	ldrsh.w	r5, [r4, #12]
 800566c:	b9d5      	cbnz	r5, 80056a4 <__sfp+0x64>
 800566e:	4b16      	ldr	r3, [pc, #88]	; (80056c8 <__sfp+0x88>)
 8005670:	f104 0058 	add.w	r0, r4, #88	; 0x58
 8005674:	60e3      	str	r3, [r4, #12]
 8005676:	6665      	str	r5, [r4, #100]	; 0x64
 8005678:	f000 f847 	bl	800570a <__retarget_lock_init_recursive>
 800567c:	f7ff ff96 	bl	80055ac <__sfp_lock_release>
 8005680:	2208      	movs	r2, #8
 8005682:	4629      	mov	r1, r5
 8005684:	e9c4 5501 	strd	r5, r5, [r4, #4]
 8005688:	e9c4 5504 	strd	r5, r5, [r4, #16]
 800568c:	6025      	str	r5, [r4, #0]
 800568e:	61a5      	str	r5, [r4, #24]
 8005690:	f104 005c 	add.w	r0, r4, #92	; 0x5c
 8005694:	f7ff fd1c 	bl	80050d0 <memset>
 8005698:	e9c4 550d 	strd	r5, r5, [r4, #52]	; 0x34
 800569c:	e9c4 5512 	strd	r5, r5, [r4, #72]	; 0x48
 80056a0:	4620      	mov	r0, r4
 80056a2:	bdf8      	pop	{r3, r4, r5, r6, r7, pc}
 80056a4:	3468      	adds	r4, #104	; 0x68
 80056a6:	e7d9      	b.n	800565c <__sfp+0x1c>
 80056a8:	2104      	movs	r1, #4
 80056aa:	4638      	mov	r0, r7
 80056ac:	f7ff ff62 	bl	8005574 <__sfmoreglue>
 80056b0:	4604      	mov	r4, r0
 80056b2:	6030      	str	r0, [r6, #0]
 80056b4:	2800      	cmp	r0, #0
 80056b6:	d1d5      	bne.n	8005664 <__sfp+0x24>
 80056b8:	f7ff ff78 	bl	80055ac <__sfp_lock_release>
 80056bc:	230c      	movs	r3, #12
 80056be:	603b      	str	r3, [r7, #0]
 80056c0:	e7ee      	b.n	80056a0 <__sfp+0x60>
 80056c2:	bf00      	nop
 80056c4:	080062c0 	.word	0x080062c0
 80056c8:	ffff0001 	.word	0xffff0001

080056cc <_fwalk_reent>:
 80056cc:	e92d 43f8 	stmdb	sp!, {r3, r4, r5, r6, r7, r8, r9, lr}
 80056d0:	4606      	mov	r6, r0
 80056d2:	4688      	mov	r8, r1
 80056d4:	2700      	movs	r7, #0
 80056d6:	f100 0448 	add.w	r4, r0, #72	; 0x48
 80056da:	e9d4 9501 	ldrd	r9, r5, [r4, #4]
 80056de:	f1b9 0901 	subs.w	r9, r9, #1
 80056e2:	d505      	bpl.n	80056f0 <_fwalk_reent+0x24>
 80056e4:	6824      	ldr	r4, [r4, #0]
 80056e6:	2c00      	cmp	r4, #0
 80056e8:	d1f7      	bne.n	80056da <_fwalk_reent+0xe>
 80056ea:	4638      	mov	r0, r7
 80056ec:	e8bd 83f8 	ldmia.w	sp!, {r3, r4, r5, r6, r7, r8, r9, pc}
 80056f0:	89ab      	ldrh	r3, [r5, #12]
 80056f2:	2b01      	cmp	r3, #1
 80056f4:	d907      	bls.n	8005706 <_fwalk_reent+0x3a>
 80056f6:	f9b5 300e 	ldrsh.w	r3, [r5, #14]
 80056fa:	3301      	adds	r3, #1
 80056fc:	d003      	beq.n	8005706 <_fwalk_reent+0x3a>
 80056fe:	4629      	mov	r1, r5
 8005700:	4630      	mov	r0, r6
 8005702:	47c0      	blx	r8
 8005704:	4307      	orrs	r7, r0
 8005706:	3568      	adds	r5, #104	; 0x68
 8005708:	e7e9      	b.n	80056de <_fwalk_reent+0x12>

0800570a <__retarget_lock_init_recursive>:
 800570a:	4770      	bx	lr

0800570c <__retarget_lock_acquire_recursive>:
 800570c:	4770      	bx	lr

0800570e <__retarget_lock_release_recursive>:
 800570e:	4770      	bx	lr

08005710 <__swhatbuf_r>:
 8005710:	b570      	push	{r4, r5, r6, lr}
 8005712:	460e      	mov	r6, r1
 8005714:	f9b1 100e 	ldrsh.w	r1, [r1, #14]
 8005718:	4614      	mov	r4, r2
 800571a:	2900      	cmp	r1, #0
 800571c:	461d      	mov	r5, r3
 800571e:	b096      	sub	sp, #88	; 0x58
 8005720:	da08      	bge.n	8005734 <__swhatbuf_r+0x24>
 8005722:	2200      	movs	r2, #0
 8005724:	f9b6 300c 	ldrsh.w	r3, [r6, #12]
 8005728:	602a      	str	r2, [r5, #0]
 800572a:	061a      	lsls	r2, r3, #24
 800572c:	d410      	bmi.n	8005750 <__swhatbuf_r+0x40>
 800572e:	f44f 6380 	mov.w	r3, #1024	; 0x400
 8005732:	e00e      	b.n	8005752 <__swhatbuf_r+0x42>
 8005734:	466a      	mov	r2, sp
 8005736:	f000 fcd9 	bl	80060ec <_fstat_r>
 800573a:	2800      	cmp	r0, #0
 800573c:	dbf1      	blt.n	8005722 <__swhatbuf_r+0x12>
 800573e:	9a01      	ldr	r2, [sp, #4]
 8005740:	f402 4270 	and.w	r2, r2, #61440	; 0xf000
 8005744:	f5a2 5300 	sub.w	r3, r2, #8192	; 0x2000
 8005748:	425a      	negs	r2, r3
 800574a:	415a      	adcs	r2, r3
 800574c:	602a      	str	r2, [r5, #0]
 800574e:	e7ee      	b.n	800572e <__swhatbuf_r+0x1e>
 8005750:	2340      	movs	r3, #64	; 0x40
 8005752:	2000      	movs	r0, #0
 8005754:	6023      	str	r3, [r4, #0]
 8005756:	b016      	add	sp, #88	; 0x58
 8005758:	bd70      	pop	{r4, r5, r6, pc}
	...

0800575c <__smakebuf_r>:
 800575c:	898b      	ldrh	r3, [r1, #12]
 800575e:	b573      	push	{r0, r1, r4, r5, r6, lr}
 8005760:	079d      	lsls	r5, r3, #30
 8005762:	4606      	mov	r6, r0
 8005764:	460c      	mov	r4, r1
 8005766:	d507      	bpl.n	8005778 <__smakebuf_r+0x1c>
 8005768:	f104 0347 	add.w	r3, r4, #71	; 0x47
 800576c:	6023      	str	r3, [r4, #0]
 800576e:	6123      	str	r3, [r4, #16]
 8005770:	2301      	movs	r3, #1
 8005772:	6163      	str	r3, [r4, #20]
 8005774:	b002      	add	sp, #8
 8005776:	bd70      	pop	{r4, r5, r6, pc}
 8005778:	466a      	mov	r2, sp
 800577a:	ab01      	add	r3, sp, #4
 800577c:	f7ff ffc8 	bl	8005710 <__swhatbuf_r>
 8005780:	9900      	ldr	r1, [sp, #0]
 8005782:	4605      	mov	r5, r0
 8005784:	4630      	mov	r0, r6
 8005786:	f000 f891 	bl	80058ac <_malloc_r>
 800578a:	b948      	cbnz	r0, 80057a0 <__smakebuf_r+0x44>
 800578c:	f9b4 300c 	ldrsh.w	r3, [r4, #12]
 8005790:	059a      	lsls	r2, r3, #22
 8005792:	d4ef      	bmi.n	8005774 <__smakebuf_r+0x18>
 8005794:	f023 0303 	bic.w	r3, r3, #3
 8005798:	f043 0302 	orr.w	r3, r3, #2
 800579c:	81a3      	strh	r3, [r4, #12]
 800579e:	e7e3      	b.n	8005768 <__smakebuf_r+0xc>
 80057a0:	4b0d      	ldr	r3, [pc, #52]	; (80057d8 <__smakebuf_r+0x7c>)
 80057a2:	62b3      	str	r3, [r6, #40]	; 0x28
 80057a4:	89a3      	ldrh	r3, [r4, #12]
 80057a6:	6020      	str	r0, [r4, #0]
 80057a8:	f043 0380 	orr.w	r3, r3, #128	; 0x80
 80057ac:	81a3      	strh	r3, [r4, #12]
 80057ae:	9b00      	ldr	r3, [sp, #0]
 80057b0:	6120      	str	r0, [r4, #16]
 80057b2:	6163      	str	r3, [r4, #20]
 80057b4:	9b01      	ldr	r3, [sp, #4]
 80057b6:	b15b      	cbz	r3, 80057d0 <__smakebuf_r+0x74>
 80057b8:	4630      	mov	r0, r6
 80057ba:	f9b4 100e 	ldrsh.w	r1, [r4, #14]
 80057be:	f000 fca7 	bl	8006110 <_isatty_r>
 80057c2:	b128      	cbz	r0, 80057d0 <__smakebuf_r+0x74>
 80057c4:	89a3      	ldrh	r3, [r4, #12]
 80057c6:	f023 0303 	bic.w	r3, r3, #3
 80057ca:	f043 0301 	orr.w	r3, r3, #1
 80057ce:	81a3      	strh	r3, [r4, #12]
 80057d0:	89a0      	ldrh	r0, [r4, #12]
 80057d2:	4305      	orrs	r5, r0
 80057d4:	81a5      	strh	r5, [r4, #12]
 80057d6:	e7cd      	b.n	8005774 <__smakebuf_r+0x18>
 80057d8:	08005569 	.word	0x08005569

080057dc <_free_r>:
 80057dc:	b538      	push	{r3, r4, r5, lr}
 80057de:	4605      	mov	r5, r0
 80057e0:	2900      	cmp	r1, #0
 80057e2:	d040      	beq.n	8005866 <_free_r+0x8a>
 80057e4:	f851 3c04 	ldr.w	r3, [r1, #-4]
 80057e8:	1f0c      	subs	r4, r1, #4
 80057ea:	2b00      	cmp	r3, #0
 80057ec:	bfb8      	it	lt
 80057ee:	18e4      	addlt	r4, r4, r3
 80057f0:	f000 fcbe 	bl	8006170 <__malloc_lock>
 80057f4:	4a1c      	ldr	r2, [pc, #112]	; (8005868 <_free_r+0x8c>)
 80057f6:	6813      	ldr	r3, [r2, #0]
 80057f8:	b933      	cbnz	r3, 8005808 <_free_r+0x2c>
 80057fa:	6063      	str	r3, [r4, #4]
 80057fc:	6014      	str	r4, [r2, #0]
 80057fe:	4628      	mov	r0, r5
 8005800:	e8bd 4038 	ldmia.w	sp!, {r3, r4, r5, lr}
 8005804:	f000 bcba 	b.w	800617c <__malloc_unlock>
 8005808:	42a3      	cmp	r3, r4
 800580a:	d908      	bls.n	800581e <_free_r+0x42>
 800580c:	6820      	ldr	r0, [r4, #0]
 800580e:	1821      	adds	r1, r4, r0
 8005810:	428b      	cmp	r3, r1
 8005812:	bf01      	itttt	eq
 8005814:	6819      	ldreq	r1, [r3, #0]
 8005816:	685b      	ldreq	r3, [r3, #4]
 8005818:	1809      	addeq	r1, r1, r0
 800581a:	6021      	streq	r1, [r4, #0]
 800581c:	e7ed      	b.n	80057fa <_free_r+0x1e>
 800581e:	461a      	mov	r2, r3
 8005820:	685b      	ldr	r3, [r3, #4]
 8005822:	b10b      	cbz	r3, 8005828 <_free_r+0x4c>
 8005824:	42a3      	cmp	r3, r4
 8005826:	d9fa      	bls.n	800581e <_free_r+0x42>
 8005828:	6811      	ldr	r1, [r2, #0]
 800582a:	1850      	adds	r0, r2, r1
 800582c:	42a0      	cmp	r0, r4
 800582e:	d10b      	bne.n	8005848 <_free_r+0x6c>
 8005830:	6820      	ldr	r0, [r4, #0]
 8005832:	4401      	add	r1, r0
 8005834:	1850      	adds	r0, r2, r1
 8005836:	4283      	cmp	r3, r0
 8005838:	6011      	str	r1, [r2, #0]
 800583a:	d1e0      	bne.n	80057fe <_free_r+0x22>
 800583c:	6818      	ldr	r0, [r3, #0]
 800583e:	685b      	ldr	r3, [r3, #4]
 8005840:	4401      	add	r1, r0
 8005842:	6011      	str	r1, [r2, #0]
 8005844:	6053      	str	r3, [r2, #4]
 8005846:	e7da      	b.n	80057fe <_free_r+0x22>
 8005848:	d902      	bls.n	8005850 <_free_r+0x74>
 800584a:	230c      	movs	r3, #12
 800584c:	602b      	str	r3, [r5, #0]
 800584e:	e7d6      	b.n	80057fe <_free_r+0x22>
 8005850:	6820      	ldr	r0, [r4, #0]
 8005852:	1821      	adds	r1, r4, r0
 8005854:	428b      	cmp	r3, r1
 8005856:	bf01      	itttt	eq
 8005858:	6819      	ldreq	r1, [r3, #0]
 800585a:	685b      	ldreq	r3, [r3, #4]
 800585c:	1809      	addeq	r1, r1, r0
 800585e:	6021      	streq	r1, [r4, #0]
 8005860:	6063      	str	r3, [r4, #4]
 8005862:	6054      	str	r4, [r2, #4]
 8005864:	e7cb      	b.n	80057fe <_free_r+0x22>
 8005866:	bd38      	pop	{r3, r4, r5, pc}
 8005868:	200012c4 	.word	0x200012c4

0800586c <sbrk_aligned>:
 800586c:	b570      	push	{r4, r5, r6, lr}
 800586e:	4e0e      	ldr	r6, [pc, #56]	; (80058a8 <sbrk_aligned+0x3c>)
 8005870:	460c      	mov	r4, r1
 8005872:	6831      	ldr	r1, [r6, #0]
 8005874:	4605      	mov	r5, r0
 8005876:	b911      	cbnz	r1, 800587e <sbrk_aligned+0x12>
 8005878:	f000 fbc2 	bl	8006000 <_sbrk_r>
 800587c:	6030      	str	r0, [r6, #0]
 800587e:	4621      	mov	r1, r4
 8005880:	4628      	mov	r0, r5
 8005882:	f000 fbbd 	bl	8006000 <_sbrk_r>
 8005886:	1c43      	adds	r3, r0, #1
 8005888:	d00a      	beq.n	80058a0 <sbrk_aligned+0x34>
 800588a:	1cc4      	adds	r4, r0, #3
 800588c:	f024 0403 	bic.w	r4, r4, #3
 8005890:	42a0      	cmp	r0, r4
 8005892:	d007      	beq.n	80058a4 <sbrk_aligned+0x38>
 8005894:	1a21      	subs	r1, r4, r0
 8005896:	4628      	mov	r0, r5
 8005898:	f000 fbb2 	bl	8006000 <_sbrk_r>
 800589c:	3001      	adds	r0, #1
 800589e:	d101      	bne.n	80058a4 <sbrk_aligned+0x38>
 80058a0:	f04f 34ff 	mov.w	r4, #4294967295
 80058a4:	4620      	mov	r0, r4
 80058a6:	bd70      	pop	{r4, r5, r6, pc}
 80058a8:	200012c8 	.word	0x200012c8

080058ac <_malloc_r>:
 80058ac:	e92d 41f0 	stmdb	sp!, {r4, r5, r6, r7, r8, lr}
 80058b0:	1ccd      	adds	r5, r1, #3
 80058b2:	f025 0503 	bic.w	r5, r5, #3
 80058b6:	3508      	adds	r5, #8
 80058b8:	2d0c      	cmp	r5, #12
 80058ba:	bf38      	it	cc
 80058bc:	250c      	movcc	r5, #12
 80058be:	2d00      	cmp	r5, #0
 80058c0:	4607      	mov	r7, r0
 80058c2:	db01      	blt.n	80058c8 <_malloc_r+0x1c>
 80058c4:	42a9      	cmp	r1, r5
 80058c6:	d905      	bls.n	80058d4 <_malloc_r+0x28>
 80058c8:	230c      	movs	r3, #12
 80058ca:	2600      	movs	r6, #0
 80058cc:	603b      	str	r3, [r7, #0]
 80058ce:	4630      	mov	r0, r6
 80058d0:	e8bd 81f0 	ldmia.w	sp!, {r4, r5, r6, r7, r8, pc}
 80058d4:	4e2e      	ldr	r6, [pc, #184]	; (8005990 <_malloc_r+0xe4>)
 80058d6:	f000 fc4b 	bl	8006170 <__malloc_lock>
 80058da:	6833      	ldr	r3, [r6, #0]
 80058dc:	461c      	mov	r4, r3
 80058de:	bb34      	cbnz	r4, 800592e <_malloc_r+0x82>
 80058e0:	4629      	mov	r1, r5
 80058e2:	4638      	mov	r0, r7
 80058e4:	f7ff ffc2 	bl	800586c <sbrk_aligned>
 80058e8:	1c43      	adds	r3, r0, #1
 80058ea:	4604      	mov	r4, r0
 80058ec:	d14d      	bne.n	800598a <_malloc_r+0xde>
 80058ee:	6834      	ldr	r4, [r6, #0]
 80058f0:	4626      	mov	r6, r4
 80058f2:	2e00      	cmp	r6, #0
 80058f4:	d140      	bne.n	8005978 <_malloc_r+0xcc>
 80058f6:	6823      	ldr	r3, [r4, #0]
 80058f8:	4631      	mov	r1, r6
 80058fa:	4638      	mov	r0, r7
 80058fc:	eb04 0803 	add.w	r8, r4, r3
 8005900:	f000 fb7e 	bl	8006000 <_sbrk_r>
 8005904:	4580      	cmp	r8, r0
 8005906:	d13a      	bne.n	800597e <_malloc_r+0xd2>
 8005908:	6821      	ldr	r1, [r4, #0]
 800590a:	3503      	adds	r5, #3
 800590c:	1a6d      	subs	r5, r5, r1
 800590e:	f025 0503 	bic.w	r5, r5, #3
 8005912:	3508      	adds	r5, #8
 8005914:	2d0c      	cmp	r5, #12
 8005916:	bf38      	it	cc
 8005918:	250c      	movcc	r5, #12
 800591a:	4638      	mov	r0, r7
 800591c:	4629      	mov	r1, r5
 800591e:	f7ff ffa5 	bl	800586c <sbrk_aligned>
 8005922:	3001      	adds	r0, #1
 8005924:	d02b      	beq.n	800597e <_malloc_r+0xd2>
 8005926:	6823      	ldr	r3, [r4, #0]
 8005928:	442b      	add	r3, r5
 800592a:	6023      	str	r3, [r4, #0]
 800592c:	e00e      	b.n	800594c <_malloc_r+0xa0>
 800592e:	6822      	ldr	r2, [r4, #0]
 8005930:	1b52      	subs	r2, r2, r5
 8005932:	d41e      	bmi.n	8005972 <_malloc_r+0xc6>
 8005934:	2a0b      	cmp	r2, #11
 8005936:	d916      	bls.n	8005966 <_malloc_r+0xba>
 8005938:	1961      	adds	r1, r4, r5
 800593a:	42a3      	cmp	r3, r4
 800593c:	6025      	str	r5, [r4, #0]
 800593e:	bf18      	it	ne
 8005940:	6059      	strne	r1, [r3, #4]
 8005942:	6863      	ldr	r3, [r4, #4]
 8005944:	bf08      	it	eq
 8005946:	6031      	streq	r1, [r6, #0]
 8005948:	5162      	str	r2, [r4, r5]
 800594a:	604b      	str	r3, [r1, #4]
 800594c:	4638      	mov	r0, r7
 800594e:	f104 060b 	add.w	r6, r4, #11
 8005952:	f000 fc13 	bl	800617c <__malloc_unlock>
 8005956:	f026 0607 	bic.w	r6, r6, #7
 800595a:	1d23      	adds	r3, r4, #4
 800595c:	1af2      	subs	r2, r6, r3
 800595e:	d0b6      	beq.n	80058ce <_malloc_r+0x22>
 8005960:	1b9b      	subs	r3, r3, r6
 8005962:	50a3      	str	r3, [r4, r2]
 8005964:	e7b3      	b.n	80058ce <_malloc_r+0x22>
 8005966:	6862      	ldr	r2, [r4, #4]
 8005968:	42a3      	cmp	r3, r4
 800596a:	bf0c      	ite	eq
 800596c:	6032      	streq	r2, [r6, #0]
 800596e:	605a      	strne	r2, [r3, #4]
 8005970:	e7ec      	b.n	800594c <_malloc_r+0xa0>
 8005972:	4623      	mov	r3, r4
 8005974:	6864      	ldr	r4, [r4, #4]
 8005976:	e7b2      	b.n	80058de <_malloc_r+0x32>
 8005978:	4634      	mov	r4, r6
 800597a:	6876      	ldr	r6, [r6, #4]
 800597c:	e7b9      	b.n	80058f2 <_malloc_r+0x46>
 800597e:	230c      	movs	r3, #12
 8005980:	4638      	mov	r0, r7
 8005982:	603b      	str	r3, [r7, #0]
 8005984:	f000 fbfa 	bl	800617c <__malloc_unlock>
 8005988:	e7a1      	b.n	80058ce <_malloc_r+0x22>
 800598a:	6025      	str	r5, [r4, #0]
 800598c:	e7de      	b.n	800594c <_malloc_r+0xa0>
 800598e:	bf00      	nop
 8005990:	200012c4 	.word	0x200012c4

08005994 <__sfputc_r>:
 8005994:	6893      	ldr	r3, [r2, #8]
 8005996:	b410      	push	{r4}
 8005998:	3b01      	subs	r3, #1
 800599a:	2b00      	cmp	r3, #0
 800599c:	6093      	str	r3, [r2, #8]
 800599e:	da07      	bge.n	80059b0 <__sfputc_r+0x1c>
 80059a0:	6994      	ldr	r4, [r2, #24]
 80059a2:	42a3      	cmp	r3, r4
 80059a4:	db01      	blt.n	80059aa <__sfputc_r+0x16>
 80059a6:	290a      	cmp	r1, #10
 80059a8:	d102      	bne.n	80059b0 <__sfputc_r+0x1c>
 80059aa:	bc10      	pop	{r4}
 80059ac:	f7ff bc3a 	b.w	8005224 <__swbuf_r>
 80059b0:	6813      	ldr	r3, [r2, #0]
 80059b2:	1c58      	adds	r0, r3, #1
 80059b4:	6010      	str	r0, [r2, #0]
 80059b6:	7019      	strb	r1, [r3, #0]
 80059b8:	4608      	mov	r0, r1
 80059ba:	bc10      	pop	{r4}
 80059bc:	4770      	bx	lr

080059be <__sfputs_r>:
 80059be:	b5f8      	push	{r3, r4, r5, r6, r7, lr}
 80059c0:	4606      	mov	r6, r0
 80059c2:	460f      	mov	r7, r1
 80059c4:	4614      	mov	r4, r2
 80059c6:	18d5      	adds	r5, r2, r3
 80059c8:	42ac      	cmp	r4, r5
 80059ca:	d101      	bne.n	80059d0 <__sfputs_r+0x12>
 80059cc:	2000      	movs	r0, #0
 80059ce:	e007      	b.n	80059e0 <__sfputs_r+0x22>
 80059d0:	463a      	mov	r2, r7
 80059d2:	4630      	mov	r0, r6
 80059d4:	f814 1b01 	ldrb.w	r1, [r4], #1
 80059d8:	f7ff ffdc 	bl	8005994 <__sfputc_r>
 80059dc:	1c43      	adds	r3, r0, #1
 80059de:	d1f3      	bne.n	80059c8 <__sfputs_r+0xa>
 80059e0:	bdf8      	pop	{r3, r4, r5, r6, r7, pc}
	...

080059e4 <_vfiprintf_r>:
 80059e4:	e92d 4ff0 	stmdb	sp!, {r4, r5, r6, r7, r8, r9, sl, fp, lr}
 80059e8:	460d      	mov	r5, r1
 80059ea:	4614      	mov	r4, r2
 80059ec:	4698      	mov	r8, r3
 80059ee:	4606      	mov	r6, r0
 80059f0:	b09d      	sub	sp, #116	; 0x74
 80059f2:	b118      	cbz	r0, 80059fc <_vfiprintf_r+0x18>
 80059f4:	6983      	ldr	r3, [r0, #24]
 80059f6:	b90b      	cbnz	r3, 80059fc <_vfiprintf_r+0x18>
 80059f8:	f7ff fdea 	bl	80055d0 <__sinit>
 80059fc:	4b89      	ldr	r3, [pc, #548]	; (8005c24 <_vfiprintf_r+0x240>)
 80059fe:	429d      	cmp	r5, r3
 8005a00:	d11b      	bne.n	8005a3a <_vfiprintf_r+0x56>
 8005a02:	6875      	ldr	r5, [r6, #4]
 8005a04:	6e6b      	ldr	r3, [r5, #100]	; 0x64
 8005a06:	07d9      	lsls	r1, r3, #31
 8005a08:	d405      	bmi.n	8005a16 <_vfiprintf_r+0x32>
 8005a0a:	89ab      	ldrh	r3, [r5, #12]
 8005a0c:	059a      	lsls	r2, r3, #22
 8005a0e:	d402      	bmi.n	8005a16 <_vfiprintf_r+0x32>
 8005a10:	6da8      	ldr	r0, [r5, #88]	; 0x58
 8005a12:	f7ff fe7b 	bl	800570c <__retarget_lock_acquire_recursive>
 8005a16:	89ab      	ldrh	r3, [r5, #12]
 8005a18:	071b      	lsls	r3, r3, #28
 8005a1a:	d501      	bpl.n	8005a20 <_vfiprintf_r+0x3c>
 8005a1c:	692b      	ldr	r3, [r5, #16]
 8005a1e:	b9eb      	cbnz	r3, 8005a5c <_vfiprintf_r+0x78>
 8005a20:	4629      	mov	r1, r5
 8005a22:	4630      	mov	r0, r6
 8005a24:	f7ff fc50 	bl	80052c8 <__swsetup_r>
 8005a28:	b1c0      	cbz	r0, 8005a5c <_vfiprintf_r+0x78>
 8005a2a:	6e6b      	ldr	r3, [r5, #100]	; 0x64
 8005a2c:	07dc      	lsls	r4, r3, #31
 8005a2e:	d50e      	bpl.n	8005a4e <_vfiprintf_r+0x6a>
 8005a30:	f04f 30ff 	mov.w	r0, #4294967295
 8005a34:	b01d      	add	sp, #116	; 0x74
 8005a36:	e8bd 8ff0 	ldmia.w	sp!, {r4, r5, r6, r7, r8, r9, sl, fp, pc}
 8005a3a:	4b7b      	ldr	r3, [pc, #492]	; (8005c28 <_vfiprintf_r+0x244>)
 8005a3c:	429d      	cmp	r5, r3
 8005a3e:	d101      	bne.n	8005a44 <_vfiprintf_r+0x60>
 8005a40:	68b5      	ldr	r5, [r6, #8]
 8005a42:	e7df      	b.n	8005a04 <_vfiprintf_r+0x20>
 8005a44:	4b79      	ldr	r3, [pc, #484]	; (8005c2c <_vfiprintf_r+0x248>)
 8005a46:	429d      	cmp	r5, r3
 8005a48:	bf08      	it	eq
 8005a4a:	68f5      	ldreq	r5, [r6, #12]
 8005a4c:	e7da      	b.n	8005a04 <_vfiprintf_r+0x20>
 8005a4e:	89ab      	ldrh	r3, [r5, #12]
 8005a50:	0598      	lsls	r0, r3, #22
 8005a52:	d4ed      	bmi.n	8005a30 <_vfiprintf_r+0x4c>
 8005a54:	6da8      	ldr	r0, [r5, #88]	; 0x58
 8005a56:	f7ff fe5a 	bl	800570e <__retarget_lock_release_recursive>
 8005a5a:	e7e9      	b.n	8005a30 <_vfiprintf_r+0x4c>
 8005a5c:	2300      	movs	r3, #0
 8005a5e:	9309      	str	r3, [sp, #36]	; 0x24
 8005a60:	2320      	movs	r3, #32
 8005a62:	f88d 3029 	strb.w	r3, [sp, #41]	; 0x29
 8005a66:	2330      	movs	r3, #48	; 0x30
 8005a68:	f04f 0901 	mov.w	r9, #1
 8005a6c:	f8cd 800c 	str.w	r8, [sp, #12]
 8005a70:	f8df 81bc 	ldr.w	r8, [pc, #444]	; 8005c30 <_vfiprintf_r+0x24c>
 8005a74:	f88d 302a 	strb.w	r3, [sp, #42]	; 0x2a
 8005a78:	4623      	mov	r3, r4
 8005a7a:	469a      	mov	sl, r3
 8005a7c:	f813 2b01 	ldrb.w	r2, [r3], #1
 8005a80:	b10a      	cbz	r2, 8005a86 <_vfiprintf_r+0xa2>
 8005a82:	2a25      	cmp	r2, #37	; 0x25
 8005a84:	d1f9      	bne.n	8005a7a <_vfiprintf_r+0x96>
 8005a86:	ebba 0b04 	subs.w	fp, sl, r4
 8005a8a:	d00b      	beq.n	8005aa4 <_vfiprintf_r+0xc0>
 8005a8c:	465b      	mov	r3, fp
 8005a8e:	4622      	mov	r2, r4
 8005a90:	4629      	mov	r1, r5
 8005a92:	4630      	mov	r0, r6
 8005a94:	f7ff ff93 	bl	80059be <__sfputs_r>
 8005a98:	3001      	adds	r0, #1
 8005a9a:	f000 80aa 	beq.w	8005bf2 <_vfiprintf_r+0x20e>
 8005a9e:	9a09      	ldr	r2, [sp, #36]	; 0x24
 8005aa0:	445a      	add	r2, fp
 8005aa2:	9209      	str	r2, [sp, #36]	; 0x24
 8005aa4:	f89a 3000 	ldrb.w	r3, [sl]
 8005aa8:	2b00      	cmp	r3, #0
 8005aaa:	f000 80a2 	beq.w	8005bf2 <_vfiprintf_r+0x20e>
 8005aae:	2300      	movs	r3, #0
 8005ab0:	f04f 32ff 	mov.w	r2, #4294967295
 8005ab4:	e9cd 2305 	strd	r2, r3, [sp, #20]
 8005ab8:	f10a 0a01 	add.w	sl, sl, #1
 8005abc:	9304      	str	r3, [sp, #16]
 8005abe:	9307      	str	r3, [sp, #28]
 8005ac0:	f88d 3053 	strb.w	r3, [sp, #83]	; 0x53
 8005ac4:	931a      	str	r3, [sp, #104]	; 0x68
 8005ac6:	4654      	mov	r4, sl
 8005ac8:	2205      	movs	r2, #5
 8005aca:	f814 1b01 	ldrb.w	r1, [r4], #1
 8005ace:	4858      	ldr	r0, [pc, #352]	; (8005c30 <_vfiprintf_r+0x24c>)
 8005ad0:	f000 fb40 	bl	8006154 <memchr>
 8005ad4:	9a04      	ldr	r2, [sp, #16]
 8005ad6:	b9d8      	cbnz	r0, 8005b10 <_vfiprintf_r+0x12c>
 8005ad8:	06d1      	lsls	r1, r2, #27
 8005ada:	bf44      	itt	mi
 8005adc:	2320      	movmi	r3, #32
 8005ade:	f88d 3053 	strbmi.w	r3, [sp, #83]	; 0x53
 8005ae2:	0713      	lsls	r3, r2, #28
 8005ae4:	bf44      	itt	mi
 8005ae6:	232b      	movmi	r3, #43	; 0x2b
 8005ae8:	f88d 3053 	strbmi.w	r3, [sp, #83]	; 0x53
 8005aec:	f89a 3000 	ldrb.w	r3, [sl]
 8005af0:	2b2a      	cmp	r3, #42	; 0x2a
 8005af2:	d015      	beq.n	8005b20 <_vfiprintf_r+0x13c>
 8005af4:	4654      	mov	r4, sl
 8005af6:	2000      	movs	r0, #0
 8005af8:	f04f 0c0a 	mov.w	ip, #10
 8005afc:	9a07      	ldr	r2, [sp, #28]
 8005afe:	4621      	mov	r1, r4
 8005b00:	f811 3b01 	ldrb.w	r3, [r1], #1
 8005b04:	3b30      	subs	r3, #48	; 0x30
 8005b06:	2b09      	cmp	r3, #9
 8005b08:	d94e      	bls.n	8005ba8 <_vfiprintf_r+0x1c4>
 8005b0a:	b1b0      	cbz	r0, 8005b3a <_vfiprintf_r+0x156>
 8005b0c:	9207      	str	r2, [sp, #28]
 8005b0e:	e014      	b.n	8005b3a <_vfiprintf_r+0x156>
 8005b10:	eba0 0308 	sub.w	r3, r0, r8
 8005b14:	fa09 f303 	lsl.w	r3, r9, r3
 8005b18:	4313      	orrs	r3, r2
 8005b1a:	46a2      	mov	sl, r4
 8005b1c:	9304      	str	r3, [sp, #16]
 8005b1e:	e7d2      	b.n	8005ac6 <_vfiprintf_r+0xe2>
 8005b20:	9b03      	ldr	r3, [sp, #12]
 8005b22:	1d19      	adds	r1, r3, #4
 8005b24:	681b      	ldr	r3, [r3, #0]
 8005b26:	9103      	str	r1, [sp, #12]
 8005b28:	2b00      	cmp	r3, #0
 8005b2a:	bfbb      	ittet	lt
 8005b2c:	425b      	neglt	r3, r3
 8005b2e:	f042 0202 	orrlt.w	r2, r2, #2
 8005b32:	9307      	strge	r3, [sp, #28]
 8005b34:	9307      	strlt	r3, [sp, #28]
 8005b36:	bfb8      	it	lt
 8005b38:	9204      	strlt	r2, [sp, #16]
 8005b3a:	7823      	ldrb	r3, [r4, #0]
 8005b3c:	2b2e      	cmp	r3, #46	; 0x2e
 8005b3e:	d10c      	bne.n	8005b5a <_vfiprintf_r+0x176>
 8005b40:	7863      	ldrb	r3, [r4, #1]
 8005b42:	2b2a      	cmp	r3, #42	; 0x2a
 8005b44:	d135      	bne.n	8005bb2 <_vfiprintf_r+0x1ce>
 8005b46:	9b03      	ldr	r3, [sp, #12]
 8005b48:	3402      	adds	r4, #2
 8005b4a:	1d1a      	adds	r2, r3, #4
 8005b4c:	681b      	ldr	r3, [r3, #0]
 8005b4e:	9203      	str	r2, [sp, #12]
 8005b50:	2b00      	cmp	r3, #0
 8005b52:	bfb8      	it	lt
 8005b54:	f04f 33ff 	movlt.w	r3, #4294967295
 8005b58:	9305      	str	r3, [sp, #20]
 8005b5a:	f8df a0d8 	ldr.w	sl, [pc, #216]	; 8005c34 <_vfiprintf_r+0x250>
 8005b5e:	2203      	movs	r2, #3
 8005b60:	4650      	mov	r0, sl
 8005b62:	7821      	ldrb	r1, [r4, #0]
 8005b64:	f000 faf6 	bl	8006154 <memchr>
 8005b68:	b140      	cbz	r0, 8005b7c <_vfiprintf_r+0x198>
 8005b6a:	2340      	movs	r3, #64	; 0x40
 8005b6c:	eba0 000a 	sub.w	r0, r0, sl
 8005b70:	fa03 f000 	lsl.w	r0, r3, r0
 8005b74:	9b04      	ldr	r3, [sp, #16]
 8005b76:	3401      	adds	r4, #1
 8005b78:	4303      	orrs	r3, r0
 8005b7a:	9304      	str	r3, [sp, #16]
 8005b7c:	f814 1b01 	ldrb.w	r1, [r4], #1
 8005b80:	2206      	movs	r2, #6
 8005b82:	482d      	ldr	r0, [pc, #180]	; (8005c38 <_vfiprintf_r+0x254>)
 8005b84:	f88d 1028 	strb.w	r1, [sp, #40]	; 0x28
 8005b88:	f000 fae4 	bl	8006154 <memchr>
 8005b8c:	2800      	cmp	r0, #0
 8005b8e:	d03f      	beq.n	8005c10 <_vfiprintf_r+0x22c>
 8005b90:	4b2a      	ldr	r3, [pc, #168]	; (8005c3c <_vfiprintf_r+0x258>)
 8005b92:	bb1b      	cbnz	r3, 8005bdc <_vfiprintf_r+0x1f8>
 8005b94:	9b03      	ldr	r3, [sp, #12]
 8005b96:	3307      	adds	r3, #7
 8005b98:	f023 0307 	bic.w	r3, r3, #7
 8005b9c:	3308      	adds	r3, #8
 8005b9e:	9303      	str	r3, [sp, #12]
 8005ba0:	9b09      	ldr	r3, [sp, #36]	; 0x24
 8005ba2:	443b      	add	r3, r7
 8005ba4:	9309      	str	r3, [sp, #36]	; 0x24
 8005ba6:	e767      	b.n	8005a78 <_vfiprintf_r+0x94>
 8005ba8:	460c      	mov	r4, r1
 8005baa:	2001      	movs	r0, #1
 8005bac:	fb0c 3202 	mla	r2, ip, r2, r3
 8005bb0:	e7a5      	b.n	8005afe <_vfiprintf_r+0x11a>
 8005bb2:	2300      	movs	r3, #0
 8005bb4:	f04f 0c0a 	mov.w	ip, #10
 8005bb8:	4619      	mov	r1, r3
 8005bba:	3401      	adds	r4, #1
 8005bbc:	9305      	str	r3, [sp, #20]
 8005bbe:	4620      	mov	r0, r4
 8005bc0:	f810 2b01 	ldrb.w	r2, [r0], #1
 8005bc4:	3a30      	subs	r2, #48	; 0x30
 8005bc6:	2a09      	cmp	r2, #9
 8005bc8:	d903      	bls.n	8005bd2 <_vfiprintf_r+0x1ee>
 8005bca:	2b00      	cmp	r3, #0
 8005bcc:	d0c5      	beq.n	8005b5a <_vfiprintf_r+0x176>
 8005bce:	9105      	str	r1, [sp, #20]
 8005bd0:	e7c3      	b.n	8005b5a <_vfiprintf_r+0x176>
 8005bd2:	4604      	mov	r4, r0
 8005bd4:	2301      	movs	r3, #1
 8005bd6:	fb0c 2101 	mla	r1, ip, r1, r2
 8005bda:	e7f0      	b.n	8005bbe <_vfiprintf_r+0x1da>
 8005bdc:	ab03      	add	r3, sp, #12
 8005bde:	9300      	str	r3, [sp, #0]
 8005be0:	462a      	mov	r2, r5
 8005be2:	4630      	mov	r0, r6
 8005be4:	4b16      	ldr	r3, [pc, #88]	; (8005c40 <_vfiprintf_r+0x25c>)
 8005be6:	a904      	add	r1, sp, #16
 8005be8:	f3af 8000 	nop.w
 8005bec:	4607      	mov	r7, r0
 8005bee:	1c78      	adds	r0, r7, #1
 8005bf0:	d1d6      	bne.n	8005ba0 <_vfiprintf_r+0x1bc>
 8005bf2:	6e6b      	ldr	r3, [r5, #100]	; 0x64
 8005bf4:	07d9      	lsls	r1, r3, #31
 8005bf6:	d405      	bmi.n	8005c04 <_vfiprintf_r+0x220>
 8005bf8:	89ab      	ldrh	r3, [r5, #12]
 8005bfa:	059a      	lsls	r2, r3, #22
 8005bfc:	d402      	bmi.n	8005c04 <_vfiprintf_r+0x220>
 8005bfe:	6da8      	ldr	r0, [r5, #88]	; 0x58
 8005c00:	f7ff fd85 	bl	800570e <__retarget_lock_release_recursive>
 8005c04:	89ab      	ldrh	r3, [r5, #12]
 8005c06:	065b      	lsls	r3, r3, #25
 8005c08:	f53f af12 	bmi.w	8005a30 <_vfiprintf_r+0x4c>
 8005c0c:	9809      	ldr	r0, [sp, #36]	; 0x24
 8005c0e:	e711      	b.n	8005a34 <_vfiprintf_r+0x50>
 8005c10:	ab03      	add	r3, sp, #12
 8005c12:	9300      	str	r3, [sp, #0]
 8005c14:	462a      	mov	r2, r5
 8005c16:	4630      	mov	r0, r6
 8005c18:	4b09      	ldr	r3, [pc, #36]	; (8005c40 <_vfiprintf_r+0x25c>)
 8005c1a:	a904      	add	r1, sp, #16
 8005c1c:	f000 f882 	bl	8005d24 <_printf_i>
 8005c20:	e7e4      	b.n	8005bec <_vfiprintf_r+0x208>
 8005c22:	bf00      	nop
 8005c24:	080062e4 	.word	0x080062e4
 8005c28:	08006304 	.word	0x08006304
 8005c2c:	080062c4 	.word	0x080062c4
 8005c30:	08006324 	.word	0x08006324
 8005c34:	0800632a 	.word	0x0800632a
 8005c38:	0800632e 	.word	0x0800632e
 8005c3c:	00000000 	.word	0x00000000
 8005c40:	080059bf 	.word	0x080059bf

08005c44 <_printf_common>:
 8005c44:	e92d 47f0 	stmdb	sp!, {r4, r5, r6, r7, r8, r9, sl, lr}
 8005c48:	4616      	mov	r6, r2
 8005c4a:	4699      	mov	r9, r3
 8005c4c:	688a      	ldr	r2, [r1, #8]
 8005c4e:	690b      	ldr	r3, [r1, #16]
 8005c50:	4607      	mov	r7, r0
 8005c52:	4293      	cmp	r3, r2
 8005c54:	bfb8      	it	lt
 8005c56:	4613      	movlt	r3, r2
 8005c58:	6033      	str	r3, [r6, #0]
 8005c5a:	f891 2043 	ldrb.w	r2, [r1, #67]	; 0x43
 8005c5e:	460c      	mov	r4, r1
 8005c60:	f8dd 8020 	ldr.w	r8, [sp, #32]
 8005c64:	b10a      	cbz	r2, 8005c6a <_printf_common+0x26>
 8005c66:	3301      	adds	r3, #1
 8005c68:	6033      	str	r3, [r6, #0]
 8005c6a:	6823      	ldr	r3, [r4, #0]
 8005c6c:	0699      	lsls	r1, r3, #26
 8005c6e:	bf42      	ittt	mi
 8005c70:	6833      	ldrmi	r3, [r6, #0]
 8005c72:	3302      	addmi	r3, #2
 8005c74:	6033      	strmi	r3, [r6, #0]
 8005c76:	6825      	ldr	r5, [r4, #0]
 8005c78:	f015 0506 	ands.w	r5, r5, #6
 8005c7c:	d106      	bne.n	8005c8c <_printf_common+0x48>
 8005c7e:	f104 0a19 	add.w	sl, r4, #25
 8005c82:	68e3      	ldr	r3, [r4, #12]
 8005c84:	6832      	ldr	r2, [r6, #0]
 8005c86:	1a9b      	subs	r3, r3, r2
 8005c88:	42ab      	cmp	r3, r5
 8005c8a:	dc28      	bgt.n	8005cde <_printf_common+0x9a>
 8005c8c:	f894 2043 	ldrb.w	r2, [r4, #67]	; 0x43
 8005c90:	1e13      	subs	r3, r2, #0
 8005c92:	6822      	ldr	r2, [r4, #0]
 8005c94:	bf18      	it	ne
 8005c96:	2301      	movne	r3, #1
 8005c98:	0692      	lsls	r2, r2, #26
 8005c9a:	d42d      	bmi.n	8005cf8 <_printf_common+0xb4>
 8005c9c:	4649      	mov	r1, r9
 8005c9e:	4638      	mov	r0, r7
 8005ca0:	f104 0243 	add.w	r2, r4, #67	; 0x43
 8005ca4:	47c0      	blx	r8
 8005ca6:	3001      	adds	r0, #1
 8005ca8:	d020      	beq.n	8005cec <_printf_common+0xa8>
 8005caa:	6823      	ldr	r3, [r4, #0]
 8005cac:	68e5      	ldr	r5, [r4, #12]
 8005cae:	f003 0306 	and.w	r3, r3, #6
 8005cb2:	2b04      	cmp	r3, #4
 8005cb4:	bf18      	it	ne
 8005cb6:	2500      	movne	r5, #0
 8005cb8:	6832      	ldr	r2, [r6, #0]
 8005cba:	f04f 0600 	mov.w	r6, #0
 8005cbe:	68a3      	ldr	r3, [r4, #8]
 8005cc0:	bf08      	it	eq
 8005cc2:	1aad      	subeq	r5, r5, r2
 8005cc4:	6922      	ldr	r2, [r4, #16]
 8005cc6:	bf08      	it	eq
 8005cc8:	ea25 75e5 	biceq.w	r5, r5, r5, asr #31
 8005ccc:	4293      	cmp	r3, r2
 8005cce:	bfc4      	itt	gt
 8005cd0:	1a9b      	subgt	r3, r3, r2
 8005cd2:	18ed      	addgt	r5, r5, r3
 8005cd4:	341a      	adds	r4, #26
 8005cd6:	42b5      	cmp	r5, r6
 8005cd8:	d11a      	bne.n	8005d10 <_printf_common+0xcc>
 8005cda:	2000      	movs	r0, #0
 8005cdc:	e008      	b.n	8005cf0 <_printf_common+0xac>
 8005cde:	2301      	movs	r3, #1
 8005ce0:	4652      	mov	r2, sl
 8005ce2:	4649      	mov	r1, r9
 8005ce4:	4638      	mov	r0, r7
 8005ce6:	47c0      	blx	r8
 8005ce8:	3001      	adds	r0, #1
 8005cea:	d103      	bne.n	8005cf4 <_printf_common+0xb0>
 8005cec:	f04f 30ff 	mov.w	r0, #4294967295
 8005cf0:	e8bd 87f0 	ldmia.w	sp!, {r4, r5, r6, r7, r8, r9, sl, pc}
 8005cf4:	3501      	adds	r5, #1
 8005cf6:	e7c4      	b.n	8005c82 <_printf_common+0x3e>
 8005cf8:	2030      	movs	r0, #48	; 0x30
 8005cfa:	18e1      	adds	r1, r4, r3
 8005cfc:	f881 0043 	strb.w	r0, [r1, #67]	; 0x43
 8005d00:	1c5a      	adds	r2, r3, #1
 8005d02:	f894 1045 	ldrb.w	r1, [r4, #69]	; 0x45
 8005d06:	4422      	add	r2, r4
 8005d08:	3302      	adds	r3, #2
 8005d0a:	f882 1043 	strb.w	r1, [r2, #67]	; 0x43
 8005d0e:	e7c5      	b.n	8005c9c <_printf_common+0x58>
 8005d10:	2301      	movs	r3, #1
 8005d12:	4622      	mov	r2, r4
 8005d14:	4649      	mov	r1, r9
 8005d16:	4638      	mov	r0, r7
 8005d18:	47c0      	blx	r8
 8005d1a:	3001      	adds	r0, #1
 8005d1c:	d0e6      	beq.n	8005cec <_printf_common+0xa8>
 8005d1e:	3601      	adds	r6, #1
 8005d20:	e7d9      	b.n	8005cd6 <_printf_common+0x92>
	...

08005d24 <_printf_i>:
 8005d24:	e92d 47ff 	stmdb	sp!, {r0, r1, r2, r3, r4, r5, r6, r7, r8, r9, sl, lr}
 8005d28:	7e0f      	ldrb	r7, [r1, #24]
 8005d2a:	4691      	mov	r9, r2
 8005d2c:	2f78      	cmp	r7, #120	; 0x78
 8005d2e:	4680      	mov	r8, r0
 8005d30:	460c      	mov	r4, r1
 8005d32:	469a      	mov	sl, r3
 8005d34:	9d0c      	ldr	r5, [sp, #48]	; 0x30
 8005d36:	f101 0243 	add.w	r2, r1, #67	; 0x43
 8005d3a:	d807      	bhi.n	8005d4c <_printf_i+0x28>
 8005d3c:	2f62      	cmp	r7, #98	; 0x62
 8005d3e:	d80a      	bhi.n	8005d56 <_printf_i+0x32>
 8005d40:	2f00      	cmp	r7, #0
 8005d42:	f000 80d9 	beq.w	8005ef8 <_printf_i+0x1d4>
 8005d46:	2f58      	cmp	r7, #88	; 0x58
 8005d48:	f000 80a4 	beq.w	8005e94 <_printf_i+0x170>
 8005d4c:	f104 0542 	add.w	r5, r4, #66	; 0x42
 8005d50:	f884 7042 	strb.w	r7, [r4, #66]	; 0x42
 8005d54:	e03a      	b.n	8005dcc <_printf_i+0xa8>
 8005d56:	f1a7 0363 	sub.w	r3, r7, #99	; 0x63
 8005d5a:	2b15      	cmp	r3, #21
 8005d5c:	d8f6      	bhi.n	8005d4c <_printf_i+0x28>
 8005d5e:	a101      	add	r1, pc, #4	; (adr r1, 8005d64 <_printf_i+0x40>)
 8005d60:	f851 f023 	ldr.w	pc, [r1, r3, lsl #2]
 8005d64:	08005dbd 	.word	0x08005dbd
 8005d68:	08005dd1 	.word	0x08005dd1
 8005d6c:	08005d4d 	.word	0x08005d4d
 8005d70:	08005d4d 	.word	0x08005d4d
 8005d74:	08005d4d 	.word	0x08005d4d
 8005d78:	08005d4d 	.word	0x08005d4d
 8005d7c:	08005dd1 	.word	0x08005dd1
 8005d80:	08005d4d 	.word	0x08005d4d
 8005d84:	08005d4d 	.word	0x08005d4d
 8005d88:	08005d4d 	.word	0x08005d4d
 8005d8c:	08005d4d 	.word	0x08005d4d
 8005d90:	08005edf 	.word	0x08005edf
 8005d94:	08005e01 	.word	0x08005e01
 8005d98:	08005ec1 	.word	0x08005ec1
 8005d9c:	08005d4d 	.word	0x08005d4d
 8005da0:	08005d4d 	.word	0x08005d4d
 8005da4:	08005f01 	.word	0x08005f01
 8005da8:	08005d4d 	.word	0x08005d4d
 8005dac:	08005e01 	.word	0x08005e01
 8005db0:	08005d4d 	.word	0x08005d4d
 8005db4:	08005d4d 	.word	0x08005d4d
 8005db8:	08005ec9 	.word	0x08005ec9
 8005dbc:	682b      	ldr	r3, [r5, #0]
 8005dbe:	1d1a      	adds	r2, r3, #4
 8005dc0:	681b      	ldr	r3, [r3, #0]
 8005dc2:	602a      	str	r2, [r5, #0]
 8005dc4:	f104 0542 	add.w	r5, r4, #66	; 0x42
 8005dc8:	f884 3042 	strb.w	r3, [r4, #66]	; 0x42
 8005dcc:	2301      	movs	r3, #1
 8005dce:	e0a4      	b.n	8005f1a <_printf_i+0x1f6>
 8005dd0:	6820      	ldr	r0, [r4, #0]
 8005dd2:	6829      	ldr	r1, [r5, #0]
 8005dd4:	0606      	lsls	r6, r0, #24
 8005dd6:	f101 0304 	add.w	r3, r1, #4
 8005dda:	d50a      	bpl.n	8005df2 <_printf_i+0xce>
 8005ddc:	680e      	ldr	r6, [r1, #0]
 8005dde:	602b      	str	r3, [r5, #0]
 8005de0:	2e00      	cmp	r6, #0
 8005de2:	da03      	bge.n	8005dec <_printf_i+0xc8>
 8005de4:	232d      	movs	r3, #45	; 0x2d
 8005de6:	4276      	negs	r6, r6
 8005de8:	f884 3043 	strb.w	r3, [r4, #67]	; 0x43
 8005dec:	230a      	movs	r3, #10
 8005dee:	485e      	ldr	r0, [pc, #376]	; (8005f68 <_printf_i+0x244>)
 8005df0:	e019      	b.n	8005e26 <_printf_i+0x102>
 8005df2:	680e      	ldr	r6, [r1, #0]
 8005df4:	f010 0f40 	tst.w	r0, #64	; 0x40
 8005df8:	602b      	str	r3, [r5, #0]
 8005dfa:	bf18      	it	ne
 8005dfc:	b236      	sxthne	r6, r6
 8005dfe:	e7ef      	b.n	8005de0 <_printf_i+0xbc>
 8005e00:	682b      	ldr	r3, [r5, #0]
 8005e02:	6820      	ldr	r0, [r4, #0]
 8005e04:	1d19      	adds	r1, r3, #4
 8005e06:	6029      	str	r1, [r5, #0]
 8005e08:	0601      	lsls	r1, r0, #24
 8005e0a:	d501      	bpl.n	8005e10 <_printf_i+0xec>
 8005e0c:	681e      	ldr	r6, [r3, #0]
 8005e0e:	e002      	b.n	8005e16 <_printf_i+0xf2>
 8005e10:	0646      	lsls	r6, r0, #25
 8005e12:	d5fb      	bpl.n	8005e0c <_printf_i+0xe8>
 8005e14:	881e      	ldrh	r6, [r3, #0]
 8005e16:	2f6f      	cmp	r7, #111	; 0x6f
 8005e18:	bf0c      	ite	eq
 8005e1a:	2308      	moveq	r3, #8
 8005e1c:	230a      	movne	r3, #10
 8005e1e:	4852      	ldr	r0, [pc, #328]	; (8005f68 <_printf_i+0x244>)
 8005e20:	2100      	movs	r1, #0
 8005e22:	f884 1043 	strb.w	r1, [r4, #67]	; 0x43
 8005e26:	6865      	ldr	r5, [r4, #4]
 8005e28:	2d00      	cmp	r5, #0
 8005e2a:	bfa8      	it	ge
 8005e2c:	6821      	ldrge	r1, [r4, #0]
 8005e2e:	60a5      	str	r5, [r4, #8]
 8005e30:	bfa4      	itt	ge
 8005e32:	f021 0104 	bicge.w	r1, r1, #4
 8005e36:	6021      	strge	r1, [r4, #0]
 8005e38:	b90e      	cbnz	r6, 8005e3e <_printf_i+0x11a>
 8005e3a:	2d00      	cmp	r5, #0
 8005e3c:	d04d      	beq.n	8005eda <_printf_i+0x1b6>
 8005e3e:	4615      	mov	r5, r2
 8005e40:	fbb6 f1f3 	udiv	r1, r6, r3
 8005e44:	fb03 6711 	mls	r7, r3, r1, r6
 8005e48:	5dc7      	ldrb	r7, [r0, r7]
 8005e4a:	f805 7d01 	strb.w	r7, [r5, #-1]!
 8005e4e:	4637      	mov	r7, r6
 8005e50:	42bb      	cmp	r3, r7
 8005e52:	460e      	mov	r6, r1
 8005e54:	d9f4      	bls.n	8005e40 <_printf_i+0x11c>
 8005e56:	2b08      	cmp	r3, #8
 8005e58:	d10b      	bne.n	8005e72 <_printf_i+0x14e>
 8005e5a:	6823      	ldr	r3, [r4, #0]
 8005e5c:	07de      	lsls	r6, r3, #31
 8005e5e:	d508      	bpl.n	8005e72 <_printf_i+0x14e>
 8005e60:	6923      	ldr	r3, [r4, #16]
 8005e62:	6861      	ldr	r1, [r4, #4]
 8005e64:	4299      	cmp	r1, r3
 8005e66:	bfde      	ittt	le
 8005e68:	2330      	movle	r3, #48	; 0x30
 8005e6a:	f805 3c01 	strble.w	r3, [r5, #-1]
 8005e6e:	f105 35ff 	addle.w	r5, r5, #4294967295
 8005e72:	1b52      	subs	r2, r2, r5
 8005e74:	6122      	str	r2, [r4, #16]
 8005e76:	464b      	mov	r3, r9
 8005e78:	4621      	mov	r1, r4
 8005e7a:	4640      	mov	r0, r8
 8005e7c:	f8cd a000 	str.w	sl, [sp]
 8005e80:	aa03      	add	r2, sp, #12
 8005e82:	f7ff fedf 	bl	8005c44 <_printf_common>
 8005e86:	3001      	adds	r0, #1
 8005e88:	d14c      	bne.n	8005f24 <_printf_i+0x200>
 8005e8a:	f04f 30ff 	mov.w	r0, #4294967295
 8005e8e:	b004      	add	sp, #16
 8005e90:	e8bd 87f0 	ldmia.w	sp!, {r4, r5, r6, r7, r8, r9, sl, pc}
 8005e94:	4834      	ldr	r0, [pc, #208]	; (8005f68 <_printf_i+0x244>)
 8005e96:	f881 7045 	strb.w	r7, [r1, #69]	; 0x45
 8005e9a:	6829      	ldr	r1, [r5, #0]
 8005e9c:	6823      	ldr	r3, [r4, #0]
 8005e9e:	f851 6b04 	ldr.w	r6, [r1], #4
 8005ea2:	6029      	str	r1, [r5, #0]
 8005ea4:	061d      	lsls	r5, r3, #24
 8005ea6:	d514      	bpl.n	8005ed2 <_printf_i+0x1ae>
 8005ea8:	07df      	lsls	r7, r3, #31
 8005eaa:	bf44      	itt	mi
 8005eac:	f043 0320 	orrmi.w	r3, r3, #32
 8005eb0:	6023      	strmi	r3, [r4, #0]
 8005eb2:	b91e      	cbnz	r6, 8005ebc <_printf_i+0x198>
 8005eb4:	6823      	ldr	r3, [r4, #0]
 8005eb6:	f023 0320 	bic.w	r3, r3, #32
 8005eba:	6023      	str	r3, [r4, #0]
 8005ebc:	2310      	movs	r3, #16
 8005ebe:	e7af      	b.n	8005e20 <_printf_i+0xfc>
 8005ec0:	6823      	ldr	r3, [r4, #0]
 8005ec2:	f043 0320 	orr.w	r3, r3, #32
 8005ec6:	6023      	str	r3, [r4, #0]
 8005ec8:	2378      	movs	r3, #120	; 0x78
 8005eca:	4828      	ldr	r0, [pc, #160]	; (8005f6c <_printf_i+0x248>)
 8005ecc:	f884 3045 	strb.w	r3, [r4, #69]	; 0x45
 8005ed0:	e7e3      	b.n	8005e9a <_printf_i+0x176>
 8005ed2:	0659      	lsls	r1, r3, #25
 8005ed4:	bf48      	it	mi
 8005ed6:	b2b6      	uxthmi	r6, r6
 8005ed8:	e7e6      	b.n	8005ea8 <_printf_i+0x184>
 8005eda:	4615      	mov	r5, r2
 8005edc:	e7bb      	b.n	8005e56 <_printf_i+0x132>
 8005ede:	682b      	ldr	r3, [r5, #0]
 8005ee0:	6826      	ldr	r6, [r4, #0]
 8005ee2:	1d18      	adds	r0, r3, #4
 8005ee4:	6961      	ldr	r1, [r4, #20]
 8005ee6:	6028      	str	r0, [r5, #0]
 8005ee8:	0635      	lsls	r5, r6, #24
 8005eea:	681b      	ldr	r3, [r3, #0]
 8005eec:	d501      	bpl.n	8005ef2 <_printf_i+0x1ce>
 8005eee:	6019      	str	r1, [r3, #0]
 8005ef0:	e002      	b.n	8005ef8 <_printf_i+0x1d4>
 8005ef2:	0670      	lsls	r0, r6, #25
 8005ef4:	d5fb      	bpl.n	8005eee <_printf_i+0x1ca>
 8005ef6:	8019      	strh	r1, [r3, #0]
 8005ef8:	2300      	movs	r3, #0
 8005efa:	4615      	mov	r5, r2
 8005efc:	6123      	str	r3, [r4, #16]
 8005efe:	e7ba      	b.n	8005e76 <_printf_i+0x152>
 8005f00:	682b      	ldr	r3, [r5, #0]
 8005f02:	2100      	movs	r1, #0
 8005f04:	1d1a      	adds	r2, r3, #4
 8005f06:	602a      	str	r2, [r5, #0]
 8005f08:	681d      	ldr	r5, [r3, #0]
 8005f0a:	6862      	ldr	r2, [r4, #4]
 8005f0c:	4628      	mov	r0, r5
 8005f0e:	f000 f921 	bl	8006154 <memchr>
 8005f12:	b108      	cbz	r0, 8005f18 <_printf_i+0x1f4>
 8005f14:	1b40      	subs	r0, r0, r5
 8005f16:	6060      	str	r0, [r4, #4]
 8005f18:	6863      	ldr	r3, [r4, #4]
 8005f1a:	6123      	str	r3, [r4, #16]
 8005f1c:	2300      	movs	r3, #0
 8005f1e:	f884 3043 	strb.w	r3, [r4, #67]	; 0x43
 8005f22:	e7a8      	b.n	8005e76 <_printf_i+0x152>
 8005f24:	462a      	mov	r2, r5
 8005f26:	4649      	mov	r1, r9
 8005f28:	4640      	mov	r0, r8
 8005f2a:	6923      	ldr	r3, [r4, #16]
 8005f2c:	47d0      	blx	sl
 8005f2e:	3001      	adds	r0, #1
 8005f30:	d0ab      	beq.n	8005e8a <_printf_i+0x166>
 8005f32:	6823      	ldr	r3, [r4, #0]
 8005f34:	079b      	lsls	r3, r3, #30
 8005f36:	d413      	bmi.n	8005f60 <_printf_i+0x23c>
 8005f38:	68e0      	ldr	r0, [r4, #12]
 8005f3a:	9b03      	ldr	r3, [sp, #12]
 8005f3c:	4298      	cmp	r0, r3
 8005f3e:	bfb8      	it	lt
 8005f40:	4618      	movlt	r0, r3
 8005f42:	e7a4      	b.n	8005e8e <_printf_i+0x16a>
 8005f44:	2301      	movs	r3, #1
 8005f46:	4632      	mov	r2, r6
 8005f48:	4649      	mov	r1, r9
 8005f4a:	4640      	mov	r0, r8
 8005f4c:	47d0      	blx	sl
 8005f4e:	3001      	adds	r0, #1
 8005f50:	d09b      	beq.n	8005e8a <_printf_i+0x166>
 8005f52:	3501      	adds	r5, #1
 8005f54:	68e3      	ldr	r3, [r4, #12]
 8005f56:	9903      	ldr	r1, [sp, #12]
 8005f58:	1a5b      	subs	r3, r3, r1
 8005f5a:	42ab      	cmp	r3, r5
 8005f5c:	dcf2      	bgt.n	8005f44 <_printf_i+0x220>
 8005f5e:	e7eb      	b.n	8005f38 <_printf_i+0x214>
 8005f60:	2500      	movs	r5, #0
 8005f62:	f104 0619 	add.w	r6, r4, #25
 8005f66:	e7f5      	b.n	8005f54 <_printf_i+0x230>
 8005f68:	08006335 	.word	0x08006335
 8005f6c:	08006346 	.word	0x08006346

08005f70 <_putc_r>:
 8005f70:	b570      	push	{r4, r5, r6, lr}
 8005f72:	460d      	mov	r5, r1
 8005f74:	4614      	mov	r4, r2
 8005f76:	4606      	mov	r6, r0
 8005f78:	b118      	cbz	r0, 8005f82 <_putc_r+0x12>
 8005f7a:	6983      	ldr	r3, [r0, #24]
 8005f7c:	b90b      	cbnz	r3, 8005f82 <_putc_r+0x12>
 8005f7e:	f7ff fb27 	bl	80055d0 <__sinit>
 8005f82:	4b1c      	ldr	r3, [pc, #112]	; (8005ff4 <_putc_r+0x84>)
 8005f84:	429c      	cmp	r4, r3
 8005f86:	d124      	bne.n	8005fd2 <_putc_r+0x62>
 8005f88:	6874      	ldr	r4, [r6, #4]
 8005f8a:	6e63      	ldr	r3, [r4, #100]	; 0x64
 8005f8c:	07d8      	lsls	r0, r3, #31
 8005f8e:	d405      	bmi.n	8005f9c <_putc_r+0x2c>
 8005f90:	89a3      	ldrh	r3, [r4, #12]
 8005f92:	0599      	lsls	r1, r3, #22
 8005f94:	d402      	bmi.n	8005f9c <_putc_r+0x2c>
 8005f96:	6da0      	ldr	r0, [r4, #88]	; 0x58
 8005f98:	f7ff fbb8 	bl	800570c <__retarget_lock_acquire_recursive>
 8005f9c:	68a3      	ldr	r3, [r4, #8]
 8005f9e:	3b01      	subs	r3, #1
 8005fa0:	2b00      	cmp	r3, #0
 8005fa2:	60a3      	str	r3, [r4, #8]
 8005fa4:	da05      	bge.n	8005fb2 <_putc_r+0x42>
 8005fa6:	69a2      	ldr	r2, [r4, #24]
 8005fa8:	4293      	cmp	r3, r2
 8005faa:	db1c      	blt.n	8005fe6 <_putc_r+0x76>
 8005fac:	b2eb      	uxtb	r3, r5
 8005fae:	2b0a      	cmp	r3, #10
 8005fb0:	d019      	beq.n	8005fe6 <_putc_r+0x76>
 8005fb2:	6823      	ldr	r3, [r4, #0]
 8005fb4:	1c5a      	adds	r2, r3, #1
 8005fb6:	6022      	str	r2, [r4, #0]
 8005fb8:	701d      	strb	r5, [r3, #0]
 8005fba:	b2ed      	uxtb	r5, r5
 8005fbc:	6e63      	ldr	r3, [r4, #100]	; 0x64
 8005fbe:	07da      	lsls	r2, r3, #31
 8005fc0:	d405      	bmi.n	8005fce <_putc_r+0x5e>
 8005fc2:	89a3      	ldrh	r3, [r4, #12]
 8005fc4:	059b      	lsls	r3, r3, #22
 8005fc6:	d402      	bmi.n	8005fce <_putc_r+0x5e>
 8005fc8:	6da0      	ldr	r0, [r4, #88]	; 0x58
 8005fca:	f7ff fba0 	bl	800570e <__retarget_lock_release_recursive>
 8005fce:	4628      	mov	r0, r5
 8005fd0:	bd70      	pop	{r4, r5, r6, pc}
 8005fd2:	4b09      	ldr	r3, [pc, #36]	; (8005ff8 <_putc_r+0x88>)
 8005fd4:	429c      	cmp	r4, r3
 8005fd6:	d101      	bne.n	8005fdc <_putc_r+0x6c>
 8005fd8:	68b4      	ldr	r4, [r6, #8]
 8005fda:	e7d6      	b.n	8005f8a <_putc_r+0x1a>
 8005fdc:	4b07      	ldr	r3, [pc, #28]	; (8005ffc <_putc_r+0x8c>)
 8005fde:	429c      	cmp	r4, r3
 8005fe0:	bf08      	it	eq
 8005fe2:	68f4      	ldreq	r4, [r6, #12]
 8005fe4:	e7d1      	b.n	8005f8a <_putc_r+0x1a>
 8005fe6:	4629      	mov	r1, r5
 8005fe8:	4622      	mov	r2, r4
 8005fea:	4630      	mov	r0, r6
 8005fec:	f7ff f91a 	bl	8005224 <__swbuf_r>
 8005ff0:	4605      	mov	r5, r0
 8005ff2:	e7e3      	b.n	8005fbc <_putc_r+0x4c>
 8005ff4:	080062e4 	.word	0x080062e4
 8005ff8:	08006304 	.word	0x08006304
 8005ffc:	080062c4 	.word	0x080062c4

08006000 <_sbrk_r>:
 8006000:	b538      	push	{r3, r4, r5, lr}
 8006002:	2300      	movs	r3, #0
 8006004:	4d05      	ldr	r5, [pc, #20]	; (800601c <_sbrk_r+0x1c>)
 8006006:	4604      	mov	r4, r0
 8006008:	4608      	mov	r0, r1
 800600a:	602b      	str	r3, [r5, #0]
 800600c:	f7fd fcf0 	bl	80039f0 <_sbrk>
 8006010:	1c43      	adds	r3, r0, #1
 8006012:	d102      	bne.n	800601a <_sbrk_r+0x1a>
 8006014:	682b      	ldr	r3, [r5, #0]
 8006016:	b103      	cbz	r3, 800601a <_sbrk_r+0x1a>
 8006018:	6023      	str	r3, [r4, #0]
 800601a:	bd38      	pop	{r3, r4, r5, pc}
 800601c:	200012cc 	.word	0x200012cc

08006020 <__sread>:
 8006020:	b510      	push	{r4, lr}
 8006022:	460c      	mov	r4, r1
 8006024:	f9b1 100e 	ldrsh.w	r1, [r1, #14]
 8006028:	f000 f8ae 	bl	8006188 <_read_r>
 800602c:	2800      	cmp	r0, #0
 800602e:	bfab      	itete	ge
 8006030:	6d63      	ldrge	r3, [r4, #84]	; 0x54
 8006032:	89a3      	ldrhlt	r3, [r4, #12]
 8006034:	181b      	addge	r3, r3, r0
 8006036:	f423 5380 	biclt.w	r3, r3, #4096	; 0x1000
 800603a:	bfac      	ite	ge
 800603c:	6563      	strge	r3, [r4, #84]	; 0x54
 800603e:	81a3      	strhlt	r3, [r4, #12]
 8006040:	bd10      	pop	{r4, pc}

08006042 <__swrite>:
 8006042:	e92d 41f0 	stmdb	sp!, {r4, r5, r6, r7, r8, lr}
 8006046:	461f      	mov	r7, r3
 8006048:	898b      	ldrh	r3, [r1, #12]
 800604a:	4605      	mov	r5, r0
 800604c:	05db      	lsls	r3, r3, #23
 800604e:	460c      	mov	r4, r1
 8006050:	4616      	mov	r6, r2
 8006052:	d505      	bpl.n	8006060 <__swrite+0x1e>
 8006054:	2302      	movs	r3, #2
 8006056:	2200      	movs	r2, #0
 8006058:	f9b1 100e 	ldrsh.w	r1, [r1, #14]
 800605c:	f000 f868 	bl	8006130 <_lseek_r>
 8006060:	89a3      	ldrh	r3, [r4, #12]
 8006062:	4632      	mov	r2, r6
 8006064:	f423 5380 	bic.w	r3, r3, #4096	; 0x1000
 8006068:	81a3      	strh	r3, [r4, #12]
 800606a:	4628      	mov	r0, r5
 800606c:	463b      	mov	r3, r7
 800606e:	f9b4 100e 	ldrsh.w	r1, [r4, #14]
 8006072:	e8bd 41f0 	ldmia.w	sp!, {r4, r5, r6, r7, r8, lr}
 8006076:	f000 b817 	b.w	80060a8 <_write_r>

0800607a <__sseek>:
 800607a:	b510      	push	{r4, lr}
 800607c:	460c      	mov	r4, r1
 800607e:	f9b1 100e 	ldrsh.w	r1, [r1, #14]
 8006082:	f000 f855 	bl	8006130 <_lseek_r>
 8006086:	1c43      	adds	r3, r0, #1
 8006088:	89a3      	ldrh	r3, [r4, #12]
 800608a:	bf15      	itete	ne
 800608c:	6560      	strne	r0, [r4, #84]	; 0x54
 800608e:	f423 5380 	biceq.w	r3, r3, #4096	; 0x1000
 8006092:	f443 5380 	orrne.w	r3, r3, #4096	; 0x1000
 8006096:	81a3      	strheq	r3, [r4, #12]
 8006098:	bf18      	it	ne
 800609a:	81a3      	strhne	r3, [r4, #12]
 800609c:	bd10      	pop	{r4, pc}

0800609e <__sclose>:
 800609e:	f9b1 100e 	ldrsh.w	r1, [r1, #14]
 80060a2:	f000 b813 	b.w	80060cc <_close_r>
	...

080060a8 <_write_r>:
 80060a8:	b538      	push	{r3, r4, r5, lr}
 80060aa:	4604      	mov	r4, r0
 80060ac:	4608      	mov	r0, r1
 80060ae:	4611      	mov	r1, r2
 80060b0:	2200      	movs	r2, #0
 80060b2:	4d05      	ldr	r5, [pc, #20]	; (80060c8 <_write_r+0x20>)
 80060b4:	602a      	str	r2, [r5, #0]
 80060b6:	461a      	mov	r2, r3
 80060b8:	f7fd fc80 	bl	80039bc <_write>
 80060bc:	1c43      	adds	r3, r0, #1
 80060be:	d102      	bne.n	80060c6 <_write_r+0x1e>
 80060c0:	682b      	ldr	r3, [r5, #0]
 80060c2:	b103      	cbz	r3, 80060c6 <_write_r+0x1e>
 80060c4:	6023      	str	r3, [r4, #0]
 80060c6:	bd38      	pop	{r3, r4, r5, pc}
 80060c8:	200012cc 	.word	0x200012cc

080060cc <_close_r>:
 80060cc:	b538      	push	{r3, r4, r5, lr}
 80060ce:	2300      	movs	r3, #0
 80060d0:	4d05      	ldr	r5, [pc, #20]	; (80060e8 <_close_r+0x1c>)
 80060d2:	4604      	mov	r4, r0
 80060d4:	4608      	mov	r0, r1
 80060d6:	602b      	str	r3, [r5, #0]
 80060d8:	f7fd fc7e 	bl	80039d8 <_close>
 80060dc:	1c43      	adds	r3, r0, #1
 80060de:	d102      	bne.n	80060e6 <_close_r+0x1a>
 80060e0:	682b      	ldr	r3, [r5, #0]
 80060e2:	b103      	cbz	r3, 80060e6 <_close_r+0x1a>
 80060e4:	6023      	str	r3, [r4, #0]
 80060e6:	bd38      	pop	{r3, r4, r5, pc}
 80060e8:	200012cc 	.word	0x200012cc

080060ec <_fstat_r>:
 80060ec:	b538      	push	{r3, r4, r5, lr}
 80060ee:	2300      	movs	r3, #0
 80060f0:	4d06      	ldr	r5, [pc, #24]	; (800610c <_fstat_r+0x20>)
 80060f2:	4604      	mov	r4, r0
 80060f4:	4608      	mov	r0, r1
 80060f6:	4611      	mov	r1, r2
 80060f8:	602b      	str	r3, [r5, #0]
 80060fa:	f7fd fc70 	bl	80039de <_fstat>
 80060fe:	1c43      	adds	r3, r0, #1
 8006100:	d102      	bne.n	8006108 <_fstat_r+0x1c>
 8006102:	682b      	ldr	r3, [r5, #0]
 8006104:	b103      	cbz	r3, 8006108 <_fstat_r+0x1c>
 8006106:	6023      	str	r3, [r4, #0]
 8006108:	bd38      	pop	{r3, r4, r5, pc}
 800610a:	bf00      	nop
 800610c:	200012cc 	.word	0x200012cc

08006110 <_isatty_r>:
 8006110:	b538      	push	{r3, r4, r5, lr}
 8006112:	2300      	movs	r3, #0
 8006114:	4d05      	ldr	r5, [pc, #20]	; (800612c <_isatty_r+0x1c>)
 8006116:	4604      	mov	r4, r0
 8006118:	4608      	mov	r0, r1
 800611a:	602b      	str	r3, [r5, #0]
 800611c:	f7fd fc64 	bl	80039e8 <_isatty>
 8006120:	1c43      	adds	r3, r0, #1
 8006122:	d102      	bne.n	800612a <_isatty_r+0x1a>
 8006124:	682b      	ldr	r3, [r5, #0]
 8006126:	b103      	cbz	r3, 800612a <_isatty_r+0x1a>
 8006128:	6023      	str	r3, [r4, #0]
 800612a:	bd38      	pop	{r3, r4, r5, pc}
 800612c:	200012cc 	.word	0x200012cc

08006130 <_lseek_r>:
 8006130:	b538      	push	{r3, r4, r5, lr}
 8006132:	4604      	mov	r4, r0
 8006134:	4608      	mov	r0, r1
 8006136:	4611      	mov	r1, r2
 8006138:	2200      	movs	r2, #0
 800613a:	4d05      	ldr	r5, [pc, #20]	; (8006150 <_lseek_r+0x20>)
 800613c:	602a      	str	r2, [r5, #0]
 800613e:	461a      	mov	r2, r3
 8006140:	f7fd fc54 	bl	80039ec <_lseek>
 8006144:	1c43      	adds	r3, r0, #1
 8006146:	d102      	bne.n	800614e <_lseek_r+0x1e>
 8006148:	682b      	ldr	r3, [r5, #0]
 800614a:	b103      	cbz	r3, 800614e <_lseek_r+0x1e>
 800614c:	6023      	str	r3, [r4, #0]
 800614e:	bd38      	pop	{r3, r4, r5, pc}
 8006150:	200012cc 	.word	0x200012cc

08006154 <memchr>:
 8006154:	4603      	mov	r3, r0
 8006156:	b510      	push	{r4, lr}
 8006158:	b2c9      	uxtb	r1, r1
 800615a:	4402      	add	r2, r0
 800615c:	4293      	cmp	r3, r2
 800615e:	4618      	mov	r0, r3
 8006160:	d101      	bne.n	8006166 <memchr+0x12>
 8006162:	2000      	movs	r0, #0
 8006164:	e003      	b.n	800616e <memchr+0x1a>
 8006166:	7804      	ldrb	r4, [r0, #0]
 8006168:	3301      	adds	r3, #1
 800616a:	428c      	cmp	r4, r1
 800616c:	d1f6      	bne.n	800615c <memchr+0x8>
 800616e:	bd10      	pop	{r4, pc}

08006170 <__malloc_lock>:
 8006170:	4801      	ldr	r0, [pc, #4]	; (8006178 <__malloc_lock+0x8>)
 8006172:	f7ff bacb 	b.w	800570c <__retarget_lock_acquire_recursive>
 8006176:	bf00      	nop
 8006178:	200012c0 	.word	0x200012c0

0800617c <__malloc_unlock>:
 800617c:	4801      	ldr	r0, [pc, #4]	; (8006184 <__malloc_unlock+0x8>)
 800617e:	f7ff bac6 	b.w	800570e <__retarget_lock_release_recursive>
 8006182:	bf00      	nop
 8006184:	200012c0 	.word	0x200012c0

08006188 <_read_r>:
 8006188:	b538      	push	{r3, r4, r5, lr}
 800618a:	4604      	mov	r4, r0
 800618c:	4608      	mov	r0, r1
 800618e:	4611      	mov	r1, r2
 8006190:	2200      	movs	r2, #0
 8006192:	4d05      	ldr	r5, [pc, #20]	; (80061a8 <_read_r+0x20>)
 8006194:	602a      	str	r2, [r5, #0]
 8006196:	461a      	mov	r2, r3
 8006198:	f7fd fc02 	bl	80039a0 <_read>
 800619c:	1c43      	adds	r3, r0, #1
 800619e:	d102      	bne.n	80061a6 <_read_r+0x1e>
 80061a0:	682b      	ldr	r3, [r5, #0]
 80061a2:	b103      	cbz	r3, 80061a6 <_read_r+0x1e>
 80061a4:	6023      	str	r3, [r4, #0]
 80061a6:	bd38      	pop	{r3, r4, r5, pc}
 80061a8:	200012cc 	.word	0x200012cc

080061ac <_init>:
 80061ac:	b5f8      	push	{r3, r4, r5, r6, r7, lr}
 80061ae:	bf00      	nop
 80061b0:	bcf8      	pop	{r3, r4, r5, r6, r7}
 80061b2:	bc08      	pop	{r3}
 80061b4:	469e      	mov	lr, r3
 80061b6:	4770      	bx	lr

080061b8 <_fini>:
 80061b8:	b5f8      	push	{r3, r4, r5, r6, r7, lr}
 80061ba:	bf00      	nop
 80061bc:	bcf8      	pop	{r3, r4, r5, r6, r7}
 80061be:	bc08      	pop	{r3}
 80061c0:	469e      	mov	lr, r3
 80061c2:	4770      	bx	lr
